Archive member included because of file (symbol)

c:/program files (x86)/microchip/mplab c32 suite/bin/../lib/gcc/pic32mx/4.5.1/size\libgcc.a(_udivdi3.o)
                              Objects - TCPIP PIC32 ETH Demo App-C32\TCPPerformanceTest.o (__udivdi3)
c:/program files (x86)/microchip/mplab c32 suite/bin/../lib/gcc/pic32mx/4.5.1/../../../../pic32mx/lib/size\libc.a(memcmp.o)
                              Objects - TCPIP PIC32 ETH Demo App-C32\CustomHTTPApp.o (memcmp)
c:/program files (x86)/microchip/mplab c32 suite/bin/../lib/gcc/pic32mx/4.5.1/../../../../pic32mx/lib/size\libc.a(memcpy.o)
                              Objects - TCPIP PIC32 ETH Demo App-C32\MainDemo.o (memcpy)
c:/program files (x86)/microchip/mplab c32 suite/bin/../lib/gcc/pic32mx/4.5.1/../../../../pic32mx/lib/size\libc.a(memset.o)
                              Objects - TCPIP PIC32 ETH Demo App-C32\DHCP.o (memset)
c:/program files (x86)/microchip/mplab c32 suite/bin/../lib/gcc/pic32mx/4.5.1/../../../../pic32mx/lib/size\libc.a(strcmp.o)
                              Objects - TCPIP PIC32 ETH Demo App-C32\CustomHTTPApp.o (strcmp)
c:/program files (x86)/microchip/mplab c32 suite/bin/../lib/gcc/pic32mx/4.5.1/../../../../pic32mx/lib/size\libc.a(strlen.o)
                              Objects - TCPIP PIC32 ETH Demo App-C32\CustomHTTPApp.o (strlen)
c:/program files (x86)/microchip/mplab c32 suite/bin/../lib/gcc/pic32mx/4.5.1/../../../../pic32mx/lib/size\libc.a(general-exception.o)
                              c:/program files (x86)/microchip/mplab c32 suite/bin/../lib/gcc/pic32mx/4.5.1/../../../../pic32mx/lib/size/crt0.o (_general_exception_context)
c:/program files (x86)/microchip/mplab c32 suite/bin/../lib/gcc/pic32mx/4.5.1/../../../../pic32mx/lib/size\libc.a(atoi.o)
                              Objects - TCPIP PIC32 ETH Demo App-C32\SMTP.o (atoi)
c:/program files (x86)/microchip/mplab c32 suite/bin/../lib/gcc/pic32mx/4.5.1/../../../../pic32mx/lib/size\libc.a(atol.o)
                              Objects - TCPIP PIC32 ETH Demo App-C32\CustomHTTPApp.o (atol)
c:/program files (x86)/microchip/mplab c32 suite/bin/../lib/gcc/pic32mx/4.5.1/../../../../pic32mx/lib/size\libc.a(calloc.o)
                              Objects - TCPIP PIC32 ETH Demo App-C32\ETHPIC32IntMac.o (calloc)
c:/program files (x86)/microchip/mplab c32 suite/bin/../lib/gcc/pic32mx/4.5.1/../../../../pic32mx/lib/size\libc.a(ctype.o)
                              c:/program files (x86)/microchip/mplab c32 suite/bin/../lib/gcc/pic32mx/4.5.1/../../../../pic32mx/lib/size\libc.a(atoi.o) (_ctype)
c:/program files (x86)/microchip/mplab c32 suite/bin/../lib/gcc/pic32mx/4.5.1/../../../../pic32mx/lib/size\libc.a(ltoa.o)
                              Objects - TCPIP PIC32 ETH Demo App-C32\TCPPerformanceTest.o (ultoa)
c:/program files (x86)/microchip/mplab c32 suite/bin/../lib/gcc/pic32mx/4.5.1/../../../../pic32mx/lib/size\libc.a(malloc.o)
                              c:/program files (x86)/microchip/mplab c32 suite/bin/../lib/gcc/pic32mx/4.5.1/../../../../pic32mx/lib/size\libc.a(calloc.o) (malloc)
c:/program files (x86)/microchip/mplab c32 suite/bin/../lib/gcc/pic32mx/4.5.1/../../../../pic32mx/lib/size\libc.a(strchr.o)
                              Objects - TCPIP PIC32 ETH Demo App-C32\SMTP.o (strchr)
c:/program files (x86)/microchip/mplab c32 suite/bin/../lib/gcc/pic32mx/4.5.1/../../../../pic32mx/lib/size\libc.a(strncpy.o)
                              Objects - TCPIP PIC32 ETH Demo App-C32\Helpers.o (strncpy)
c:/program files (x86)/microchip/mplab c32 suite/bin/../lib/gcc/pic32mx/4.5.1/../../../../pic32mx/lib/size\libc.a(strstr.o)
                              Objects - TCPIP PIC32 ETH Demo App-C32\SMTP.o (strstr)
c:/program files (x86)/microchip/mplab c32 suite/bin/../lib/gcc/pic32mx/4.5.1/../../../../pic32mx/lib/size\libc.a(sbrk.o)
                              c:/program files (x86)/microchip/mplab c32 suite/bin/../lib/gcc/pic32mx/4.5.1/../../../../pic32mx/lib/size\libc.a(malloc.o) (sbrk)
c:/program files (x86)/microchip/mplab c32 suite/bin/../lib/gcc/pic32mx/4.5.1/../../../../pic32mx/lib/size\libc.a(default-bootstrap-exception-handler.o)
                              c:/program files (x86)/microchip/mplab c32 suite/bin/../lib/gcc/pic32mx/4.5.1/../../../../pic32mx/lib/size/crt0.o (_bootstrap_exception_handler)
c:/program files (x86)/microchip/mplab c32 suite/bin/../lib/gcc/pic32mx/4.5.1/../../../../pic32mx/lib/size\libc.a(default-on-reset.o)
                              c:/program files (x86)/microchip/mplab c32 suite/bin/../lib/gcc/pic32mx/4.5.1/../../../../pic32mx/lib/size/crt0.o (_on_reset)
c:/program files (x86)/microchip/mplab c32 suite/bin/../lib/gcc/pic32mx/4.5.1/../../../../pic32mx/lib/size\libc.a(default-on-bootstrap.o)
                              c:/program files (x86)/microchip/mplab c32 suite/bin/../lib/gcc/pic32mx/4.5.1/../../../../pic32mx/lib/size/crt0.o (_on_bootstrap)
c:/program files (x86)/microchip/mplab c32 suite/bin/../lib/gcc/pic32mx/4.5.1/../../../../pic32mx/lib/size\libc.a(default-nmi-handler.o)
                              c:/program files (x86)/microchip/mplab c32 suite/bin/../lib/gcc/pic32mx/4.5.1/../../../../pic32mx/lib/size/crt0.o (_nmi_handler)
c:/program files (x86)/microchip/mplab c32 suite/bin/../lib/gcc/pic32mx/4.5.1/../../../../pic32mx/lib/size\libc.a(errno.o)
                              c:/program files (x86)/microchip/mplab c32 suite/bin/../lib/gcc/pic32mx/4.5.1/../../../../pic32mx/lib/size\libc.a(sbrk.o) (errno)
c:/program files (x86)/microchip/mplab c32 suite/bin/../lib/gcc/pic32mx/4.5.1/../../../../pic32mx/lib/size\libc.a(strncmp.o)
                              c:/program files (x86)/microchip/mplab c32 suite/bin/../lib/gcc/pic32mx/4.5.1/../../../../pic32mx/lib/size\libc.a(strstr.o) (strncmp)
c:/program files (x86)/microchip/mplab c32 suite/bin/../lib/gcc/pic32mx/4.5.1/../../../../pic32mx/lib/size\libmchp_peripheral.a(read_core_timer_lib.o)
                              Objects - TCPIP PIC32 ETH Demo App-C32\ETHPIC32ExtPhy.o (ReadCoreTimer)
c:/program files (x86)/microchip/mplab c32 suite/bin/../lib/gcc/pic32mx/4.5.1/../../../../pic32mx/lib/size\libmchp_peripheral_32MX795F512L.a(eth_ack_packet_lib.o)
                              Objects - TCPIP PIC32 ETH Demo App-C32\ETHPIC32IntMac.o (EthRxAcknowledgeBuffer)
c:/program files (x86)/microchip/mplab c32 suite/bin/../lib/gcc/pic32mx/4.5.1/../../../../pic32mx/lib/size\libmchp_peripheral_32MX795F512L.a(eth_descriptors_add_lib.o)
                              Objects - TCPIP PIC32 ETH Demo App-C32\ETHPIC32IntMac.o (EthDescriptorsPoolAdd)
c:/program files (x86)/microchip/mplab c32 suite/bin/../lib/gcc/pic32mx/4.5.1/../../../../pic32mx/lib/size\libmchp_peripheral_32MX795F512L.a(eth_init_lib.o)
                              Objects - TCPIP PIC32 ETH Demo App-C32\ETHPIC32IntMac.o (EthInit)
c:/program files (x86)/microchip/mplab c32 suite/bin/../lib/gcc/pic32mx/4.5.1/../../../../pic32mx/lib/size\libmchp_peripheral_32MX795F512L.a(eth_mac_open_lib.o)
                              Objects - TCPIP PIC32 ETH Demo App-C32\ETHPIC32IntMac.o (EthMACOpen)
c:/program files (x86)/microchip/mplab c32 suite/bin/../lib/gcc/pic32mx/4.5.1/../../../../pic32mx/lib/size\libmchp_peripheral_32MX795F512L.a(eth_mac_set_address_max_lib.o)
                              Objects - TCPIP PIC32 ETH Demo App-C32\ETHPIC32IntMac.o (EthMACSetAddress)
c:/program files (x86)/microchip/mplab c32 suite/bin/../lib/gcc/pic32mx/4.5.1/../../../../pic32mx/lib/size\libmchp_peripheral_32MX795F512L.a(eth_rx_buffers_append_lib.o)
                              Objects - TCPIP PIC32 ETH Demo App-C32\ETHPIC32IntMac.o (EthRxBuffersAppend)
c:/program files (x86)/microchip/mplab c32 suite/bin/../lib/gcc/pic32mx/4.5.1/../../../../pic32mx/lib/size\libmchp_peripheral_32MX795F512L.a(eth_rx_filters_lib.o)
                              Objects - TCPIP PIC32 ETH Demo App-C32\ETHPIC32IntMac.o (EthRxFiltersSet)
c:/program files (x86)/microchip/mplab c32 suite/bin/../lib/gcc/pic32mx/4.5.1/../../../../pic32mx/lib/size\libmchp_peripheral_32MX795F512L.a(eth_rx_get_packet_lib.o)
                              Objects - TCPIP PIC32 ETH Demo App-C32\ETHPIC32IntMac.o (EthRxGetBuffer)
c:/program files (x86)/microchip/mplab c32 suite/bin/../lib/gcc/pic32mx/4.5.1/../../../../pic32mx/lib/size\libmchp_peripheral_32MX795F512L.a(eth_rx_set_buffer_size_lib.o)
                              Objects - TCPIP PIC32 ETH Demo App-C32\ETHPIC32IntMac.o (EthRxSetBufferSize)
c:/program files (x86)/microchip/mplab c32 suite/bin/../lib/gcc/pic32mx/4.5.1/../../../../pic32mx/lib/size\libmchp_peripheral_32MX795F512L.a(eth_tx_packet_lib.o)
                              Objects - TCPIP PIC32 ETH Demo App-C32\ETHPIC32IntMac.o (EthTxSendBuffer)
c:/program files (x86)/microchip/mplab c32 suite/bin/../lib/gcc/pic32mx/4.5.1/../../../../pic32mx/lib/size\libmchp_peripheral_32MX795F512L.a(_eth_append_busy_list_lib.o)
                              c:/program files (x86)/microchip/mplab c32 suite/bin/../lib/gcc/pic32mx/4.5.1/../../../../pic32mx/lib/size\libmchp_peripheral_32MX795F512L.a(eth_ack_packet_lib.o) (_EthAppendBusyList)
c:/program files (x86)/microchip/mplab c32 suite/bin/../lib/gcc/pic32mx/4.5.1/../../../../pic32mx/lib/size\libmchp_peripheral_32MX795F512L.a(eth_miim_access.o)
                              Objects - TCPIP PIC32 ETH Demo App-C32\ETHPIC32ExtPhy.o (EthMIIMReadStart)
c:/program files (x86)/microchip/mplab c32 suite/bin/../lib/gcc/pic32mx/4.5.1/../../../../pic32mx/lib/size\libmchp_peripheral_32MX795F512L.a(soft_reset_lib.o)
                              Objects - TCPIP PIC32 ETH Demo App-C32\CustomHTTPApp.o (SoftReset)
c:/program files (x86)/microchip/mplab c32 suite/bin/../lib/gcc/pic32mx/4.5.1/../../../../pic32mx/lib/size\libmchp_peripheral_32MX795F512L.a(pcache.o)
                              Objects - TCPIP PIC32 ETH Demo App-C32\MainDemo.o (CheKseg0CacheOn)
c:/program files (x86)/microchip/mplab c32 suite/bin/../lib/gcc/pic32mx/4.5.1/../../../../pic32mx/lib/size\libmchp_peripheral_32MX795F512L.a(int_disable_interrupts_lib.o)
                              Objects - TCPIP PIC32 ETH Demo App-C32\MainDemo.o (INTDisableInterrupts)
c:/program files (x86)/microchip/mplab c32 suite/bin/../lib/gcc/pic32mx/4.5.1/../../../../pic32mx/lib/size\libmchp_peripheral_32MX795F512L.a(int_restore_interrupts_lib.o)
                              Objects - TCPIP PIC32 ETH Demo App-C32\MainDemo.o (INTRestoreInterrupts)
c:/program files (x86)/microchip/mplab c32 suite/bin/../lib/gcc/pic32mx/4.5.1/../../../../pic32mx/lib/size\libmchp_peripheral_32MX795F512L.a(int_enable_mv_int_lib.o)
                              Objects - TCPIP PIC32 ETH Demo App-C32\MainDemo.o (INTEnableSystemMultiVectoredInt)
c:/program files (x86)/microchip/mplab c32 suite/bin/../lib/gcc/pic32mx/4.5.1/../../../../pic32mx/lib/size\libmchp_peripheral_32MX795F512L.a(int_tbl_lib.o)
                              c:/program files (x86)/microchip/mplab c32 suite/bin/../lib/gcc/pic32mx/4.5.1/../../../../pic32mx/lib/size\libmchp_peripheral_32MX795F512L.a(eth_init_lib.o) (INTClearFlag)
c:/program files (x86)/microchip/mplab c32 suite/bin/../lib/gcc/pic32mx/4.5.1/../../../../pic32mx/lib/size\libmchp_peripheral_32MX795F512L.a(port_set_pins_digital_in_lib.o)
                              Objects - TCPIP PIC32 ETH Demo App-C32\ETHPIC32ExtPhy.o (PORTSetPinsDigitalIn)
c:/program files (x86)/microchip/mplab c32 suite/bin/../lib/gcc/pic32mx/4.5.1/../../../../pic32mx/lib/size\libmchp_peripheral_32MX795F512L.a(port_set_pins_digital_out_lib.o)
                              Objects - TCPIP PIC32 ETH Demo App-C32\ETHPIC32ExtPhy.o (PORTSetPinsDigitalOut)
c:/program files (x86)/microchip/mplab c32 suite/bin/../lib/gcc/pic32mx/4.5.1/../../../../pic32mx/lib/size\libmchp_peripheral_32MX795F512L.a(_ports_tbl_libp.o)
                              c:/program files (x86)/microchip/mplab c32 suite/bin/../lib/gcc/pic32mx/4.5.1/../../../../pic32mx/lib/size\libmchp_peripheral_32MX795F512L.a(port_set_pins_digital_in_lib.o) (PortRegTbl)
c:/program files (x86)/microchip/mplab c32 suite/bin/../lib/gcc/pic32mx/4.5.1/../../../../pic32mx/lib/size\libmchp_peripheral_32MX795F512L.a(uart_lib.o)
                              Objects - TCPIP PIC32 ETH Demo App-C32\MainDemo.o (UARTEnable)
c:/program files (x86)/microchip/mplab c32 suite/bin/../lib/gcc/pic32mx/4.5.1/../../../../pic32mx/lib/size\libmchp_peripheral_32MX795F512L.a(int_enable_interrupts_lib.o)
                              c:/program files (x86)/microchip/mplab c32 suite/bin/../lib/gcc/pic32mx/4.5.1/../../../../pic32mx/lib/size\libmchp_peripheral_32MX795F512L.a(int_enable_mv_int_lib.o) (INTEnableInterrupts)

Allocating common symbols
Common symbol       size              file

activeUDPSocket     0x1               Objects - TCPIP PIC32 ETH Demo App-C32\UDP.o
curHTTP             0x8c              Objects - TCPIP PIC32 ETH Demo App-C32\HTTP2.o
UDPTxCount          0x2               Objects - TCPIP PIC32 ETH Demo App-C32\UDP.o
SMTPClient          0x2c              Objects - TCPIP PIC32 ETH Demo App-C32\SMTP.o
curHTTPID           0x1               Objects - TCPIP PIC32 ETH Demo App-C32\HTTP2.o
DDNSClient          0x20              Objects - TCPIP PIC32 ETH Demo App-C32\DynDNS.o
_PhyAdd             0x4               Objects - TCPIP PIC32 ETH Demo App-C32\ETHPIC32ExtPhy.o
AN0String           0x8               Objects - TCPIP PIC32 ETH Demo App-C32\MainDemo.o
UDPSocketInfo       0x118             Objects - TCPIP PIC32 ETH Demo App-C32\UDP.o
lastBlock           0x40              Objects - TCPIP PIC32 ETH Demo App-C32\Hashes.o
remoteNode          0xa               Objects - TCPIP PIC32 ETH Demo App-C32\StackTsk.o
UDPRxCount          0x2               Objects - TCPIP PIC32 ETH Demo App-C32\UDP.o
httpStubs           0x10              Objects - TCPIP PIC32 ETH Demo App-C32\HTTP2.o
AppConfig           0x33              Objects - TCPIP PIC32 ETH Demo App-C32\MainDemo.o

Microchip PIC32 Memory-Usage Report

kseg0 Program-Memory Usage
section                    address  length [bytes]      (dec)  Description
-------                 ----------  -------------------------  -----------
.text                   0x9d000008         0x8674       34420  App's exec code 
.rodata                 0x9d00867c         0x7f60       32608  Read-only const 
.text                   0x9d0105dc        0x1a6fc      108284  App's exec code 
.rodata                 0x9d02acd8          0x7d4        2004  Read-only const 
.text                   0x9d02b4ac         0x2984       10628  App's exec code 
.rodata                 0x9d02de30          0x548        1352  Read-only const 
.text                   0x9d02e378          0x524        1316  App's exec code 
.rodata                 0x9d02e89c          0x4f0        1264  Read-only const 
.dinit                  0x9d02ed8c          0x4c8        1224   
.text                   0x9d02f254         0x21b4        8628  App's exec code 
.text.malloc            0x9d031408          0x254         596   
.rodata                 0x9d03165c          0x250         592  Read-only const 
.text.EthRxBuffersAppen 0x9d0318ac          0x224         548   
.text                   0x9d031ad0          0x214         532  App's exec code 
.text.realloc           0x9d031ce4          0x200         512   
.rodata                 0x9d031ee4          0x3bc         956  Read-only const 
.text                   0x9d0322a0          0x1c4         452  App's exec code 
.text._EthAckPacket     0x9d032464          0x1bc         444   
.text._EthRxAckBuffer   0x9d032620          0x188         392   
.text                   0x9d0327a8          0x2d0         720  App's exec code 
.text._EthAppendBusyLis 0x9d032a78          0x160         352   
.text                   0x9d032bd8          0x2b0         688  App's exec code 
.text.EthRxGetPacket    0x9d032e88          0x150         336   
.text._sbrk_init        0x9d032fd8          0x14c         332   
.rodata                 0x9d033124          0x270         624  Read-only const 
.text.EthDescriptorsPoo 0x9d033394          0x130         304   
.text                   0x9d0334c4          0x120         288  App's exec code 
.text.EthDescriptorsAdd 0x9d0335e4          0x120         288   
.text.EthTxSendPacket   0x9d033704          0x10c         268   
.text                   0x9d033810          0x104         260  App's exec code 
.rodata                 0x9d033914          0x104         260  Read-only const 
.text                   0x9d033a18           0xf0         240  App's exec code 
.text.general_exception 0x9d033b08           0xd0         208   
.text.EthMACOpen        0x9d033bd8           0xb8         184   
.text.EthTxSendBuffer   0x9d033c90           0xb0         176   
.text.EthInit           0x9d033d40           0xac         172   
.text                   0x9d033dec           0xa8         168  App's exec code 
.text._sbrk             0x9d033e94           0xa4         164   
.text._EthTxSchedBuffer 0x9d033f38           0xa0         160   
.rodata                 0x9d033fd8           0x98         152  Read-only const 
.text                   0x9d034070           0x98         152  App's exec code 
.rodata                 0x9d034108           0x94         148  Read-only const 
.text.atol              0x9d03419c           0x90         144   
.text.atoi              0x9d03422c           0x84         132   
.text._EthTxSchedList   0x9d0342b0           0x84         132   
.text.strstr            0x9d034334           0x78         120   
.text.SoftReset         0x9d0343ac           0x78         120   
.text.UARTEnable        0x9d034424           0x78         120   
.text.ultoa             0x9d03449c           0x68         104   
.text.EthRxFiltersPMSet 0x9d034504           0x64         100   
.text.EthTxGetBufferSta 0x9d034568           0x60          96   
.text.EthMIIMConfig     0x9d0345c8           0x60          96   
.rodata                 0x9d034628           0x5c          92  Read-only const 
.text.UARTSetDataRate   0x9d034684           0x5c          92   
.rodata                 0x9d0346e0           0xa4         164  Read-only const 
.text.calloc            0x9d034784           0x50          80   
.text.EthMACSetAddress  0x9d0347d4           0x4c          76   
.text.INTEnable         0x9d034820           0x4c          76   
.text.strncpy           0x9d03486c           0x48          72   
.text.sbrk              0x9d0348b4           0x48          72   
.rodata                 0x9d0348fc           0x44          68  Read-only const 
.text.strncmp           0x9d034940           0x44          68   
.text.EthMACGetAddress  0x9d034984           0x44          68   
.text.EthMIIMReadStart  0x9d0349c8           0x44          68   
.text.ltoa              0x9d034a0c           0x40          64   
.text.UARTGetDataRate   0x9d034a4c           0x40          64   
.text.EthRxGetBuffer    0x9d034a8c           0x3c          60   
.text.EthMIIMWriteStart 0x9d034ac8           0x3c          60   
.text.PORTSetPinsDigita 0x9d034b04           0x3c          60   
.text.PORTSetPinsDigita 0x9d034b40           0x3c          60   
.text.UARTConfigure     0x9d034b7c           0x3c          60   
.text.UARTSetAddress    0x9d034bb8           0x3c          60   
.text._EthFindPacket    0x9d034bf4           0x38          56   
.text.EthMIIMScanStart  0x9d034c2c           0x38          56   
.text.INTSetVectorPrior 0x9d034c64           0x38          56   
.text.INTSetVectorSubPr 0x9d034c9c           0x38          56   
.text.UARTWatchForAddre 0x9d034cd4           0x38          56   
.text.INTEnableSystemMu 0x9d034d0c           0x34          52   
.rodata                 0x9d034d40           0x30          48  Read-only const 
.text.EthTxAcknowledgeB 0x9d034d70           0x30          48   
.text.EthTxAckBuffer    0x9d034da0           0x30          48   
.text.EthRxSetBufferSiz 0x9d034dd0           0x30          48   
.text.strchr            0x9d034e00           0x2c          44   
.text._stub_sbd_memlayo 0x9d034e2c           0x2c          44   
.text.EthMIIMReadResult 0x9d034e58           0x2c          44   
.text.INTGetVectorPrior 0x9d034e84           0x2c          44   
.text.INTGetVectorSubPr 0x9d034eb0           0x2c          44   
.text.INTClearFlag      0x9d034edc           0x28          40   
.text.INTSetFlag        0x9d034f04           0x28          40   
.text.INTGetFlag        0x9d034f2c           0x28          40   
.text.INTGetEnable      0x9d034f54           0x28          40   
.text.UARTSetFifoMode   0x9d034f7c           0x28          40   
.text.UARTSetLineContro 0x9d034fa4           0x28          40   
.text.free              0x9d034fcc           0x24          36   
.text.EthMIIMScanResult 0x9d034ff0           0x24          36   
.rodata                 0x9d035014           0x1c          28  Read-only const 
.text.EthRxAcknowledgeB 0x9d035030           0x1c          28   
.text.EthRxAckBuffer    0x9d03504c           0x1c          28   
.text.INTRestoreInterru 0x9d035068           0x1c          28   
.text                   0x9d035084           0x18          24  App's exec code 
.text.EthRxFiltersHTSet 0x9d03509c           0x18          24   
.text.CheKseg0CacheOff  0x9d0350b4           0x18          24   
.text.CheKseg0CacheOn   0x9d0350cc           0x18          24   
.rodata                 0x9d0350e4           0x2c          44  Read-only const 
.text.EthMACSetMaxFrame 0x9d035110           0x14          20   
.text.EthRxFiltersPMClr 0x9d035124           0x14          20   
.text                   0x9d035138           0x10          16  App's exec code 
.rodata                 0x9d035148           0x20          32  Read-only const 
.text.EthRxFiltersSet   0x9d035168           0x10          16   
.text.EthRxFiltersClr   0x9d035178           0x10          16   
.text.EthRxFiltersWrite 0x9d035188           0x10          16   
.rodata                 0x9d035198           0x10          16  Read-only const 
.text._bootstrap_except 0x9d0351a8            0xc          12   
.rodata                 0x9d0351b4           0x10          16  Read-only const 
.text.getpagesize       0x9d0351c4            0x8           8   
.text._on_reset         0x9d0351cc            0x8           8   
.text._on_bootstrap     0x9d0351d4            0x8           8   
.text.ReadCoreTimer     0x9d0351dc            0x8           8   
.text.INTDisableInterru 0x9d0351e4            0x8           8   
.text.INTEnableInterrup 0x9d0351ec            0x8           8   
      Total kseg0_program_mem used  :     0x351ec      217580  41.5% of 0x80000

kseg0 Boot-Memory Usage
section                    address  length [bytes]      (dec)  Description
-------                 ----------  -------------------------  -----------
         Total kseg0_boot_mem used  :           0           0  <1% of 0x970

Exception-Memory Usage 
section                    address  length [bytes]      (dec)  Description
-------                 ----------  -------------------------  -----------
.app_excpt              0x9fc01180           0x10          16  General-Exception 
.vector_8               0x9fc01300            0x8           8  Interrupt Vector 8 
          Total exception_mem used  :        0x18          24  0.6% of 0x1000

kseg1 Boot-Memory Usage
section                    address  length [bytes]      (dec)  Description
-------                 ----------  -------------------------  -----------
.reset                  0xbfc00000          0x1f4         500  Reset handler 
.bev_excpt              0xbfc00380           0x10          16  BEV-Exception 
         Total kseg1_boot_mem used  :       0x204         516  44.2% of 0x490
        --------------------------------------------------------------------------
         Total Program Memory used  :     0x35408      218120  41.0% of 0x81e00
        --------------------------------------------------------------------------


kseg1 Data-Memory Usage
section                    address  length [bytes]      (dec)  Description
-------                 ----------  -------------------------  -----------
.eh_frame               0xa0000000           0x28          40   
.sdata                  0xa0000028           0x34          52  Small init data 
.sbss                   0xa000005c          0x1e0         480  Small uninit data 
.bss                    0xa000023c          0x280         640  Uninitialized data 
.bss                    0xa00004bc         0x7024       28708  Uninitialized data 
.data                   0xa00074e0           0xec         236  Initialized data 
.bss                    0xa00075cc           0xc8         200  Uninitialized data 
.data                   0xa0007694           0x10          16  Initialized data 
.bss                    0xa00076a4           0x44          68  Uninitialized data 
.pbss                   0xa00076e8            0x8           8   
         Total kseg1_data_mem used  :      0x76f0       30448  23.2% of 0x20000
        --------------------------------------------------------------------------
            Total Data Memory used  :      0x76f0       30448  23.2% of 0x20000
        --------------------------------------------------------------------------


Dynamic Data-Memory Reservation
section                    address  length [bytes]      (dec)  Description
-------                 ----------  -------------------------  -----------
heap                    0xa00076f8         0x3e80       16000  Reserved for heap 
stack                   0xa000b590        0x14a68       84584  Reserved for stack 

        --------------------------------------------------------------------------

Discarded input sections

 .reginfo       0x00000000       0x18 c:/program files (x86)/microchip/mplab c32 suite/bin/../lib/gcc/pic32mx/4.5.1/../../../../pic32mx/lib/size/crt0.o
 .pdr           0x00000000       0xa0 c:/program files (x86)/microchip/mplab c32 suite/bin/../lib/gcc/pic32mx/4.5.1/../../../../pic32mx/lib/size/crt0.o
 .reginfo       0x00000000       0x18 Objects - TCPIP PIC32 ETH Demo App-C32\MainDemo.o
 .pdr           0x00000000       0xc0 Objects - TCPIP PIC32 ETH Demo App-C32\MainDemo.o
 .reginfo       0x00000000       0x18 Objects - TCPIP PIC32 ETH Demo App-C32\CustomHTTPApp.o
 .pdr           0x00000000      0x520 Objects - TCPIP PIC32 ETH Demo App-C32\CustomHTTPApp.o
 .reginfo       0x00000000       0x18 Objects - TCPIP PIC32 ETH Demo App-C32\UDPPerformanceTest.o
 .pdr           0x00000000        0x0 Objects - TCPIP PIC32 ETH Demo App-C32\UDPPerformanceTest.o
 .reginfo       0x00000000       0x18 Objects - TCPIP PIC32 ETH Demo App-C32\Announce.o
 .pdr           0x00000000       0x40 Objects - TCPIP PIC32 ETH Demo App-C32\Announce.o
 .reginfo       0x00000000       0x18 Objects - TCPIP PIC32 ETH Demo App-C32\ARP.o
 .pdr           0x00000000       0xe0 Objects - TCPIP PIC32 ETH Demo App-C32\ARP.o
 .reginfo       0x00000000       0x18 Objects - TCPIP PIC32 ETH Demo App-C32\Delay.o
 .pdr           0x00000000       0x40 Objects - TCPIP PIC32 ETH Demo App-C32\Delay.o
 .reginfo       0x00000000       0x18 Objects - TCPIP PIC32 ETH Demo App-C32\DHCP.o
 .pdr           0x00000000      0x140 Objects - TCPIP PIC32 ETH Demo App-C32\DHCP.o
 .reginfo       0x00000000       0x18 Objects - TCPIP PIC32 ETH Demo App-C32\DHCPs.o
 .pdr           0x00000000       0x60 Objects - TCPIP PIC32 ETH Demo App-C32\DHCPs.o
 .reginfo       0x00000000       0x18 Objects - TCPIP PIC32 ETH Demo App-C32\DNS.o
 .pdr           0x00000000       0xc0 Objects - TCPIP PIC32 ETH Demo App-C32\DNS.o
 .reginfo       0x00000000       0x18 Objects - TCPIP PIC32 ETH Demo App-C32\DynDNS.o
 .pdr           0x00000000       0xc0 Objects - TCPIP PIC32 ETH Demo App-C32\DynDNS.o
 .reginfo       0x00000000       0x18 Objects - TCPIP PIC32 ETH Demo App-C32\ENC28J60.o
 .pdr           0x00000000        0x0 Objects - TCPIP PIC32 ETH Demo App-C32\ENC28J60.o
 .reginfo       0x00000000       0x18 Objects - TCPIP PIC32 ETH Demo App-C32\FTP.o
 .pdr           0x00000000        0x0 Objects - TCPIP PIC32 ETH Demo App-C32\FTP.o
 .reginfo       0x00000000       0x18 Objects - TCPIP PIC32 ETH Demo App-C32\Hashes.o
 .pdr           0x00000000       0xa0 Objects - TCPIP PIC32 ETH Demo App-C32\Hashes.o
 .reginfo       0x00000000       0x18 Objects - TCPIP PIC32 ETH Demo App-C32\Helpers.o
 .pdr           0x00000000      0x240 Objects - TCPIP PIC32 ETH Demo App-C32\Helpers.o
 .reginfo       0x00000000       0x18 Objects - TCPIP PIC32 ETH Demo App-C32\HTTP2.o
 .pdr           0x00000000      0x220 Objects - TCPIP PIC32 ETH Demo App-C32\HTTP2.o
 .reginfo       0x00000000       0x18 Objects - TCPIP PIC32 ETH Demo App-C32\HTTP.o
 .pdr           0x00000000        0x0 Objects - TCPIP PIC32 ETH Demo App-C32\HTTP.o
 .reginfo       0x00000000       0x18 Objects - TCPIP PIC32 ETH Demo App-C32\ICMP.o
 .pdr           0x00000000       0xc0 Objects - TCPIP PIC32 ETH Demo App-C32\ICMP.o
 .reginfo       0x00000000       0x18 Objects - TCPIP PIC32 ETH Demo App-C32\IP.o
 .pdr           0x00000000       0x80 Objects - TCPIP PIC32 ETH Demo App-C32\IP.o
 .reginfo       0x00000000       0x18 Objects - TCPIP PIC32 ETH Demo App-C32\LCDBlocking.o
 .pdr           0x00000000        0x0 Objects - TCPIP PIC32 ETH Demo App-C32\LCDBlocking.o
 .reginfo       0x00000000       0x18 Objects - TCPIP PIC32 ETH Demo App-C32\MPFS2.o
 .pdr           0x00000000      0x280 Objects - TCPIP PIC32 ETH Demo App-C32\MPFS2.o
 .reginfo       0x00000000       0x18 Objects - TCPIP PIC32 ETH Demo App-C32\MPFS.o
 .pdr           0x00000000        0x0 Objects - TCPIP PIC32 ETH Demo App-C32\MPFS.o
 .reginfo       0x00000000       0x18 Objects - TCPIP PIC32 ETH Demo App-C32\NBNS.o
 .pdr           0x00000000       0x60 Objects - TCPIP PIC32 ETH Demo App-C32\NBNS.o
 .reginfo       0x00000000       0x18 Objects - TCPIP PIC32 ETH Demo App-C32\Reboot.o
 .pdr           0x00000000       0x20 Objects - TCPIP PIC32 ETH Demo App-C32\Reboot.o
 .reginfo       0x00000000       0x18 Objects - TCPIP PIC32 ETH Demo App-C32\SMTP.o
 .pdr           0x00000000      0x1a0 Objects - TCPIP PIC32 ETH Demo App-C32\SMTP.o
 .reginfo       0x00000000       0x18 Objects - TCPIP PIC32 ETH Demo App-C32\SNMP.o
 .pdr           0x00000000        0x0 Objects - TCPIP PIC32 ETH Demo App-C32\SNMP.o
 .reginfo       0x00000000       0x18 Objects - TCPIP PIC32 ETH Demo App-C32\SNTP.o
 .pdr           0x00000000       0x40 Objects - TCPIP PIC32 ETH Demo App-C32\SNTP.o
 .reginfo       0x00000000       0x18 Objects - TCPIP PIC32 ETH Demo App-C32\SPIEEPROM.o
 .pdr           0x00000000        0x0 Objects - TCPIP PIC32 ETH Demo App-C32\SPIEEPROM.o
 .reginfo       0x00000000       0x18 Objects - TCPIP PIC32 ETH Demo App-C32\SPIFlash.o
 .pdr           0x00000000        0x0 Objects - TCPIP PIC32 ETH Demo App-C32\SPIFlash.o
 .reginfo       0x00000000       0x18 Objects - TCPIP PIC32 ETH Demo App-C32\SPIRAM.o
 .pdr           0x00000000        0x0 Objects - TCPIP PIC32 ETH Demo App-C32\SPIRAM.o
 .reginfo       0x00000000       0x18 Objects - TCPIP PIC32 ETH Demo App-C32\StackTsk.o
 .pdr           0x00000000       0x60 Objects - TCPIP PIC32 ETH Demo App-C32\StackTsk.o
 .reginfo       0x00000000       0x18 Objects - TCPIP PIC32 ETH Demo App-C32\TCP.o
 .pdr           0x00000000      0x420 Objects - TCPIP PIC32 ETH Demo App-C32\TCP.o
 .reginfo       0x00000000       0x18 Objects - TCPIP PIC32 ETH Demo App-C32\TCPPerformanceTest.o
 .pdr           0x00000000       0x60 Objects - TCPIP PIC32 ETH Demo App-C32\TCPPerformanceTest.o
 .reginfo       0x00000000       0x18 Objects - TCPIP PIC32 ETH Demo App-C32\Telnet.o
 .pdr           0x00000000       0x20 Objects - TCPIP PIC32 ETH Demo App-C32\Telnet.o
 .reginfo       0x00000000       0x18 Objects - TCPIP PIC32 ETH Demo App-C32\TFTPc.o
 .pdr           0x00000000        0x0 Objects - TCPIP PIC32 ETH Demo App-C32\TFTPc.o
 .reginfo       0x00000000       0x18 Objects - TCPIP PIC32 ETH Demo App-C32\Tick.o
 .pdr           0x00000000      0x100 Objects - TCPIP PIC32 ETH Demo App-C32\Tick.o
 .reginfo       0x00000000       0x18 Objects - TCPIP PIC32 ETH Demo App-C32\UART2TCPBridge.o
 .pdr           0x00000000        0x0 Objects - TCPIP PIC32 ETH Demo App-C32\UART2TCPBridge.o
 .reginfo       0x00000000       0x18 Objects - TCPIP PIC32 ETH Demo App-C32\UDP.o
 .pdr           0x00000000      0x240 Objects - TCPIP PIC32 ETH Demo App-C32\UDP.o
 .reginfo       0x00000000       0x18 Objects - TCPIP PIC32 ETH Demo App-C32\CustomSNMPApp.o
 .pdr           0x00000000        0x0 Objects - TCPIP PIC32 ETH Demo App-C32\CustomSNMPApp.o
 .reginfo       0x00000000       0x18 Objects - TCPIP PIC32 ETH Demo App-C32\UARTConfig.o
 .pdr           0x00000000       0x20 Objects - TCPIP PIC32 ETH Demo App-C32\UARTConfig.o
 .reginfo       0x00000000       0x18 Objects - TCPIP PIC32 ETH Demo App-C32\GenericTCPClient.o
 .pdr           0x00000000       0x20 Objects - TCPIP PIC32 ETH Demo App-C32\GenericTCPClient.o
 .reginfo       0x00000000       0x18 Objects - TCPIP PIC32 ETH Demo App-C32\GenericTCPServer.o
 .pdr           0x00000000       0x20 Objects - TCPIP PIC32 ETH Demo App-C32\GenericTCPServer.o
 .reginfo       0x00000000       0x18 Objects - TCPIP PIC32 ETH Demo App-C32\LegacyHTTPApp.o
 .pdr           0x00000000        0x0 Objects - TCPIP PIC32 ETH Demo App-C32\LegacyHTTPApp.o
 .reginfo       0x00000000       0x18 Objects - TCPIP PIC32 ETH Demo App-C32\PingDemo.o
 .pdr           0x00000000       0x20 Objects - TCPIP PIC32 ETH Demo App-C32\PingDemo.o
 .reginfo       0x00000000       0x18 Objects - TCPIP PIC32 ETH Demo App-C32\SMTPDemo.o
 .pdr           0x00000000       0x20 Objects - TCPIP PIC32 ETH Demo App-C32\SMTPDemo.o
 .reginfo       0x00000000       0x18 Objects - TCPIP PIC32 ETH Demo App-C32\BerkeleyAPI.o
 .pdr           0x00000000      0x1a0 Objects - TCPIP PIC32 ETH Demo App-C32\BerkeleyAPI.o
 .reginfo       0x00000000       0x18 Objects - TCPIP PIC32 ETH Demo App-C32\BerkeleyUDPClientDemo.o
 .pdr           0x00000000       0x40 Objects - TCPIP PIC32 ETH Demo App-C32\BerkeleyUDPClientDemo.o
 .reginfo       0x00000000       0x18 Objects - TCPIP PIC32 ETH Demo App-C32\BerkeleyTCPClientDemo.o
 .pdr           0x00000000       0x20 Objects - TCPIP PIC32 ETH Demo App-C32\BerkeleyTCPClientDemo.o
 .reginfo       0x00000000       0x18 Objects - TCPIP PIC32 ETH Demo App-C32\BerkeleyTCPServerDemo.o
 .pdr           0x00000000       0x20 Objects - TCPIP PIC32 ETH Demo App-C32\BerkeleyTCPServerDemo.o
 .reginfo       0x00000000       0x18 Objects - TCPIP PIC32 ETH Demo App-C32\ENCX24J600.o
 .pdr           0x00000000        0x0 Objects - TCPIP PIC32 ETH Demo App-C32\ENCX24J600.o
 .reginfo       0x00000000       0x18 Objects - TCPIP PIC32 ETH Demo App-C32\MPFSImg2.o
 .pdr           0x00000000        0x0 Objects - TCPIP PIC32 ETH Demo App-C32\MPFSImg2.o
 .reginfo       0x00000000       0x18 Objects - TCPIP PIC32 ETH Demo App-C32\Random.o
 .pdr           0x00000000        0x0 Objects - TCPIP PIC32 ETH Demo App-C32\Random.o
 .reginfo       0x00000000       0x18 Objects - TCPIP PIC32 ETH Demo App-C32\RSA.o
 .pdr           0x00000000        0x0 Objects - TCPIP PIC32 ETH Demo App-C32\RSA.o
 .reginfo       0x00000000       0x18 Objects - TCPIP PIC32 ETH Demo App-C32\SSL.o
 .pdr           0x00000000        0x0 Objects - TCPIP PIC32 ETH Demo App-C32\SSL.o
 .reginfo       0x00000000       0x18 Objects - TCPIP PIC32 ETH Demo App-C32\ARCFOUR.o
 .pdr           0x00000000        0x0 Objects - TCPIP PIC32 ETH Demo App-C32\ARCFOUR.o
 .reginfo       0x00000000       0x18 Objects - TCPIP PIC32 ETH Demo App-C32\BigInt.o
 .pdr           0x00000000        0x0 Objects - TCPIP PIC32 ETH Demo App-C32\BigInt.o
 .reginfo       0x00000000       0x18 Objects - TCPIP PIC32 ETH Demo App-C32\BigInt_helper_C32.o
 .pdr           0x00000000        0x0 Objects - TCPIP PIC32 ETH Demo App-C32\BigInt_helper_C32.o
 .reginfo       0x00000000       0x18 Objects - TCPIP PIC32 ETH Demo App-C32\CustomSSLCert.o
 .pdr           0x00000000        0x0 Objects - TCPIP PIC32 ETH Demo App-C32\CustomSSLCert.o
 .reginfo       0x00000000       0x18 Objects - TCPIP PIC32 ETH Demo App-C32\AutoIP.o
 .pdr           0x00000000      0x140 Objects - TCPIP PIC32 ETH Demo App-C32\AutoIP.o
 .reginfo       0x00000000       0x18 Objects - TCPIP PIC32 ETH Demo App-C32\ETHPIC32IntMac.o
 .pdr           0x00000000      0x320 Objects - TCPIP PIC32 ETH Demo App-C32\ETHPIC32IntMac.o
 .reginfo       0x00000000       0x18 Objects - TCPIP PIC32 ETH Demo App-C32\ETHPIC32ExtPhy.o
 .pdr           0x00000000      0x180 Objects - TCPIP PIC32 ETH Demo App-C32\ETHPIC32ExtPhy.o
 .reginfo       0x00000000       0x18 Objects - TCPIP PIC32 ETH Demo App-C32\ETHPIC32ExtPhyDP83848.o
 .pdr           0x00000000       0x80 Objects - TCPIP PIC32 ETH Demo App-C32\ETHPIC32ExtPhyDP83848.o
 .reginfo       0x00000000       0x18 Objects - TCPIP PIC32 ETH Demo App-C32\UART.o
 .pdr           0x00000000       0x20 Objects - TCPIP PIC32 ETH Demo App-C32\UART.o
 .reginfo       0x00000000       0x18 c:/program files (x86)/microchip/mplab c32 suite/bin/../lib/gcc/pic32mx/4.5.1/size\libgcc.a(_udivdi3.o)
 .pdr           0x00000000       0x20 c:/program files (x86)/microchip/mplab c32 suite/bin/../lib/gcc/pic32mx/4.5.1/size\libgcc.a(_udivdi3.o)
 .reginfo       0x00000000       0x18 c:/program files (x86)/microchip/mplab c32 suite/bin/../lib/gcc/pic32mx/4.5.1/../../../../pic32mx/lib/size\libc.a(memcmp.o)
 .pdr           0x00000000       0x20 c:/program files (x86)/microchip/mplab c32 suite/bin/../lib/gcc/pic32mx/4.5.1/../../../../pic32mx/lib/size\libc.a(memcmp.o)
 .reginfo       0x00000000       0x18 c:/program files (x86)/microchip/mplab c32 suite/bin/../lib/gcc/pic32mx/4.5.1/../../../../pic32mx/lib/size\libc.a(memcpy.o)
 .pdr           0x00000000       0x20 c:/program files (x86)/microchip/mplab c32 suite/bin/../lib/gcc/pic32mx/4.5.1/../../../../pic32mx/lib/size\libc.a(memcpy.o)
 .reginfo       0x00000000       0x18 c:/program files (x86)/microchip/mplab c32 suite/bin/../lib/gcc/pic32mx/4.5.1/../../../../pic32mx/lib/size\libc.a(memset.o)
 .pdr           0x00000000       0x20 c:/program files (x86)/microchip/mplab c32 suite/bin/../lib/gcc/pic32mx/4.5.1/../../../../pic32mx/lib/size\libc.a(memset.o)
 .reginfo       0x00000000       0x18 c:/program files (x86)/microchip/mplab c32 suite/bin/../lib/gcc/pic32mx/4.5.1/../../../../pic32mx/lib/size\libc.a(strcmp.o)
 .pdr           0x00000000       0x20 c:/program files (x86)/microchip/mplab c32 suite/bin/../lib/gcc/pic32mx/4.5.1/../../../../pic32mx/lib/size\libc.a(strcmp.o)
 .reginfo       0x00000000       0x18 c:/program files (x86)/microchip/mplab c32 suite/bin/../lib/gcc/pic32mx/4.5.1/../../../../pic32mx/lib/size\libc.a(strlen.o)
 .pdr           0x00000000       0x20 c:/program files (x86)/microchip/mplab c32 suite/bin/../lib/gcc/pic32mx/4.5.1/../../../../pic32mx/lib/size\libc.a(strlen.o)
 .reginfo       0x00000000       0x18 c:/program files (x86)/microchip/mplab c32 suite/bin/../lib/gcc/pic32mx/4.5.1/../../../../pic32mx/lib/size\libc.a(general-exception.o)
 .pdr           0x00000000       0x20 c:/program files (x86)/microchip/mplab c32 suite/bin/../lib/gcc/pic32mx/4.5.1/../../../../pic32mx/lib/size\libc.a(general-exception.o)
 .reginfo       0x00000000       0x18 c:/program files (x86)/microchip/mplab c32 suite/bin/../lib/gcc/pic32mx/4.5.1/../../../../pic32mx/lib/size\libc.a(atoi.o)
 .pdr           0x00000000       0x20 c:/program files (x86)/microchip/mplab c32 suite/bin/../lib/gcc/pic32mx/4.5.1/../../../../pic32mx/lib/size\libc.a(atoi.o)
 .reginfo       0x00000000       0x18 c:/program files (x86)/microchip/mplab c32 suite/bin/../lib/gcc/pic32mx/4.5.1/../../../../pic32mx/lib/size\libc.a(atol.o)
 .pdr           0x00000000       0x20 c:/program files (x86)/microchip/mplab c32 suite/bin/../lib/gcc/pic32mx/4.5.1/../../../../pic32mx/lib/size\libc.a(atol.o)
 .reginfo       0x00000000       0x18 c:/program files (x86)/microchip/mplab c32 suite/bin/../lib/gcc/pic32mx/4.5.1/../../../../pic32mx/lib/size\libc.a(calloc.o)
 .pdr           0x00000000       0x20 c:/program files (x86)/microchip/mplab c32 suite/bin/../lib/gcc/pic32mx/4.5.1/../../../../pic32mx/lib/size\libc.a(calloc.o)
 .reginfo       0x00000000       0x18 c:/program files (x86)/microchip/mplab c32 suite/bin/../lib/gcc/pic32mx/4.5.1/../../../../pic32mx/lib/size\libc.a(ctype.o)
 .pdr           0x00000000        0x0 c:/program files (x86)/microchip/mplab c32 suite/bin/../lib/gcc/pic32mx/4.5.1/../../../../pic32mx/lib/size\libc.a(ctype.o)
 .reginfo       0x00000000       0x18 c:/program files (x86)/microchip/mplab c32 suite/bin/../lib/gcc/pic32mx/4.5.1/../../../../pic32mx/lib/size\libc.a(ltoa.o)
 .pdr           0x00000000       0x40 c:/program files (x86)/microchip/mplab c32 suite/bin/../lib/gcc/pic32mx/4.5.1/../../../../pic32mx/lib/size\libc.a(ltoa.o)
 .reginfo       0x00000000       0x18 c:/program files (x86)/microchip/mplab c32 suite/bin/../lib/gcc/pic32mx/4.5.1/../../../../pic32mx/lib/size\libc.a(malloc.o)
 .pdr           0x00000000       0x60 c:/program files (x86)/microchip/mplab c32 suite/bin/../lib/gcc/pic32mx/4.5.1/../../../../pic32mx/lib/size\libc.a(malloc.o)
 .reginfo       0x00000000       0x18 c:/program files (x86)/microchip/mplab c32 suite/bin/../lib/gcc/pic32mx/4.5.1/../../../../pic32mx/lib/size\libc.a(strchr.o)
 .pdr           0x00000000       0x20 c:/program files (x86)/microchip/mplab c32 suite/bin/../lib/gcc/pic32mx/4.5.1/../../../../pic32mx/lib/size\libc.a(strchr.o)
 .reginfo       0x00000000       0x18 c:/program files (x86)/microchip/mplab c32 suite/bin/../lib/gcc/pic32mx/4.5.1/../../../../pic32mx/lib/size\libc.a(strncpy.o)
 .pdr           0x00000000       0x20 c:/program files (x86)/microchip/mplab c32 suite/bin/../lib/gcc/pic32mx/4.5.1/../../../../pic32mx/lib/size\libc.a(strncpy.o)
 .reginfo       0x00000000       0x18 c:/program files (x86)/microchip/mplab c32 suite/bin/../lib/gcc/pic32mx/4.5.1/../../../../pic32mx/lib/size\libc.a(strstr.o)
 .pdr           0x00000000       0x20 c:/program files (x86)/microchip/mplab c32 suite/bin/../lib/gcc/pic32mx/4.5.1/../../../../pic32mx/lib/size\libc.a(strstr.o)
 .reginfo       0x00000000       0x18 c:/program files (x86)/microchip/mplab c32 suite/bin/../lib/gcc/pic32mx/4.5.1/../../../../pic32mx/lib/size\libc.a(sbrk.o)
 .pdr           0x00000000       0xa0 c:/program files (x86)/microchip/mplab c32 suite/bin/../lib/gcc/pic32mx/4.5.1/../../../../pic32mx/lib/size\libc.a(sbrk.o)
 .reginfo       0x00000000       0x18 c:/program files (x86)/microchip/mplab c32 suite/bin/../lib/gcc/pic32mx/4.5.1/../../../../pic32mx/lib/size\libc.a(default-bootstrap-exception-handler.o)
 .pdr           0x00000000       0x20 c:/program files (x86)/microchip/mplab c32 suite/bin/../lib/gcc/pic32mx/4.5.1/../../../../pic32mx/lib/size\libc.a(default-bootstrap-exception-handler.o)
 .reginfo       0x00000000       0x18 c:/program files (x86)/microchip/mplab c32 suite/bin/../lib/gcc/pic32mx/4.5.1/../../../../pic32mx/lib/size\libc.a(default-on-reset.o)
 .pdr           0x00000000       0x20 c:/program files (x86)/microchip/mplab c32 suite/bin/../lib/gcc/pic32mx/4.5.1/../../../../pic32mx/lib/size\libc.a(default-on-reset.o)
 .reginfo       0x00000000       0x18 c:/program files (x86)/microchip/mplab c32 suite/bin/../lib/gcc/pic32mx/4.5.1/../../../../pic32mx/lib/size\libc.a(default-on-bootstrap.o)
 .pdr           0x00000000       0x20 c:/program files (x86)/microchip/mplab c32 suite/bin/../lib/gcc/pic32mx/4.5.1/../../../../pic32mx/lib/size\libc.a(default-on-bootstrap.o)
 .reginfo       0x00000000       0x18 c:/program files (x86)/microchip/mplab c32 suite/bin/../lib/gcc/pic32mx/4.5.1/../../../../pic32mx/lib/size\libc.a(default-nmi-handler.o)
 .pdr           0x00000000       0x20 c:/program files (x86)/microchip/mplab c32 suite/bin/../lib/gcc/pic32mx/4.5.1/../../../../pic32mx/lib/size\libc.a(default-nmi-handler.o)
 .reginfo       0x00000000       0x18 c:/program files (x86)/microchip/mplab c32 suite/bin/../lib/gcc/pic32mx/4.5.1/../../../../pic32mx/lib/size\libc.a(errno.o)
 .pdr           0x00000000        0x0 c:/program files (x86)/microchip/mplab c32 suite/bin/../lib/gcc/pic32mx/4.5.1/../../../../pic32mx/lib/size\libc.a(errno.o)
 .reginfo       0x00000000       0x18 c:/program files (x86)/microchip/mplab c32 suite/bin/../lib/gcc/pic32mx/4.5.1/../../../../pic32mx/lib/size\libc.a(strncmp.o)
 .pdr           0x00000000       0x20 c:/program files (x86)/microchip/mplab c32 suite/bin/../lib/gcc/pic32mx/4.5.1/../../../../pic32mx/lib/size\libc.a(strncmp.o)
 .reginfo       0x00000000       0x18 c:/program files (x86)/microchip/mplab c32 suite/bin/../lib/gcc/pic32mx/4.5.1/../../../../pic32mx/lib/size\libmchp_peripheral.a(read_core_timer_lib.o)
 .pdr           0x00000000       0x20 c:/program files (x86)/microchip/mplab c32 suite/bin/../lib/gcc/pic32mx/4.5.1/../../../../pic32mx/lib/size\libmchp_peripheral.a(read_core_timer_lib.o)
 .reginfo       0x00000000       0x18 c:/program files (x86)/microchip/mplab c32 suite/bin/../lib/gcc/pic32mx/4.5.1/../../../../pic32mx/lib/size\libmchp_peripheral_32MX795F512L.a(eth_ack_packet_lib.o)
 .pdr           0x00000000       0xc0 c:/program files (x86)/microchip/mplab c32 suite/bin/../lib/gcc/pic32mx/4.5.1/../../../../pic32mx/lib/size\libmchp_peripheral_32MX795F512L.a(eth_ack_packet_lib.o)
 .reginfo       0x00000000       0x18 c:/program files (x86)/microchip/mplab c32 suite/bin/../lib/gcc/pic32mx/4.5.1/../../../../pic32mx/lib/size\libmchp_peripheral_32MX795F512L.a(eth_descriptors_add_lib.o)
 .pdr           0x00000000       0x40 c:/program files (x86)/microchip/mplab c32 suite/bin/../lib/gcc/pic32mx/4.5.1/../../../../pic32mx/lib/size\libmchp_peripheral_32MX795F512L.a(eth_descriptors_add_lib.o)
 .reginfo       0x00000000       0x18 c:/program files (x86)/microchip/mplab c32 suite/bin/../lib/gcc/pic32mx/4.5.1/../../../../pic32mx/lib/size\libmchp_peripheral_32MX795F512L.a(eth_init_lib.o)
 .pdr           0x00000000       0x20 c:/program files (x86)/microchip/mplab c32 suite/bin/../lib/gcc/pic32mx/4.5.1/../../../../pic32mx/lib/size\libmchp_peripheral_32MX795F512L.a(eth_init_lib.o)
 .reginfo       0x00000000       0x18 c:/program files (x86)/microchip/mplab c32 suite/bin/../lib/gcc/pic32mx/4.5.1/../../../../pic32mx/lib/size\libmchp_peripheral_32MX795F512L.a(eth_mac_open_lib.o)
 .pdr           0x00000000       0x20 c:/program files (x86)/microchip/mplab c32 suite/bin/../lib/gcc/pic32mx/4.5.1/../../../../pic32mx/lib/size\libmchp_peripheral_32MX795F512L.a(eth_mac_open_lib.o)
 .reginfo       0x00000000       0x18 c:/program files (x86)/microchip/mplab c32 suite/bin/../lib/gcc/pic32mx/4.5.1/../../../../pic32mx/lib/size\libmchp_peripheral_32MX795F512L.a(eth_mac_set_address_max_lib.o)
 .pdr           0x00000000       0x60 c:/program files (x86)/microchip/mplab c32 suite/bin/../lib/gcc/pic32mx/4.5.1/../../../../pic32mx/lib/size\libmchp_peripheral_32MX795F512L.a(eth_mac_set_address_max_lib.o)
 .reginfo       0x00000000       0x18 c:/program files (x86)/microchip/mplab c32 suite/bin/../lib/gcc/pic32mx/4.5.1/../../../../pic32mx/lib/size\libmchp_peripheral_32MX795F512L.a(eth_rx_buffers_append_lib.o)
 .pdr           0x00000000       0x20 c:/program files (x86)/microchip/mplab c32 suite/bin/../lib/gcc/pic32mx/4.5.1/../../../../pic32mx/lib/size\libmchp_peripheral_32MX795F512L.a(eth_rx_buffers_append_lib.o)
 .reginfo       0x00000000       0x18 c:/program files (x86)/microchip/mplab c32 suite/bin/../lib/gcc/pic32mx/4.5.1/../../../../pic32mx/lib/size\libmchp_peripheral_32MX795F512L.a(eth_rx_filters_lib.o)
 .pdr           0x00000000       0xc0 c:/program files (x86)/microchip/mplab c32 suite/bin/../lib/gcc/pic32mx/4.5.1/../../../../pic32mx/lib/size\libmchp_peripheral_32MX795F512L.a(eth_rx_filters_lib.o)
 .reginfo       0x00000000       0x18 c:/program files (x86)/microchip/mplab c32 suite/bin/../lib/gcc/pic32mx/4.5.1/../../../../pic32mx/lib/size\libmchp_peripheral_32MX795F512L.a(eth_rx_get_packet_lib.o)
 .pdr           0x00000000       0x40 c:/program files (x86)/microchip/mplab c32 suite/bin/../lib/gcc/pic32mx/4.5.1/../../../../pic32mx/lib/size\libmchp_peripheral_32MX795F512L.a(eth_rx_get_packet_lib.o)
 .reginfo       0x00000000       0x18 c:/program files (x86)/microchip/mplab c32 suite/bin/../lib/gcc/pic32mx/4.5.1/../../../../pic32mx/lib/size\libmchp_peripheral_32MX795F512L.a(eth_rx_set_buffer_size_lib.o)
 .pdr           0x00000000       0x20 c:/program files (x86)/microchip/mplab c32 suite/bin/../lib/gcc/pic32mx/4.5.1/../../../../pic32mx/lib/size\libmchp_peripheral_32MX795F512L.a(eth_rx_set_buffer_size_lib.o)
 .reginfo       0x00000000       0x18 c:/program files (x86)/microchip/mplab c32 suite/bin/../lib/gcc/pic32mx/4.5.1/../../../../pic32mx/lib/size\libmchp_peripheral_32MX795F512L.a(eth_tx_packet_lib.o)
 .pdr           0x00000000       0xc0 c:/program files (x86)/microchip/mplab c32 suite/bin/../lib/gcc/pic32mx/4.5.1/../../../../pic32mx/lib/size\libmchp_peripheral_32MX795F512L.a(eth_tx_packet_lib.o)
 .reginfo       0x00000000       0x18 c:/program files (x86)/microchip/mplab c32 suite/bin/../lib/gcc/pic32mx/4.5.1/../../../../pic32mx/lib/size\libmchp_peripheral_32MX795F512L.a(_eth_append_busy_list_lib.o)
 .pdr           0x00000000       0x20 c:/program files (x86)/microchip/mplab c32 suite/bin/../lib/gcc/pic32mx/4.5.1/../../../../pic32mx/lib/size\libmchp_peripheral_32MX795F512L.a(_eth_append_busy_list_lib.o)
 .reginfo       0x00000000       0x18 c:/program files (x86)/microchip/mplab c32 suite/bin/../lib/gcc/pic32mx/4.5.1/../../../../pic32mx/lib/size\libmchp_peripheral_32MX795F512L.a(eth_miim_access.o)
 .pdr           0x00000000       0xc0 c:/program files (x86)/microchip/mplab c32 suite/bin/../lib/gcc/pic32mx/4.5.1/../../../../pic32mx/lib/size\libmchp_peripheral_32MX795F512L.a(eth_miim_access.o)
 .reginfo       0x00000000       0x18 c:/program files (x86)/microchip/mplab c32 suite/bin/../lib/gcc/pic32mx/4.5.1/../../../../pic32mx/lib/size\libmchp_peripheral_32MX795F512L.a(soft_reset_lib.o)
 .pdr           0x00000000       0x20 c:/program files (x86)/microchip/mplab c32 suite/bin/../lib/gcc/pic32mx/4.5.1/../../../../pic32mx/lib/size\libmchp_peripheral_32MX795F512L.a(soft_reset_lib.o)
 .reginfo       0x00000000       0x18 c:/program files (x86)/microchip/mplab c32 suite/bin/../lib/gcc/pic32mx/4.5.1/../../../../pic32mx/lib/size\libmchp_peripheral_32MX795F512L.a(pcache.o)
 .pdr           0x00000000       0x40 c:/program files (x86)/microchip/mplab c32 suite/bin/../lib/gcc/pic32mx/4.5.1/../../../../pic32mx/lib/size\libmchp_peripheral_32MX795F512L.a(pcache.o)
 .reginfo       0x00000000       0x18 c:/program files (x86)/microchip/mplab c32 suite/bin/../lib/gcc/pic32mx/4.5.1/../../../../pic32mx/lib/size\libmchp_peripheral_32MX795F512L.a(int_disable_interrupts_lib.o)
 .pdr           0x00000000       0x20 c:/program files (x86)/microchip/mplab c32 suite/bin/../lib/gcc/pic32mx/4.5.1/../../../../pic32mx/lib/size\libmchp_peripheral_32MX795F512L.a(int_disable_interrupts_lib.o)
 .reginfo       0x00000000       0x18 c:/program files (x86)/microchip/mplab c32 suite/bin/../lib/gcc/pic32mx/4.5.1/../../../../pic32mx/lib/size\libmchp_peripheral_32MX795F512L.a(int_restore_interrupts_lib.o)
 .pdr           0x00000000       0x20 c:/program files (x86)/microchip/mplab c32 suite/bin/../lib/gcc/pic32mx/4.5.1/../../../../pic32mx/lib/size\libmchp_peripheral_32MX795F512L.a(int_restore_interrupts_lib.o)
 .reginfo       0x00000000       0x18 c:/program files (x86)/microchip/mplab c32 suite/bin/../lib/gcc/pic32mx/4.5.1/../../../../pic32mx/lib/size\libmchp_peripheral_32MX795F512L.a(int_enable_mv_int_lib.o)
 .pdr           0x00000000       0x20 c:/program files (x86)/microchip/mplab c32 suite/bin/../lib/gcc/pic32mx/4.5.1/../../../../pic32mx/lib/size\libmchp_peripheral_32MX795F512L.a(int_enable_mv_int_lib.o)
 .reginfo       0x00000000       0x18 c:/program files (x86)/microchip/mplab c32 suite/bin/../lib/gcc/pic32mx/4.5.1/../../../../pic32mx/lib/size\libmchp_peripheral_32MX795F512L.a(int_tbl_lib.o)
 .pdr           0x00000000      0x120 c:/program files (x86)/microchip/mplab c32 suite/bin/../lib/gcc/pic32mx/4.5.1/../../../../pic32mx/lib/size\libmchp_peripheral_32MX795F512L.a(int_tbl_lib.o)
 .reginfo       0x00000000       0x18 c:/program files (x86)/microchip/mplab c32 suite/bin/../lib/gcc/pic32mx/4.5.1/../../../../pic32mx/lib/size\libmchp_peripheral_32MX795F512L.a(port_set_pins_digital_in_lib.o)
 .pdr           0x00000000       0x20 c:/program files (x86)/microchip/mplab c32 suite/bin/../lib/gcc/pic32mx/4.5.1/../../../../pic32mx/lib/size\libmchp_peripheral_32MX795F512L.a(port_set_pins_digital_in_lib.o)
 .reginfo       0x00000000       0x18 c:/program files (x86)/microchip/mplab c32 suite/bin/../lib/gcc/pic32mx/4.5.1/../../../../pic32mx/lib/size\libmchp_peripheral_32MX795F512L.a(port_set_pins_digital_out_lib.o)
 .pdr           0x00000000       0x20 c:/program files (x86)/microchip/mplab c32 suite/bin/../lib/gcc/pic32mx/4.5.1/../../../../pic32mx/lib/size\libmchp_peripheral_32MX795F512L.a(port_set_pins_digital_out_lib.o)
 .reginfo       0x00000000       0x18 c:/program files (x86)/microchip/mplab c32 suite/bin/../lib/gcc/pic32mx/4.5.1/../../../../pic32mx/lib/size\libmchp_peripheral_32MX795F512L.a(_ports_tbl_libp.o)
 .pdr           0x00000000        0x0 c:/program files (x86)/microchip/mplab c32 suite/bin/../lib/gcc/pic32mx/4.5.1/../../../../pic32mx/lib/size\libmchp_peripheral_32MX795F512L.a(_ports_tbl_libp.o)
 .reginfo       0x00000000       0x18 c:/program files (x86)/microchip/mplab c32 suite/bin/../lib/gcc/pic32mx/4.5.1/../../../../pic32mx/lib/size\libmchp_peripheral_32MX795F512L.a(uart_lib.o)
 .pdr           0x00000000      0x100 c:/program files (x86)/microchip/mplab c32 suite/bin/../lib/gcc/pic32mx/4.5.1/../../../../pic32mx/lib/size\libmchp_peripheral_32MX795F512L.a(uart_lib.o)
 .reginfo       0x00000000       0x18 c:/program files (x86)/microchip/mplab c32 suite/bin/../lib/gcc/pic32mx/4.5.1/../../../../pic32mx/lib/size\libmchp_peripheral_32MX795F512L.a(int_enable_interrupts_lib.o)
 .pdr           0x00000000       0x20 c:/program files (x86)/microchip/mplab c32 suite/bin/../lib/gcc/pic32mx/4.5.1/../../../../pic32mx/lib/size\libmchp_peripheral_32MX795F512L.a(int_enable_interrupts_lib.o)
 .reginfo       0x00000000       0x18 c:/program files (x86)/microchip/mplab c32 suite/bin/../lib/gcc/pic32mx/4.5.1/../../../../pic32mx/lib/./proc/32MX795F512L\processor.o
 .pdr           0x00000000        0x0 c:/program files (x86)/microchip/mplab c32 suite/bin/../lib/gcc/pic32mx/4.5.1/../../../../pic32mx/lib/./proc/32MX795F512L\processor.o

Memory Configuration

Name             Origin             Length             Attributes
kseg0_program_mem 0x9d000000         0x00080000         xr
kseg0_boot_mem   0x9fc00490         0x00000970
exception_mem    0x9fc01000         0x00001000
kseg1_boot_mem   0xbfc00000         0x00000490
debug_exec_mem   0xbfc02000         0x00000ff0
config3          0xbfc02ff0         0x00000004
config2          0xbfc02ff4         0x00000004
config1          0xbfc02ff8         0x00000004
config0          0xbfc02ffc         0x00000004
kseg1_data_mem   0xa0000000         0x00020000         w !x
sfrs             0xbf800000         0x00100000
configsfrs       0xbfc02ff0         0x00000010
*default*        0x00000000         0xffffffff

Linker script and memory map

LOAD c:/program files (x86)/microchip/mplab c32 suite/bin/../lib/gcc/pic32mx/4.5.1/../../../../pic32mx/lib/size/crt0.o
LOAD Objects - TCPIP PIC32 ETH Demo App-C32\MainDemo.o
LOAD Objects - TCPIP PIC32 ETH Demo App-C32\CustomHTTPApp.o
LOAD Objects - TCPIP PIC32 ETH Demo App-C32\UDPPerformanceTest.o
LOAD Objects - TCPIP PIC32 ETH Demo App-C32\Announce.o
LOAD Objects - TCPIP PIC32 ETH Demo App-C32\ARP.o
LOAD Objects - TCPIP PIC32 ETH Demo App-C32\Delay.o
LOAD Objects - TCPIP PIC32 ETH Demo App-C32\DHCP.o
LOAD Objects - TCPIP PIC32 ETH Demo App-C32\DHCPs.o
LOAD Objects - TCPIP PIC32 ETH Demo App-C32\DNS.o
LOAD Objects - TCPIP PIC32 ETH Demo App-C32\DynDNS.o
LOAD Objects - TCPIP PIC32 ETH Demo App-C32\ENC28J60.o
LOAD Objects - TCPIP PIC32 ETH Demo App-C32\FTP.o
LOAD Objects - TCPIP PIC32 ETH Demo App-C32\Hashes.o
LOAD Objects - TCPIP PIC32 ETH Demo App-C32\Helpers.o
LOAD Objects - TCPIP PIC32 ETH Demo App-C32\HTTP2.o
LOAD Objects - TCPIP PIC32 ETH Demo App-C32\HTTP.o
LOAD Objects - TCPIP PIC32 ETH Demo App-C32\ICMP.o
LOAD Objects - TCPIP PIC32 ETH Demo App-C32\IP.o
LOAD Objects - TCPIP PIC32 ETH Demo App-C32\LCDBlocking.o
LOAD Objects - TCPIP PIC32 ETH Demo App-C32\MPFS2.o
LOAD Objects - TCPIP PIC32 ETH Demo App-C32\MPFS.o
LOAD Objects - TCPIP PIC32 ETH Demo App-C32\NBNS.o
LOAD Objects - TCPIP PIC32 ETH Demo App-C32\Reboot.o
LOAD Objects - TCPIP PIC32 ETH Demo App-C32\SMTP.o
LOAD Objects - TCPIP PIC32 ETH Demo App-C32\SNMP.o
LOAD Objects - TCPIP PIC32 ETH Demo App-C32\SNTP.o
LOAD Objects - TCPIP PIC32 ETH Demo App-C32\SPIEEPROM.o
LOAD Objects - TCPIP PIC32 ETH Demo App-C32\SPIFlash.o
LOAD Objects - TCPIP PIC32 ETH Demo App-C32\SPIRAM.o
LOAD Objects - TCPIP PIC32 ETH Demo App-C32\StackTsk.o
LOAD Objects - TCPIP PIC32 ETH Demo App-C32\TCP.o
LOAD Objects - TCPIP PIC32 ETH Demo App-C32\TCPPerformanceTest.o
LOAD Objects - TCPIP PIC32 ETH Demo App-C32\Telnet.o
LOAD Objects - TCPIP PIC32 ETH Demo App-C32\TFTPc.o
LOAD Objects - TCPIP PIC32 ETH Demo App-C32\Tick.o
LOAD Objects - TCPIP PIC32 ETH Demo App-C32\UART2TCPBridge.o
LOAD Objects - TCPIP PIC32 ETH Demo App-C32\UDP.o
LOAD Objects - TCPIP PIC32 ETH Demo App-C32\CustomSNMPApp.o
LOAD Objects - TCPIP PIC32 ETH Demo App-C32\UARTConfig.o
LOAD Objects - TCPIP PIC32 ETH Demo App-C32\GenericTCPClient.o
LOAD Objects - TCPIP PIC32 ETH Demo App-C32\GenericTCPServer.o
LOAD Objects - TCPIP PIC32 ETH Demo App-C32\LegacyHTTPApp.o
LOAD Objects - TCPIP PIC32 ETH Demo App-C32\PingDemo.o
LOAD Objects - TCPIP PIC32 ETH Demo App-C32\SMTPDemo.o
LOAD Objects - TCPIP PIC32 ETH Demo App-C32\BerkeleyAPI.o
LOAD Objects - TCPIP PIC32 ETH Demo App-C32\BerkeleyUDPClientDemo.o
LOAD Objects - TCPIP PIC32 ETH Demo App-C32\BerkeleyTCPClientDemo.o
LOAD Objects - TCPIP PIC32 ETH Demo App-C32\BerkeleyTCPServerDemo.o
LOAD Objects - TCPIP PIC32 ETH Demo App-C32\ENCX24J600.o
LOAD Objects - TCPIP PIC32 ETH Demo App-C32\MPFSImg2.o
LOAD Objects - TCPIP PIC32 ETH Demo App-C32\Random.o
LOAD Objects - TCPIP PIC32 ETH Demo App-C32\RSA.o
LOAD Objects - TCPIP PIC32 ETH Demo App-C32\SSL.o
LOAD Objects - TCPIP PIC32 ETH Demo App-C32\ARCFOUR.o
LOAD Objects - TCPIP PIC32 ETH Demo App-C32\BigInt.o
LOAD Objects - TCPIP PIC32 ETH Demo App-C32\BigInt_helper_C32.o
LOAD Objects - TCPIP PIC32 ETH Demo App-C32\CustomSSLCert.o
LOAD Objects - TCPIP PIC32 ETH Demo App-C32\AutoIP.o
LOAD Objects - TCPIP PIC32 ETH Demo App-C32\ETHPIC32IntMac.o
LOAD Objects - TCPIP PIC32 ETH Demo App-C32\ETHPIC32ExtPhy.o
LOAD Objects - TCPIP PIC32 ETH Demo App-C32\ETHPIC32ExtPhyDP83848.o
LOAD Objects - TCPIP PIC32 ETH Demo App-C32\UART.o
                0x00000001                __MPLAB_BUILD = 0x1
                0x00000001                __MPLAB_DEBUG = 0x1
                0x00003e80                _min_heap_size = 0x3e80
                0x00000800                _min_stack_size = 0x800
LOAD c:/program files (x86)/microchip/mplab c32 suite/bin/../lib/gcc/pic32mx/4.5.1/size\libgcc.a
START GROUP
LOAD c:/program files (x86)/microchip/mplab c32 suite/bin/../lib/gcc/pic32mx/4.5.1/../../../../pic32mx/lib/size\libdebug.a
LOAD c:/program files (x86)/microchip/mplab c32 suite/bin/../lib/gcc/pic32mx/4.5.1/../../../../pic32mx/lib/size\libc.a
LOAD c:/program files (x86)/microchip/mplab c32 suite/bin/../lib/gcc/pic32mx/4.5.1/../../../../pic32mx/lib/size\libm.a
LOAD c:/program files (x86)/microchip/mplab c32 suite/bin/../lib/gcc/pic32mx/4.5.1/../../../../pic32mx/lib/size\libe.a
LOAD c:/program files (x86)/microchip/mplab c32 suite/bin/../lib/gcc/pic32mx/4.5.1/../../../../pic32mx/lib/size\libdsp.a
LOAD c:/program files (x86)/microchip/mplab c32 suite/bin/../lib/gcc/pic32mx/4.5.1/../../../../pic32mx/lib/size\libmchp_peripheral.a
LOAD c:/program files (x86)/microchip/mplab c32 suite/bin/../lib/gcc/pic32mx/4.5.1/../../../../pic32mx/lib/size\libmchp_peripheral_32MX795F512L.a
END GROUP
LOAD c:/program files (x86)/microchip/mplab c32 suite/bin/../lib/gcc/pic32mx/4.5.1/size\libgcc.a
                0x00000400                PROVIDE (_min_stack_size, 0x400)
                0x00000000                PROVIDE (_min_heap_size, 0x0)
LOAD c:/program files (x86)/microchip/mplab c32 suite/bin/../lib/gcc/pic32mx/4.5.1/../../../../pic32mx/lib/./proc/32MX795F512L\processor.o
                0x00000001                PROVIDE (_vector_spacing, 0x1)
                0x9fc01000                _ebase_address = 0x9fc01000
                0xbfc00000                _RESET_ADDR = 0xbfc00000
                0xbfc00380                _BEV_EXCPT_ADDR = 0xbfc00380
                0xbfc00480                _DBG_EXCPT_ADDR = 0xbfc00480
                0xbfc02000                _DBG_CODE_ADDR = 0xbfc02000
                0x00000ff0                _DBG_CODE_SIZE = 0xff0
                0x9fc01180                _GEN_EXCPT_ADDR = (_ebase_address + 0x180)

.config_BFC02FF0
                0xbfc02ff0        0x4
 *(.config_BFC02FF0)
 .config_BFC02FF0
                0xbfc02ff0        0x4 Objects - TCPIP PIC32 ETH Demo App-C32\MainDemo.o

.config_BFC02FF4
                0xbfc02ff4        0x4
 *(.config_BFC02FF4)
 .config_BFC02FF4
                0xbfc02ff4        0x4 Objects - TCPIP PIC32 ETH Demo App-C32\MainDemo.o

.config_BFC02FF8
                0xbfc02ff8        0x4
 *(.config_BFC02FF8)
 .config_BFC02FF8
                0xbfc02ff8        0x4 Objects - TCPIP PIC32 ETH Demo App-C32\MainDemo.o

.config_BFC02FFC
                0xbfc02ffc        0x4
 *(.config_BFC02FFC)
 .config_BFC02FFC
                0xbfc02ffc        0x4 Objects - TCPIP PIC32 ETH Demo App-C32\MainDemo.o
                0xbfc02000                PROVIDE (_DBG_CODE_ADDR, 0xbfc02000)
                0x00000ff0                PROVIDE (_DBG_CODE_SIZE, 0xff0)

.reset          0xbfc00000      0x1f4
 *(.reset)
 .reset         0xbfc00000       0x10 c:/program files (x86)/microchip/mplab c32 suite/bin/../lib/gcc/pic32mx/4.5.1/../../../../pic32mx/lib/size/crt0.o
                0xbfc00000                _reset
 *(.reset.startup)
 .reset.startup
                0xbfc00010      0x1e4 c:/program files (x86)/microchip/mplab c32 suite/bin/../lib/gcc/pic32mx/4.5.1/../../../../pic32mx/lib/size/crt0.o

.bev_excpt      0xbfc00380       0x10
 *(.bev_handler)
 .bev_handler   0xbfc00380       0x10 c:/program files (x86)/microchip/mplab c32 suite/bin/../lib/gcc/pic32mx/4.5.1/../../../../pic32mx/lib/size/crt0.o

.dbg_excpt      0xbfc00480        0x0
                0xbfc00480                . = (. + DEFINED (_DEBUGGER)?0x8:0x0)

.dbg_code       0xbfc02000        0x0
                0xbfc02000                . = (. + DEFINED (_DEBUGGER)?_DBG_CODE_SIZE:0x0)

.app_excpt      0x9fc01180       0x10
 *(.gen_handler)
 .gen_handler   0x9fc01180       0x10 c:/program files (x86)/microchip/mplab c32 suite/bin/../lib/gcc/pic32mx/4.5.1/../../../../pic32mx/lib/size/crt0.o

.vector_0       0x9fc01200        0x0
 *(.vector_0)
                0x00000001                ASSERT (((_vector_spacing == 0x0) || (SIZEOF (.vector_0) <= (_vector_spacing << 0x5))), function at exception vector 0 too large)

.vector_1       0x9fc01220        0x0
 *(.vector_1)
                0x00000001                ASSERT (((_vector_spacing == 0x0) || (SIZEOF (.vector_1) <= (_vector_spacing << 0x5))), function at exception vector 1 too large)

.vector_2       0x9fc01240        0x0
 *(.vector_2)
                0x00000001                ASSERT (((_vector_spacing == 0x0) || (SIZEOF (.vector_2) <= (_vector_spacing << 0x5))), function at exception vector 2 too large)

.vector_3       0x9fc01260        0x0
 *(.vector_3)
                0x00000001                ASSERT (((_vector_spacing == 0x0) || (SIZEOF (.vector_3) <= (_vector_spacing << 0x5))), function at exception vector 3 too large)

.vector_4       0x9fc01280        0x0
 *(.vector_4)
                0x00000001                ASSERT (((_vector_spacing == 0x0) || (SIZEOF (.vector_4) <= (_vector_spacing << 0x5))), function at exception vector 4 too large)

.vector_5       0x9fc012a0        0x0
 *(.vector_5)
                0x00000001                ASSERT (((_vector_spacing == 0x0) || (SIZEOF (.vector_5) <= (_vector_spacing << 0x5))), function at exception vector 5 too large)

.vector_6       0x9fc012c0        0x0
 *(.vector_6)
                0x00000001                ASSERT (((_vector_spacing == 0x0) || (SIZEOF (.vector_6) <= (_vector_spacing << 0x5))), function at exception vector 6 too large)

.vector_7       0x9fc012e0        0x0
 *(.vector_7)
                0x00000001                ASSERT (((_vector_spacing == 0x0) || (SIZEOF (.vector_7) <= (_vector_spacing << 0x5))), function at exception vector 7 too large)

.vector_8       0x9fc01300        0x8
 *(.vector_8)
 .vector_8      0x9fc01300        0x8 Objects - TCPIP PIC32 ETH Demo App-C32\Tick.o
                0x00000001                ASSERT (((_vector_spacing == 0x0) || (SIZEOF (.vector_8) <= (_vector_spacing << 0x5))), function at exception vector 8 too large)

.vector_9       0x9fc01320        0x0
 *(.vector_9)
                0x00000001                ASSERT (((_vector_spacing == 0x0) || (SIZEOF (.vector_9) <= (_vector_spacing << 0x5))), function at exception vector 9 too large)

.vector_10      0x9fc01340        0x0
 *(.vector_10)
                0x00000001                ASSERT (((_vector_spacing == 0x0) || (SIZEOF (.vector_10) <= (_vector_spacing << 0x5))), function at exception vector 10 too large)

.vector_11      0x9fc01360        0x0
 *(.vector_11)
                0x00000001                ASSERT (((_vector_spacing == 0x0) || (SIZEOF (.vector_11) <= (_vector_spacing << 0x5))), function at exception vector 11 too large)

.vector_12      0x9fc01380        0x0
 *(.vector_12)
                0x00000001                ASSERT (((_vector_spacing == 0x0) || (SIZEOF (.vector_12) <= (_vector_spacing << 0x5))), function at exception vector 12 too large)

.vector_13      0x9fc013a0        0x0
 *(.vector_13)
                0x00000001                ASSERT (((_vector_spacing == 0x0) || (SIZEOF (.vector_13) <= (_vector_spacing << 0x5))), function at exception vector 13 too large)

.vector_14      0x9fc013c0        0x0
 *(.vector_14)
                0x00000001                ASSERT (((_vector_spacing == 0x0) || (SIZEOF (.vector_14) <= (_vector_spacing << 0x5))), function at exception vector 14 too large)

.vector_15      0x9fc013e0        0x0
 *(.vector_15)
                0x00000001                ASSERT (((_vector_spacing == 0x0) || (SIZEOF (.vector_15) <= (_vector_spacing << 0x5))), function at exception vector 15 too large)

.vector_16      0x9fc01400        0x0
 *(.vector_16)
                0x00000001                ASSERT (((_vector_spacing == 0x0) || (SIZEOF (.vector_16) <= (_vector_spacing << 0x5))), function at exception vector 16 too large)

.vector_17      0x9fc01420        0x0
 *(.vector_17)
                0x00000001                ASSERT (((_vector_spacing == 0x0) || (SIZEOF (.vector_17) <= (_vector_spacing << 0x5))), function at exception vector 17 too large)

.vector_18      0x9fc01440        0x0
 *(.vector_18)
                0x00000001                ASSERT (((_vector_spacing == 0x0) || (SIZEOF (.vector_18) <= (_vector_spacing << 0x5))), function at exception vector 18 too large)

.vector_19      0x9fc01460        0x0
 *(.vector_19)
                0x00000001                ASSERT (((_vector_spacing == 0x0) || (SIZEOF (.vector_19) <= (_vector_spacing << 0x5))), function at exception vector 19 too large)

.vector_20      0x9fc01480        0x0
 *(.vector_20)
                0x00000001                ASSERT (((_vector_spacing == 0x0) || (SIZEOF (.vector_20) <= (_vector_spacing << 0x5))), function at exception vector 20 too large)

.vector_21      0x9fc014a0        0x0
 *(.vector_21)
                0x00000001                ASSERT (((_vector_spacing == 0x0) || (SIZEOF (.vector_21) <= (_vector_spacing << 0x5))), function at exception vector 21 too large)

.vector_22      0x9fc014c0        0x0
 *(.vector_22)
                0x00000001                ASSERT (((_vector_spacing == 0x0) || (SIZEOF (.vector_22) <= (_vector_spacing << 0x5))), function at exception vector 22 too large)

.vector_23      0x9fc014e0        0x0
 *(.vector_23)
                0x00000001                ASSERT (((_vector_spacing == 0x0) || (SIZEOF (.vector_23) <= (_vector_spacing << 0x5))), function at exception vector 23 too large)

.vector_24      0x9fc01500        0x0
 *(.vector_24)
                0x00000001                ASSERT (((_vector_spacing == 0x0) || (SIZEOF (.vector_24) <= (_vector_spacing << 0x5))), function at exception vector 24 too large)

.vector_25      0x9fc01520        0x0
 *(.vector_25)
                0x00000001                ASSERT (((_vector_spacing == 0x0) || (SIZEOF (.vector_25) <= (_vector_spacing << 0x5))), function at exception vector 25 too large)

.vector_26      0x9fc01540        0x0
 *(.vector_26)
                0x00000001                ASSERT (((_vector_spacing == 0x0) || (SIZEOF (.vector_26) <= (_vector_spacing << 0x5))), function at exception vector 26 too large)

.vector_27      0x9fc01560        0x0
 *(.vector_27)
                0x00000001                ASSERT (((_vector_spacing == 0x0) || (SIZEOF (.vector_27) <= (_vector_spacing << 0x5))), function at exception vector 27 too large)

.vector_28      0x9fc01580        0x0
 *(.vector_28)
                0x00000001                ASSERT (((_vector_spacing == 0x0) || (SIZEOF (.vector_28) <= (_vector_spacing << 0x5))), function at exception vector 28 too large)

.vector_29      0x9fc015a0        0x0
 *(.vector_29)
                0x00000001                ASSERT (((_vector_spacing == 0x0) || (SIZEOF (.vector_29) <= (_vector_spacing << 0x5))), function at exception vector 29 too large)

.vector_30      0x9fc015c0        0x0
 *(.vector_30)
                0x00000001                ASSERT (((_vector_spacing == 0x0) || (SIZEOF (.vector_30) <= (_vector_spacing << 0x5))), function at exception vector 30 too large)

.vector_31      0x9fc015e0        0x0
 *(.vector_31)
                0x00000001                ASSERT (((_vector_spacing == 0x0) || (SIZEOF (.vector_31) <= (_vector_spacing << 0x5))), function at exception vector 31 too large)

.vector_32      0x9fc01600        0x0
 *(.vector_32)
                0x00000001                ASSERT (((_vector_spacing == 0x0) || (SIZEOF (.vector_32) <= (_vector_spacing << 0x5))), function at exception vector 32 too large)

.vector_33      0x9fc01620        0x0
 *(.vector_33)
                0x00000001                ASSERT (((_vector_spacing == 0x0) || (SIZEOF (.vector_33) <= (_vector_spacing << 0x5))), function at exception vector 33 too large)

.vector_34      0x9fc01640        0x0
 *(.vector_34)
                0x00000001                ASSERT (((_vector_spacing == 0x0) || (SIZEOF (.vector_34) <= (_vector_spacing << 0x5))), function at exception vector 34 too large)

.vector_35      0x9fc01660        0x0
 *(.vector_35)
                0x00000001                ASSERT (((_vector_spacing == 0x0) || (SIZEOF (.vector_35) <= (_vector_spacing << 0x5))), function at exception vector 35 too large)

.vector_36      0x9fc01680        0x0
 *(.vector_36)
                0x00000001                ASSERT (((_vector_spacing == 0x0) || (SIZEOF (.vector_36) <= (_vector_spacing << 0x5))), function at exception vector 36 too large)

.vector_37      0x9fc016a0        0x0
 *(.vector_37)
                0x00000001                ASSERT (((_vector_spacing == 0x0) || (SIZEOF (.vector_37) <= (_vector_spacing << 0x5))), function at exception vector 37 too large)

.vector_38      0x9fc016c0        0x0
 *(.vector_38)
                0x00000001                ASSERT (((_vector_spacing == 0x0) || (SIZEOF (.vector_38) <= (_vector_spacing << 0x5))), function at exception vector 38 too large)

.vector_39      0x9fc016e0        0x0
 *(.vector_39)
                0x00000001                ASSERT (((_vector_spacing == 0x0) || (SIZEOF (.vector_39) <= (_vector_spacing << 0x5))), function at exception vector 39 too large)

.vector_40      0x9fc01700        0x0
 *(.vector_40)
                0x00000001                ASSERT (((_vector_spacing == 0x0) || (SIZEOF (.vector_40) <= (_vector_spacing << 0x5))), function at exception vector 40 too large)

.vector_41      0x9fc01720        0x0
 *(.vector_41)
                0x00000001                ASSERT (((_vector_spacing == 0x0) || (SIZEOF (.vector_41) <= (_vector_spacing << 0x5))), function at exception vector 41 too large)

.vector_42      0x9fc01740        0x0
 *(.vector_42)
                0x00000001                ASSERT (((_vector_spacing == 0x0) || (SIZEOF (.vector_42) <= (_vector_spacing << 0x5))), function at exception vector 42 too large)

.vector_43      0x9fc01760        0x0
 *(.vector_43)
                0x00000001                ASSERT (((_vector_spacing == 0x0) || (SIZEOF (.vector_43) <= (_vector_spacing << 0x5))), function at exception vector 43 too large)

.vector_44      0x9fc01780        0x0
 *(.vector_44)
                0x00000001                ASSERT (((_vector_spacing == 0x0) || (SIZEOF (.vector_44) <= (_vector_spacing << 0x5))), function at exception vector 44 too large)

.vector_45      0x9fc017a0        0x0
 *(.vector_45)
                0x00000001                ASSERT (((_vector_spacing == 0x0) || (SIZEOF (.vector_45) <= (_vector_spacing << 0x5))), function at exception vector 45 too large)

.vector_46      0x9fc017c0        0x0
 *(.vector_46)
                0x00000001                ASSERT (((_vector_spacing == 0x0) || (SIZEOF (.vector_46) <= (_vector_spacing << 0x5))), function at exception vector 46 too large)

.vector_47      0x9fc017e0        0x0
 *(.vector_47)
                0x00000001                ASSERT (((_vector_spacing == 0x0) || (SIZEOF (.vector_47) <= (_vector_spacing << 0x5))), function at exception vector 47 too large)

.vector_48      0x9fc01800        0x0
 *(.vector_48)
                0x00000001                ASSERT (((_vector_spacing == 0x0) || (SIZEOF (.vector_48) <= (_vector_spacing << 0x5))), function at exception vector 48 too large)

.vector_49      0x9fc01820        0x0
 *(.vector_49)
                0x00000001                ASSERT (((_vector_spacing == 0x0) || (SIZEOF (.vector_49) <= (_vector_spacing << 0x5))), function at exception vector 49 too large)

.vector_50      0x9fc01840        0x0
 *(.vector_50)
                0x00000001                ASSERT (((_vector_spacing == 0x0) || (SIZEOF (.vector_50) <= (_vector_spacing << 0x5))), function at exception vector 50 too large)

.vector_51      0x9fc01860        0x0
 *(.vector_51)
                0x00000001                ASSERT (((_vector_spacing == 0x0) || (SIZEOF (.vector_51) <= (_vector_spacing << 0x5))), function at exception vector 51 too large)

.vector_52      0x9fc01880        0x0
 *(.vector_52)
                0x00000001                ASSERT (((_vector_spacing == 0x0) || (SIZEOF (.vector_52) <= (_vector_spacing << 0x5))), function at exception vector 52 too large)

.vector_53      0x9fc018a0        0x0
 *(.vector_53)
                0x00000001                ASSERT (((_vector_spacing == 0x0) || (SIZEOF (.vector_53) <= (_vector_spacing << 0x5))), function at exception vector 53 too large)

.vector_54      0x9fc018c0        0x0
 *(.vector_54)
                0x00000001                ASSERT (((_vector_spacing == 0x0) || (SIZEOF (.vector_54) <= (_vector_spacing << 0x5))), function at exception vector 54 too large)

.vector_55      0x9fc018e0        0x0
 *(.vector_55)
                0x00000001                ASSERT (((_vector_spacing == 0x0) || (SIZEOF (.vector_55) <= (_vector_spacing << 0x5))), function at exception vector 55 too large)

.vector_56      0x9fc01900        0x0
 *(.vector_56)
                0x00000001                ASSERT (((_vector_spacing == 0x0) || (SIZEOF (.vector_56) <= (_vector_spacing << 0x5))), function at exception vector 56 too large)

.vector_57      0x9fc01920        0x0
 *(.vector_57)
                0x00000001                ASSERT (((_vector_spacing == 0x0) || (SIZEOF (.vector_57) <= (_vector_spacing << 0x5))), function at exception vector 57 too large)

.vector_58      0x9fc01940        0x0
 *(.vector_58)
                0x00000001                ASSERT (((_vector_spacing == 0x0) || (SIZEOF (.vector_58) <= (_vector_spacing << 0x5))), function at exception vector 58 too large)

.vector_59      0x9fc01960        0x0
 *(.vector_59)
                0x00000001                ASSERT (((_vector_spacing == 0x0) || (SIZEOF (.vector_59) <= (_vector_spacing << 0x5))), function at exception vector 59 too large)

.vector_60      0x9fc01980        0x0
 *(.vector_60)
                0x00000001                ASSERT (((_vector_spacing == 0x0) || (SIZEOF (.vector_60) <= (_vector_spacing << 0x5))), function at exception vector 60 too large)

.vector_61      0x9fc019a0        0x0
 *(.vector_61)
                0x00000001                ASSERT (((_vector_spacing == 0x0) || (SIZEOF (.vector_61) <= (_vector_spacing << 0x5))), function at exception vector 61 too large)

.vector_62      0x9fc019c0        0x0
 *(.vector_62)
                0x00000001                ASSERT (((_vector_spacing == 0x0) || (SIZEOF (.vector_62) <= (_vector_spacing << 0x5))), function at exception vector 62 too large)

.vector_63      0x9fc019e0        0x0
 *(.vector_63)
                0x00000001                ASSERT (((_vector_spacing == 0x0) || (SIZEOF (.vector_63) <= (_vector_spacing << 0x5))), function at exception vector 63 too large)

.startup
 *(.startup)

.text
 *(.stub .gnu.linkonce.t.*)
 *(.text.*personality*)
 *(.mips16.fn.*)
 *(.mips16.call.*)
 *(.gnu.warning)

.rodata         0x9d000000        0x0
 *(.rodata.* .gnu.linkonce.r.*)
 *(.rodata1)
                0x9d000000                . = ALIGN (0x4)

.sdata2         0x9fc00490        0x0
 *(.sdata2 .sdata2.* .gnu.linkonce.s2.*)
                0x9fc00490                . = ALIGN (0x4)

.sbss2          0x9fc00490        0x0
 *(.sbss2 .sbss2.* .gnu.linkonce.sb2.*)
                0x9fc00490                . = ALIGN (0x4)

.eh_frame_hdr
 *(.eh_frame_hdr)

.eh_frame
 *(.eh_frame)

.dbg_data       0xa0000000        0x0
                0xa0000000                . = (. + DEFINED (_DEBUGGER)?0x200:0x0)

.persist        0xa0000000        0x0
                0xa0000000                _persist_begin = .
 *(.persist .persist.*)
                0xa0000000                . = ALIGN (0x4)
                0xa0000000                _persist_end = .

.eh_frame       0xa0000000       0x28
 *(.eh_frame)
 .eh_frame      0xa0000000       0x28 c:/program files (x86)/microchip/mplab c32 suite/bin/../lib/gcc/pic32mx/4.5.1/size\libgcc.a(_udivdi3.o)
                0xa0000028                . = .
                0xa0008020                _gp = (ALIGN (0x10) + 0x7ff0)

.got
 *(.got.plt)
 *(.got)

.sdata          0xa0000028       0x34
                0xa0000028                _sdata_begin = .
 *(.sdata .sdata.* .gnu.linkonce.s.*)
 .sdata         0xa0000028        0x4 Objects - TCPIP PIC32 ETH Demo App-C32\DHCPs.o
                0xa0000028                bDHCPServerEnabled
 .sdata         0xa000002c        0x8 Objects - TCPIP PIC32 ETH Demo App-C32\DNS.o
 .sdata         0xa0000034        0x1 Objects - TCPIP PIC32 ETH Demo App-C32\DynDNS.o
 *fill*         0xa0000035        0x3 00
 .sdata         0xa0000038        0x4 Objects - TCPIP PIC32 ETH Demo App-C32\Helpers.o
 .sdata         0xa000003c        0x1 Objects - TCPIP PIC32 ETH Demo App-C32\Reboot.o
 .sdata         0xa000003d        0x1 Objects - TCPIP PIC32 ETH Demo App-C32\SMTP.o
 .sdata         0xa000003e        0x1 Objects - TCPIP PIC32 ETH Demo App-C32\SNTP.o
 .sdata         0xa000003f        0x2 Objects - TCPIP PIC32 ETH Demo App-C32\TCP.o
 .sdata         0xa0000041        0x2 Objects - TCPIP PIC32 ETH Demo App-C32\TCPPerformanceTest.o
 .sdata         0xa0000043        0x2 Objects - TCPIP PIC32 ETH Demo App-C32\UDP.o
 *fill*         0xa0000045        0x3 00
 .sdata         0xa0000048        0xc Objects - TCPIP PIC32 ETH Demo App-C32\GenericTCPClient.o
 .sdata         0xa0000054        0x2 Objects - TCPIP PIC32 ETH Demo App-C32\BerkeleyAPI.o
 *fill*         0xa0000056        0x2 00
 .sdata         0xa0000058        0x4 Objects - TCPIP PIC32 ETH Demo App-C32\BerkeleyTCPClientDemo.o
                0xa000005c                _sdata_end = .

.lit8
 *(.lit8)

.lit4
 *(.lit4)
                0xa000005c                . = ALIGN (0x4)
                0xa000005c                _data_end = .
                0xa000005c                _bss_begin = .

.sbss           0xa000005c      0x1e0
                0xa000005c                _sbss_begin = .
 *(.dynsbss)
 *(.sbss .sbss.* .gnu.linkonce.sb.*)
 .sbss          0xa000005c        0x8 Objects - TCPIP PIC32 ETH Demo App-C32\MainDemo.o
 .sbss          0xa0000064       0x14 Objects - TCPIP PIC32 ETH Demo App-C32\CustomHTTPApp.o
 .sbss          0xa0000078        0x8 Objects - TCPIP PIC32 ETH Demo App-C32\Announce.o
 .sbss          0xa0000080        0x4 Objects - TCPIP PIC32 ETH Demo App-C32\ARP.o
 .sbss          0xa0000084        0x4 Objects - TCPIP PIC32 ETH Demo App-C32\DHCP.o
                0xa0000084                DHCPClientInitializedOnce
 .sbss          0xa0000088        0xc Objects - TCPIP PIC32 ETH Demo App-C32\DHCPs.o
 .sbss          0xa0000094       0x14 Objects - TCPIP PIC32 ETH Demo App-C32\DNS.o
 .sbss          0xa00000a8       0x24 Objects - TCPIP PIC32 ETH Demo App-C32\DynDNS.o
 .sbss          0xa00000cc       0x10 Objects - TCPIP PIC32 ETH Demo App-C32\ICMP.o
 .sbss          0xa00000dc        0x4 Objects - TCPIP PIC32 ETH Demo App-C32\IP.o
 .sbss          0xa00000e0        0x8 Objects - TCPIP PIC32 ETH Demo App-C32\MPFS2.o
 .sbss          0xa00000e8        0x8 Objects - TCPIP PIC32 ETH Demo App-C32\NBNS.o
 .sbss          0xa00000f0       0x34 Objects - TCPIP PIC32 ETH Demo App-C32\SMTP.o
 .sbss          0xa0000124       0x10 Objects - TCPIP PIC32 ETH Demo App-C32\SNTP.o
 .sbss          0xa0000134        0xc Objects - TCPIP PIC32 ETH Demo App-C32\StackTsk.o
 .sbss          0xa0000140       0x14 Objects - TCPIP PIC32 ETH Demo App-C32\TCPPerformanceTest.o
 .sbss          0xa0000154       0x10 Objects - TCPIP PIC32 ETH Demo App-C32\Telnet.o
 .sbss          0xa0000164        0xc Objects - TCPIP PIC32 ETH Demo App-C32\Tick.o
 .sbss          0xa0000170        0x8 Objects - TCPIP PIC32 ETH Demo App-C32\UDP.o
 .sbss          0xa0000178        0x4 Objects - TCPIP PIC32 ETH Demo App-C32\GenericTCPClient.o
 .sbss          0xa000017c        0x8 Objects - TCPIP PIC32 ETH Demo App-C32\GenericTCPServer.o
 .sbss          0xa0000184        0x8 Objects - TCPIP PIC32 ETH Demo App-C32\PingDemo.o
 .sbss          0xa000018c        0x8 Objects - TCPIP PIC32 ETH Demo App-C32\SMTPDemo.o
 .sbss          0xa0000194        0x4 Objects - TCPIP PIC32 ETH Demo App-C32\BerkeleyAPI.o
 .sbss          0xa0000198       0x18 Objects - TCPIP PIC32 ETH Demo App-C32\BerkeleyUDPClientDemo.o
 .sbss          0xa00001b0        0x1 Objects - TCPIP PIC32 ETH Demo App-C32\BerkeleyTCPClientDemo.o
 *fill*         0xa00001b1        0x3 00
 .sbss          0xa00001b4        0x8 Objects - TCPIP PIC32 ETH Demo App-C32\BerkeleyTCPServerDemo.o
 .sbss          0xa00001bc       0x40 Objects - TCPIP PIC32 ETH Demo App-C32\ETHPIC32IntMac.o
                0xa00001e8                _stackMgrRxOkPkts
                0xa00001ec                _stackMgrRxBadPkts
                0xa00001f0                _stackMgrInGetHdr
                0xa00001f4                _stackMgrRxDiscarded
                0xa00001f8                _stackMgrTxNotReady
 .sbss          0xa00001fc        0x8 c:/program files (x86)/microchip/mplab c32 suite/bin/../lib/gcc/pic32mx/4.5.1/../../../../pic32mx/lib/size\libc.a(sbrk.o)
                0xa00001fc                _minbrk
                0xa0000200                _maxbrk
 .sbss          0xa0000204        0x4 c:/program files (x86)/microchip/mplab c32 suite/bin/../lib/gcc/pic32mx/4.5.1/../../../../pic32mx/lib/size\libc.a(errno.o)
                0xa0000204                errno
 .sbss          0xa0000208       0x20 c:/program files (x86)/microchip/mplab c32 suite/bin/../lib/gcc/pic32mx/4.5.1/../../../../pic32mx/lib/size\libmchp_peripheral_32MX795F512L.a(eth_descriptors_add_lib.o)
                0xa0000208                _EthTxFreeList
                0xa0000210                _EthTxBusyList
                0xa0000218                _EthRxFreeList
                0xa0000220                _EthRxBusyList
 *(.scommon)
 .scommon       0xa0000228        0x8 Objects - TCPIP PIC32 ETH Demo App-C32\MainDemo.o
                0xa0000228                AN0String
 .scommon       0xa0000230        0x1 Objects - TCPIP PIC32 ETH Demo App-C32\HTTP2.o
                0xa0000230                curHTTPID
 *fill*         0xa0000231        0x1 00
 .scommon       0xa0000232        0x6 Objects - TCPIP PIC32 ETH Demo App-C32\UDP.o
                0xa0000232                activeUDPSocket
                0xa0000234                UDPTxCount
                0xa0000236                UDPRxCount
 .scommon       0xa0000238        0x4 Objects - TCPIP PIC32 ETH Demo App-C32\ETHPIC32ExtPhy.o
                0xa0000238                _PhyAdd
                0xa000023c                _sbss_end = .

.bss            0xa000023c      0x280
 *(.dynbss)
 *(COMMON)
 COMMON         0xa000023c       0x33 Objects - TCPIP PIC32 ETH Demo App-C32\MainDemo.o
                0xa000023c                AppConfig
 *fill*         0xa000026f        0x1 00
 COMMON         0xa0000270       0x20 Objects - TCPIP PIC32 ETH Demo App-C32\DynDNS.o
                0xa0000270                DDNSClient
 COMMON         0xa0000290       0x40 Objects - TCPIP PIC32 ETH Demo App-C32\Hashes.o
                0xa0000290                lastBlock
 COMMON         0xa00002d0       0x9c Objects - TCPIP PIC32 ETH Demo App-C32\HTTP2.o
                0xa00002d0                curHTTP
                0xa000035c                httpStubs
 COMMON         0xa000036c       0x2c Objects - TCPIP PIC32 ETH Demo App-C32\SMTP.o
                0xa000036c                SMTPClient
 COMMON         0xa0000398        0xa Objects - TCPIP PIC32 ETH Demo App-C32\StackTsk.o
                0xa0000398                remoteNode
 *fill*         0xa00003a2        0x2 00
 COMMON         0xa00003a4      0x118 Objects - TCPIP PIC32 ETH Demo App-C32\UDP.o
                0xa00003a4                UDPSocketInfo
                0xa00004bc                . = ALIGN (0x4)
                0xa00004bc                . = ALIGN (0x4)
                0xa00004bc                _end = .
                0xa00004bc                _bss_end = .
                0x00020000                _bmxdudba_address = 0x20000
                0x00020000                _bmxdupba_address = 0x20000

/DISCARD/
 *(.pdr)
 *(.reginfo)
 *(.rel.dyn)
 *(.note.GNU-stack)
 *(.note.GNU-stack)
 *(.gnu_debuglink)
 *(.gnu.lto_*)
 *(.discard)

.stab
 *(.stab)

.stabstr
 *(.stabstr)

.stab.excl
 *(.stab.excl)

.stab.exclstr
 *(.stab.exclstr)

.stab.index
 *(.stab.index)

.stab.indexstr
 *(.stab.indexstr)

.comment        0x00000000      0x28f
 *(.comment)
 .comment       0x00000000       0x51 Objects - TCPIP PIC32 ETH Demo App-C32\MainDemo.o
                                 0x52 (size before relaxing)
 .comment       0x00000000       0x52 Objects - TCPIP PIC32 ETH Demo App-C32\CustomHTTPApp.o
 .comment       0x00000000       0x52 Objects - TCPIP PIC32 ETH Demo App-C32\UDPPerformanceTest.o
 .comment       0x00000000       0x52 Objects - TCPIP PIC32 ETH Demo App-C32\Announce.o
 .comment       0x00000000       0x52 Objects - TCPIP PIC32 ETH Demo App-C32\ARP.o
 .comment       0x00000000       0x52 Objects - TCPIP PIC32 ETH Demo App-C32\Delay.o
 .comment       0x00000000       0x52 Objects - TCPIP PIC32 ETH Demo App-C32\DHCP.o
 .comment       0x00000000       0x52 Objects - TCPIP PIC32 ETH Demo App-C32\DHCPs.o
 .comment       0x00000000       0x52 Objects - TCPIP PIC32 ETH Demo App-C32\DNS.o
 .comment       0x00000000       0x52 Objects - TCPIP PIC32 ETH Demo App-C32\DynDNS.o
 .comment       0x00000000       0x52 Objects - TCPIP PIC32 ETH Demo App-C32\ENC28J60.o
 .comment       0x00000000       0x52 Objects - TCPIP PIC32 ETH Demo App-C32\FTP.o
 .comment       0x00000000       0x52 Objects - TCPIP PIC32 ETH Demo App-C32\Hashes.o
 .comment       0x00000000       0x52 Objects - TCPIP PIC32 ETH Demo App-C32\Helpers.o
 .comment       0x00000000       0x52 Objects - TCPIP PIC32 ETH Demo App-C32\HTTP2.o
 .comment       0x00000000       0x52 Objects - TCPIP PIC32 ETH Demo App-C32\HTTP.o
 .comment       0x00000000       0x52 Objects - TCPIP PIC32 ETH Demo App-C32\ICMP.o
 .comment       0x00000000       0x52 Objects - TCPIP PIC32 ETH Demo App-C32\IP.o
 .comment       0x00000000       0x52 Objects - TCPIP PIC32 ETH Demo App-C32\LCDBlocking.o
 .comment       0x00000000       0x52 Objects - TCPIP PIC32 ETH Demo App-C32\MPFS2.o
 .comment       0x00000000       0x52 Objects - TCPIP PIC32 ETH Demo App-C32\MPFS.o
 .comment       0x00000000       0x52 Objects - TCPIP PIC32 ETH Demo App-C32\NBNS.o
 .comment       0x00000000       0x52 Objects - TCPIP PIC32 ETH Demo App-C32\Reboot.o
 .comment       0x00000000       0x52 Objects - TCPIP PIC32 ETH Demo App-C32\SMTP.o
 .comment       0x00000000       0x52 Objects - TCPIP PIC32 ETH Demo App-C32\SNMP.o
 .comment       0x00000000       0x52 Objects - TCPIP PIC32 ETH Demo App-C32\SNTP.o
 .comment       0x00000000       0x52 Objects - TCPIP PIC32 ETH Demo App-C32\SPIEEPROM.o
 .comment       0x00000000       0x52 Objects - TCPIP PIC32 ETH Demo App-C32\SPIFlash.o
 .comment       0x00000000       0x52 Objects - TCPIP PIC32 ETH Demo App-C32\SPIRAM.o
 .comment       0x00000000       0x52 Objects - TCPIP PIC32 ETH Demo App-C32\StackTsk.o
 .comment       0x00000000       0x52 Objects - TCPIP PIC32 ETH Demo App-C32\TCP.o
 .comment       0x00000000       0x52 Objects - TCPIP PIC32 ETH Demo App-C32\TCPPerformanceTest.o
 .comment       0x00000000       0x52 Objects - TCPIP PIC32 ETH Demo App-C32\Telnet.o
 .comment       0x00000000       0x52 Objects - TCPIP PIC32 ETH Demo App-C32\TFTPc.o
 .comment       0x00000000       0x52 Objects - TCPIP PIC32 ETH Demo App-C32\Tick.o
 .comment       0x00000000       0x52 Objects - TCPIP PIC32 ETH Demo App-C32\UART2TCPBridge.o
 .comment       0x00000000       0x52 Objects - TCPIP PIC32 ETH Demo App-C32\UDP.o
 .comment       0x00000000       0x52 Objects - TCPIP PIC32 ETH Demo App-C32\CustomSNMPApp.o
 .comment       0x00000000       0x52 Objects - TCPIP PIC32 ETH Demo App-C32\UARTConfig.o
 .comment       0x00000000       0x52 Objects - TCPIP PIC32 ETH Demo App-C32\GenericTCPClient.o
 .comment       0x00000000       0x52 Objects - TCPIP PIC32 ETH Demo App-C32\GenericTCPServer.o
 .comment       0x00000000       0x52 Objects - TCPIP PIC32 ETH Demo App-C32\LegacyHTTPApp.o
 .comment       0x00000000       0x52 Objects - TCPIP PIC32 ETH Demo App-C32\PingDemo.o
 .comment       0x00000000       0x52 Objects - TCPIP PIC32 ETH Demo App-C32\SMTPDemo.o
 .comment       0x00000000       0x52 Objects - TCPIP PIC32 ETH Demo App-C32\BerkeleyAPI.o
 .comment       0x00000000       0x52 Objects - TCPIP PIC32 ETH Demo App-C32\BerkeleyUDPClientDemo.o
 .comment       0x00000000       0x52 Objects - TCPIP PIC32 ETH Demo App-C32\BerkeleyTCPClientDemo.o
 .comment       0x00000000       0x52 Objects - TCPIP PIC32 ETH Demo App-C32\BerkeleyTCPServerDemo.o
 .comment       0x00000000       0x52 Objects - TCPIP PIC32 ETH Demo App-C32\ENCX24J600.o
 .comment       0x00000000       0x52 Objects - TCPIP PIC32 ETH Demo App-C32\MPFSImg2.o
 .comment       0x00000000       0x52 Objects - TCPIP PIC32 ETH Demo App-C32\Random.o
 .comment       0x00000000       0x52 Objects - TCPIP PIC32 ETH Demo App-C32\RSA.o
 .comment       0x00000000       0x52 Objects - TCPIP PIC32 ETH Demo App-C32\SSL.o
 .comment       0x00000000       0x52 Objects - TCPIP PIC32 ETH Demo App-C32\ARCFOUR.o
 .comment       0x00000000       0x52 Objects - TCPIP PIC32 ETH Demo App-C32\BigInt.o
 .comment       0x00000000       0x52 Objects - TCPIP PIC32 ETH Demo App-C32\CustomSSLCert.o
 .comment       0x00000000       0x52 Objects - TCPIP PIC32 ETH Demo App-C32\AutoIP.o
 .comment       0x00000000       0x52 Objects - TCPIP PIC32 ETH Demo App-C32\ETHPIC32IntMac.o
 .comment       0x00000000       0x52 Objects - TCPIP PIC32 ETH Demo App-C32\ETHPIC32ExtPhy.o
 .comment       0x00000000       0x52 Objects - TCPIP PIC32 ETH Demo App-C32\ETHPIC32ExtPhyDP83848.o
 .comment       0x00000000       0x52 Objects - TCPIP PIC32 ETH Demo App-C32\UART.o
 .comment       0x00000000       0x52 c:/program files (x86)/microchip/mplab c32 suite/bin/../lib/gcc/pic32mx/4.5.1/size\libgcc.a(_udivdi3.o)
 .comment       0x00000051       0x55 c:/program files (x86)/microchip/mplab c32 suite/bin/../lib/gcc/pic32mx/4.5.1/../../../../pic32mx/lib/size\libc.a(memcmp.o)
                                 0x56 (size before relaxing)
 .comment       0x000000a6       0x55 c:/program files (x86)/microchip/mplab c32 suite/bin/../lib/gcc/pic32mx/4.5.1/../../../../pic32mx/lib/size\libc.a(memset.o)
                                 0x56 (size before relaxing)
 .comment       0x000000fb       0x55 c:/program files (x86)/microchip/mplab c32 suite/bin/../lib/gcc/pic32mx/4.5.1/../../../../pic32mx/lib/size\libc.a(strcmp.o)
                                 0x56 (size before relaxing)
 .comment       0x00000150       0x55 c:/program files (x86)/microchip/mplab c32 suite/bin/../lib/gcc/pic32mx/4.5.1/../../../../pic32mx/lib/size\libc.a(strlen.o)
                                 0x56 (size before relaxing)
 .comment       0x00000000       0x52 c:/program files (x86)/microchip/mplab c32 suite/bin/../lib/gcc/pic32mx/4.5.1/../../../../pic32mx/lib/size\libc.a(atoi.o)
 .comment       0x00000000       0x52 c:/program files (x86)/microchip/mplab c32 suite/bin/../lib/gcc/pic32mx/4.5.1/../../../../pic32mx/lib/size\libc.a(atol.o)
 .comment       0x00000000       0x52 c:/program files (x86)/microchip/mplab c32 suite/bin/../lib/gcc/pic32mx/4.5.1/../../../../pic32mx/lib/size\libc.a(calloc.o)
 .comment       0x000001a5       0x4e c:/program files (x86)/microchip/mplab c32 suite/bin/../lib/gcc/pic32mx/4.5.1/../../../../pic32mx/lib/size\libc.a(ctype.o)
                                 0xa0 (size before relaxing)
 .comment       0x00000000       0x52 c:/program files (x86)/microchip/mplab c32 suite/bin/../lib/gcc/pic32mx/4.5.1/../../../../pic32mx/lib/size\libc.a(ltoa.o)
 .comment       0x00000000       0x52 c:/program files (x86)/microchip/mplab c32 suite/bin/../lib/gcc/pic32mx/4.5.1/../../../../pic32mx/lib/size\libc.a(malloc.o)
 .comment       0x00000000       0x52 c:/program files (x86)/microchip/mplab c32 suite/bin/../lib/gcc/pic32mx/4.5.1/../../../../pic32mx/lib/size\libc.a(strchr.o)
 .comment       0x00000000       0x52 c:/program files (x86)/microchip/mplab c32 suite/bin/../lib/gcc/pic32mx/4.5.1/../../../../pic32mx/lib/size\libc.a(strncpy.o)
 .comment       0x00000000       0x52 c:/program files (x86)/microchip/mplab c32 suite/bin/../lib/gcc/pic32mx/4.5.1/../../../../pic32mx/lib/size\libc.a(strstr.o)
 .comment       0x000001f3       0x4b c:/program files (x86)/microchip/mplab c32 suite/bin/../lib/gcc/pic32mx/4.5.1/../../../../pic32mx/lib/size\libc.a(sbrk.o)
                                 0x9d (size before relaxing)
 .comment       0x00000000       0x52 c:/program files (x86)/microchip/mplab c32 suite/bin/../lib/gcc/pic32mx/4.5.1/../../../../pic32mx/lib/size\libc.a(default-bootstrap-exception-handler.o)
 .comment       0x00000000       0x52 c:/program files (x86)/microchip/mplab c32 suite/bin/../lib/gcc/pic32mx/4.5.1/../../../../pic32mx/lib/size\libc.a(default-on-reset.o)
 .comment       0x00000000       0x52 c:/program files (x86)/microchip/mplab c32 suite/bin/../lib/gcc/pic32mx/4.5.1/../../../../pic32mx/lib/size\libc.a(default-on-bootstrap.o)
 .comment       0x00000000       0x52 c:/program files (x86)/microchip/mplab c32 suite/bin/../lib/gcc/pic32mx/4.5.1/../../../../pic32mx/lib/size\libc.a(errno.o)
 .comment       0x00000000       0x52 c:/program files (x86)/microchip/mplab c32 suite/bin/../lib/gcc/pic32mx/4.5.1/../../../../pic32mx/lib/size\libc.a(strncmp.o)
 .comment       0x0000023e       0x51 c:/program files (x86)/microchip/mplab c32 suite/bin/../lib/gcc/pic32mx/4.5.1/../../../../pic32mx/lib/size\libmchp_peripheral.a(read_core_timer_lib.o)
                                 0x52 (size before relaxing)
 .comment       0x00000000       0x52 c:/program files (x86)/microchip/mplab c32 suite/bin/../lib/gcc/pic32mx/4.5.1/../../../../pic32mx/lib/size\libmchp_peripheral_32MX795F512L.a(eth_ack_packet_lib.o)
 .comment       0x00000000       0x52 c:/program files (x86)/microchip/mplab c32 suite/bin/../lib/gcc/pic32mx/4.5.1/../../../../pic32mx/lib/size\libmchp_peripheral_32MX795F512L.a(eth_descriptors_add_lib.o)
 .comment       0x00000000       0x52 c:/program files (x86)/microchip/mplab c32 suite/bin/../lib/gcc/pic32mx/4.5.1/../../../../pic32mx/lib/size\libmchp_peripheral_32MX795F512L.a(eth_init_lib.o)
 .comment       0x00000000       0x52 c:/program files (x86)/microchip/mplab c32 suite/bin/../lib/gcc/pic32mx/4.5.1/../../../../pic32mx/lib/size\libmchp_peripheral_32MX795F512L.a(eth_mac_open_lib.o)
 .comment       0x00000000       0x52 c:/program files (x86)/microchip/mplab c32 suite/bin/../lib/gcc/pic32mx/4.5.1/../../../../pic32mx/lib/size\libmchp_peripheral_32MX795F512L.a(eth_mac_set_address_max_lib.o)
 .comment       0x00000000       0x52 c:/program files (x86)/microchip/mplab c32 suite/bin/../lib/gcc/pic32mx/4.5.1/../../../../pic32mx/lib/size\libmchp_peripheral_32MX795F512L.a(eth_rx_buffers_append_lib.o)
 .comment       0x00000000       0x52 c:/program files (x86)/microchip/mplab c32 suite/bin/../lib/gcc/pic32mx/4.5.1/../../../../pic32mx/lib/size\libmchp_peripheral_32MX795F512L.a(eth_rx_filters_lib.o)
 .comment       0x00000000       0x52 c:/program files (x86)/microchip/mplab c32 suite/bin/../lib/gcc/pic32mx/4.5.1/../../../../pic32mx/lib/size\libmchp_peripheral_32MX795F512L.a(eth_rx_get_packet_lib.o)
 .comment       0x00000000       0x52 c:/program files (x86)/microchip/mplab c32 suite/bin/../lib/gcc/pic32mx/4.5.1/../../../../pic32mx/lib/size\libmchp_peripheral_32MX795F512L.a(eth_rx_set_buffer_size_lib.o)
 .comment       0x00000000       0x52 c:/program files (x86)/microchip/mplab c32 suite/bin/../lib/gcc/pic32mx/4.5.1/../../../../pic32mx/lib/size\libmchp_peripheral_32MX795F512L.a(eth_tx_packet_lib.o)
 .comment       0x00000000       0x52 c:/program files (x86)/microchip/mplab c32 suite/bin/../lib/gcc/pic32mx/4.5.1/../../../../pic32mx/lib/size\libmchp_peripheral_32MX795F512L.a(_eth_append_busy_list_lib.o)
 .comment       0x00000000       0x52 c:/program files (x86)/microchip/mplab c32 suite/bin/../lib/gcc/pic32mx/4.5.1/../../../../pic32mx/lib/size\libmchp_peripheral_32MX795F512L.a(eth_miim_access.o)
 .comment       0x00000000       0x52 c:/program files (x86)/microchip/mplab c32 suite/bin/../lib/gcc/pic32mx/4.5.1/../../../../pic32mx/lib/size\libmchp_peripheral_32MX795F512L.a(soft_reset_lib.o)
 .comment       0x00000000       0x52 c:/program files (x86)/microchip/mplab c32 suite/bin/../lib/gcc/pic32mx/4.5.1/../../../../pic32mx/lib/size\libmchp_peripheral_32MX795F512L.a(pcache.o)
 .comment       0x00000000       0x52 c:/program files (x86)/microchip/mplab c32 suite/bin/../lib/gcc/pic32mx/4.5.1/../../../../pic32mx/lib/size\libmchp_peripheral_32MX795F512L.a(int_disable_interrupts_lib.o)
 .comment       0x00000000       0x52 c:/program files (x86)/microchip/mplab c32 suite/bin/../lib/gcc/pic32mx/4.5.1/../../../../pic32mx/lib/size\libmchp_peripheral_32MX795F512L.a(int_restore_interrupts_lib.o)
 .comment       0x00000000       0x52 c:/program files (x86)/microchip/mplab c32 suite/bin/../lib/gcc/pic32mx/4.5.1/../../../../pic32mx/lib/size\libmchp_peripheral_32MX795F512L.a(int_enable_mv_int_lib.o)
 .comment       0x00000000       0x52 c:/program files (x86)/microchip/mplab c32 suite/bin/../lib/gcc/pic32mx/4.5.1/../../../../pic32mx/lib/size\libmchp_peripheral_32MX795F512L.a(int_tbl_lib.o)
 .comment       0x00000000       0x52 c:/program files (x86)/microchip/mplab c32 suite/bin/../lib/gcc/pic32mx/4.5.1/../../../../pic32mx/lib/size\libmchp_peripheral_32MX795F512L.a(port_set_pins_digital_in_lib.o)
 .comment       0x00000000       0x52 c:/program files (x86)/microchip/mplab c32 suite/bin/../lib/gcc/pic32mx/4.5.1/../../../../pic32mx/lib/size\libmchp_peripheral_32MX795F512L.a(port_set_pins_digital_out_lib.o)
 .comment       0x00000000       0x52 c:/program files (x86)/microchip/mplab c32 suite/bin/../lib/gcc/pic32mx/4.5.1/../../../../pic32mx/lib/size\libmchp_peripheral_32MX795F512L.a(_ports_tbl_libp.o)
 .comment       0x00000000       0x52 c:/program files (x86)/microchip/mplab c32 suite/bin/../lib/gcc/pic32mx/4.5.1/../../../../pic32mx/lib/size\libmchp_peripheral_32MX795F512L.a(uart_lib.o)
 .comment       0x00000000       0x52 c:/program files (x86)/microchip/mplab c32 suite/bin/../lib/gcc/pic32mx/4.5.1/../../../../pic32mx/lib/size\libmchp_peripheral_32MX795F512L.a(int_enable_interrupts_lib.o)

.debug
 *(.debug)

.line
 *(.line)

.debug_srcinfo
 *(.debug_srcinfo)

.debug_sfnames
 *(.debug_sfnames)

.debug_aranges  0x00000000      0xaf8
 *(.debug_aranges)
 .debug_aranges
                0x00000000       0x20 Objects - TCPIP PIC32 ETH Demo App-C32\MainDemo.o
 .debug_aranges
                0x00000020       0x20 Objects - TCPIP PIC32 ETH Demo App-C32\CustomHTTPApp.o
 .debug_aranges
                0x00000040       0x20 Objects - TCPIP PIC32 ETH Demo App-C32\Announce.o
 .debug_aranges
                0x00000060       0x20 Objects - TCPIP PIC32 ETH Demo App-C32\ARP.o
 .debug_aranges
                0x00000080       0x20 Objects - TCPIP PIC32 ETH Demo App-C32\Delay.o
 .debug_aranges
                0x000000a0       0x20 Objects - TCPIP PIC32 ETH Demo App-C32\DHCP.o
 .debug_aranges
                0x000000c0       0x20 Objects - TCPIP PIC32 ETH Demo App-C32\DHCPs.o
 .debug_aranges
                0x000000e0       0x20 Objects - TCPIP PIC32 ETH Demo App-C32\DNS.o
 .debug_aranges
                0x00000100       0x20 Objects - TCPIP PIC32 ETH Demo App-C32\DynDNS.o
 .debug_aranges
                0x00000120       0x20 Objects - TCPIP PIC32 ETH Demo App-C32\Hashes.o
 .debug_aranges
                0x00000140       0x20 Objects - TCPIP PIC32 ETH Demo App-C32\Helpers.o
 .debug_aranges
                0x00000160       0x20 Objects - TCPIP PIC32 ETH Demo App-C32\HTTP2.o
 .debug_aranges
                0x00000180       0x20 Objects - TCPIP PIC32 ETH Demo App-C32\ICMP.o
 .debug_aranges
                0x000001a0       0x20 Objects - TCPIP PIC32 ETH Demo App-C32\IP.o
 .debug_aranges
                0x000001c0       0x20 Objects - TCPIP PIC32 ETH Demo App-C32\MPFS2.o
 .debug_aranges
                0x000001e0       0x20 Objects - TCPIP PIC32 ETH Demo App-C32\NBNS.o
 .debug_aranges
                0x00000200       0x20 Objects - TCPIP PIC32 ETH Demo App-C32\Reboot.o
 .debug_aranges
                0x00000220       0x20 Objects - TCPIP PIC32 ETH Demo App-C32\SMTP.o
 .debug_aranges
                0x00000240       0x20 Objects - TCPIP PIC32 ETH Demo App-C32\SNTP.o
 .debug_aranges
                0x00000260       0x20 Objects - TCPIP PIC32 ETH Demo App-C32\StackTsk.o
 .debug_aranges
                0x00000280       0x20 Objects - TCPIP PIC32 ETH Demo App-C32\TCP.o
 .debug_aranges
                0x000002a0       0x20 Objects - TCPIP PIC32 ETH Demo App-C32\TCPPerformanceTest.o
 .debug_aranges
                0x000002c0       0x20 Objects - TCPIP PIC32 ETH Demo App-C32\Telnet.o
 .debug_aranges
                0x000002e0       0x20 Objects - TCPIP PIC32 ETH Demo App-C32\Tick.o
 .debug_aranges
                0x00000300       0x20 Objects - TCPIP PIC32 ETH Demo App-C32\UDP.o
 .debug_aranges
                0x00000320       0x20 Objects - TCPIP PIC32 ETH Demo App-C32\UARTConfig.o
 .debug_aranges
                0x00000340       0x20 Objects - TCPIP PIC32 ETH Demo App-C32\GenericTCPClient.o
 .debug_aranges
                0x00000360       0x20 Objects - TCPIP PIC32 ETH Demo App-C32\GenericTCPServer.o
 .debug_aranges
                0x00000380       0x20 Objects - TCPIP PIC32 ETH Demo App-C32\PingDemo.o
 .debug_aranges
                0x000003a0       0x20 Objects - TCPIP PIC32 ETH Demo App-C32\SMTPDemo.o
 .debug_aranges
                0x000003c0       0x20 Objects - TCPIP PIC32 ETH Demo App-C32\BerkeleyAPI.o
 .debug_aranges
                0x000003e0       0x20 Objects - TCPIP PIC32 ETH Demo App-C32\BerkeleyUDPClientDemo.o
 .debug_aranges
                0x00000400       0x20 Objects - TCPIP PIC32 ETH Demo App-C32\BerkeleyTCPClientDemo.o
 .debug_aranges
                0x00000420       0x20 Objects - TCPIP PIC32 ETH Demo App-C32\BerkeleyTCPServerDemo.o
 .debug_aranges
                0x00000440       0x20 Objects - TCPIP PIC32 ETH Demo App-C32\AutoIP.o
 .debug_aranges
                0x00000460       0x20 Objects - TCPIP PIC32 ETH Demo App-C32\ETHPIC32IntMac.o
 .debug_aranges
                0x00000480       0x20 Objects - TCPIP PIC32 ETH Demo App-C32\ETHPIC32ExtPhy.o
 .debug_aranges
                0x000004a0       0x20 Objects - TCPIP PIC32 ETH Demo App-C32\ETHPIC32ExtPhyDP83848.o
 .debug_aranges
                0x000004c0       0x20 Objects - TCPIP PIC32 ETH Demo App-C32\UART.o
 .debug_aranges
                0x000004e0       0x20 c:/program files (x86)/microchip/mplab c32 suite/bin/../lib/gcc/pic32mx/4.5.1/size\libgcc.a(_udivdi3.o)
 .debug_aranges
                0x00000500       0x20 c:/program files (x86)/microchip/mplab c32 suite/bin/../lib/gcc/pic32mx/4.5.1/../../../../pic32mx/lib/size\libc.a(atoi.o)
 .debug_aranges
                0x00000520       0x20 c:/program files (x86)/microchip/mplab c32 suite/bin/../lib/gcc/pic32mx/4.5.1/../../../../pic32mx/lib/size\libc.a(atol.o)
 .debug_aranges
                0x00000540       0x20 c:/program files (x86)/microchip/mplab c32 suite/bin/../lib/gcc/pic32mx/4.5.1/../../../../pic32mx/lib/size\libc.a(calloc.o)
 .debug_aranges
                0x00000560       0x28 c:/program files (x86)/microchip/mplab c32 suite/bin/../lib/gcc/pic32mx/4.5.1/../../../../pic32mx/lib/size\libc.a(ltoa.o)
 .debug_aranges
                0x00000588       0x30 c:/program files (x86)/microchip/mplab c32 suite/bin/../lib/gcc/pic32mx/4.5.1/../../../../pic32mx/lib/size\libc.a(malloc.o)
 .debug_aranges
                0x000005b8       0x20 c:/program files (x86)/microchip/mplab c32 suite/bin/../lib/gcc/pic32mx/4.5.1/../../../../pic32mx/lib/size\libc.a(strchr.o)
 .debug_aranges
                0x000005d8       0x20 c:/program files (x86)/microchip/mplab c32 suite/bin/../lib/gcc/pic32mx/4.5.1/../../../../pic32mx/lib/size\libc.a(strncpy.o)
 .debug_aranges
                0x000005f8       0x20 c:/program files (x86)/microchip/mplab c32 suite/bin/../lib/gcc/pic32mx/4.5.1/../../../../pic32mx/lib/size\libc.a(strstr.o)
 .debug_aranges
                0x00000618       0x40 c:/program files (x86)/microchip/mplab c32 suite/bin/../lib/gcc/pic32mx/4.5.1/../../../../pic32mx/lib/size\libc.a(sbrk.o)
 .debug_aranges
                0x00000658       0x20 c:/program files (x86)/microchip/mplab c32 suite/bin/../lib/gcc/pic32mx/4.5.1/../../../../pic32mx/lib/size\libc.a(default-bootstrap-exception-handler.o)
 .debug_aranges
                0x00000678       0x20 c:/program files (x86)/microchip/mplab c32 suite/bin/../lib/gcc/pic32mx/4.5.1/../../../../pic32mx/lib/size\libc.a(default-on-reset.o)
 .debug_aranges
                0x00000698       0x20 c:/program files (x86)/microchip/mplab c32 suite/bin/../lib/gcc/pic32mx/4.5.1/../../../../pic32mx/lib/size\libc.a(default-on-bootstrap.o)
 .debug_aranges
                0x000006b8       0x20 c:/program files (x86)/microchip/mplab c32 suite/bin/../lib/gcc/pic32mx/4.5.1/../../../../pic32mx/lib/size\libc.a(strncmp.o)
 .debug_aranges
                0x000006d8       0x20 c:/program files (x86)/microchip/mplab c32 suite/bin/../lib/gcc/pic32mx/4.5.1/../../../../pic32mx/lib/size\libmchp_peripheral.a(read_core_timer_lib.o)
 .debug_aranges
                0x000006f8       0x48 c:/program files (x86)/microchip/mplab c32 suite/bin/../lib/gcc/pic32mx/4.5.1/../../../../pic32mx/lib/size\libmchp_peripheral_32MX795F512L.a(eth_ack_packet_lib.o)
 .debug_aranges
                0x00000740       0x28 c:/program files (x86)/microchip/mplab c32 suite/bin/../lib/gcc/pic32mx/4.5.1/../../../../pic32mx/lib/size\libmchp_peripheral_32MX795F512L.a(eth_descriptors_add_lib.o)
 .debug_aranges
                0x00000768       0x20 c:/program files (x86)/microchip/mplab c32 suite/bin/../lib/gcc/pic32mx/4.5.1/../../../../pic32mx/lib/size\libmchp_peripheral_32MX795F512L.a(eth_init_lib.o)
 .debug_aranges
                0x00000788       0x20 c:/program files (x86)/microchip/mplab c32 suite/bin/../lib/gcc/pic32mx/4.5.1/../../../../pic32mx/lib/size\libmchp_peripheral_32MX795F512L.a(eth_mac_open_lib.o)
 .debug_aranges
                0x000007a8       0x30 c:/program files (x86)/microchip/mplab c32 suite/bin/../lib/gcc/pic32mx/4.5.1/../../../../pic32mx/lib/size\libmchp_peripheral_32MX795F512L.a(eth_mac_set_address_max_lib.o)
 .debug_aranges
                0x000007d8       0x20 c:/program files (x86)/microchip/mplab c32 suite/bin/../lib/gcc/pic32mx/4.5.1/../../../../pic32mx/lib/size\libmchp_peripheral_32MX795F512L.a(eth_rx_buffers_append_lib.o)
 .debug_aranges
                0x000007f8       0x48 c:/program files (x86)/microchip/mplab c32 suite/bin/../lib/gcc/pic32mx/4.5.1/../../../../pic32mx/lib/size\libmchp_peripheral_32MX795F512L.a(eth_rx_filters_lib.o)
 .debug_aranges
                0x00000840       0x28 c:/program files (x86)/microchip/mplab c32 suite/bin/../lib/gcc/pic32mx/4.5.1/../../../../pic32mx/lib/size\libmchp_peripheral_32MX795F512L.a(eth_rx_get_packet_lib.o)
 .debug_aranges
                0x00000868       0x20 c:/program files (x86)/microchip/mplab c32 suite/bin/../lib/gcc/pic32mx/4.5.1/../../../../pic32mx/lib/size\libmchp_peripheral_32MX795F512L.a(eth_rx_set_buffer_size_lib.o)
 .debug_aranges
                0x00000888       0x48 c:/program files (x86)/microchip/mplab c32 suite/bin/../lib/gcc/pic32mx/4.5.1/../../../../pic32mx/lib/size\libmchp_peripheral_32MX795F512L.a(eth_tx_packet_lib.o)
 .debug_aranges
                0x000008d0       0x20 c:/program files (x86)/microchip/mplab c32 suite/bin/../lib/gcc/pic32mx/4.5.1/../../../../pic32mx/lib/size\libmchp_peripheral_32MX795F512L.a(_eth_append_busy_list_lib.o)
 .debug_aranges
                0x000008f0       0x48 c:/program files (x86)/microchip/mplab c32 suite/bin/../lib/gcc/pic32mx/4.5.1/../../../../pic32mx/lib/size\libmchp_peripheral_32MX795F512L.a(eth_miim_access.o)
 .debug_aranges
                0x00000938       0x20 c:/program files (x86)/microchip/mplab c32 suite/bin/../lib/gcc/pic32mx/4.5.1/../../../../pic32mx/lib/size\libmchp_peripheral_32MX795F512L.a(soft_reset_lib.o)
 .debug_aranges
                0x00000958       0x28 c:/program files (x86)/microchip/mplab c32 suite/bin/../lib/gcc/pic32mx/4.5.1/../../../../pic32mx/lib/size\libmchp_peripheral_32MX795F512L.a(pcache.o)
 .debug_aranges
                0x00000980       0x20 c:/program files (x86)/microchip/mplab c32 suite/bin/../lib/gcc/pic32mx/4.5.1/../../../../pic32mx/lib/size\libmchp_peripheral_32MX795F512L.a(int_disable_interrupts_lib.o)
 .debug_aranges
                0x000009a0       0x20 c:/program files (x86)/microchip/mplab c32 suite/bin/../lib/gcc/pic32mx/4.5.1/../../../../pic32mx/lib/size\libmchp_peripheral_32MX795F512L.a(int_restore_interrupts_lib.o)
 .debug_aranges
                0x000009c0       0x20 c:/program files (x86)/microchip/mplab c32 suite/bin/../lib/gcc/pic32mx/4.5.1/../../../../pic32mx/lib/size\libmchp_peripheral_32MX795F512L.a(int_enable_mv_int_lib.o)
 .debug_aranges
                0x000009e0       0x60 c:/program files (x86)/microchip/mplab c32 suite/bin/../lib/gcc/pic32mx/4.5.1/../../../../pic32mx/lib/size\libmchp_peripheral_32MX795F512L.a(int_tbl_lib.o)
 .debug_aranges
                0x00000a40       0x20 c:/program files (x86)/microchip/mplab c32 suite/bin/../lib/gcc/pic32mx/4.5.1/../../../../pic32mx/lib/size\libmchp_peripheral_32MX795F512L.a(port_set_pins_digital_in_lib.o)
 .debug_aranges
                0x00000a60       0x20 c:/program files (x86)/microchip/mplab c32 suite/bin/../lib/gcc/pic32mx/4.5.1/../../../../pic32mx/lib/size\libmchp_peripheral_32MX795F512L.a(port_set_pins_digital_out_lib.o)
 .debug_aranges
                0x00000a80       0x58 c:/program files (x86)/microchip/mplab c32 suite/bin/../lib/gcc/pic32mx/4.5.1/../../../../pic32mx/lib/size\libmchp_peripheral_32MX795F512L.a(uart_lib.o)
 .debug_aranges
                0x00000ad8       0x20 c:/program files (x86)/microchip/mplab c32 suite/bin/../lib/gcc/pic32mx/4.5.1/../../../../pic32mx/lib/size\libmchp_peripheral_32MX795F512L.a(int_enable_interrupts_lib.o)

.debug_pubnames
                0x00000000     0x200f
 *(.debug_pubnames)
 .debug_pubnames
                0x00000000       0x69 Objects - TCPIP PIC32 ETH Demo App-C32\MainDemo.o
 .debug_pubnames
                0x00000069      0x3a2 Objects - TCPIP PIC32 ETH Demo App-C32\CustomHTTPApp.o
 .debug_pubnames
                0x0000040b       0x33 Objects - TCPIP PIC32 ETH Demo App-C32\Announce.o
 .debug_pubnames
                0x0000043e       0x6f Objects - TCPIP PIC32 ETH Demo App-C32\ARP.o
 .debug_pubnames
                0x000004ad       0x2c Objects - TCPIP PIC32 ETH Demo App-C32\Delay.o
 .debug_pubnames
                0x000004d9       0xb9 Objects - TCPIP PIC32 ETH Demo App-C32\DHCP.o
 .debug_pubnames
                0x00000592       0x3c Objects - TCPIP PIC32 ETH Demo App-C32\DHCPs.o
 .debug_pubnames
                0x000005ce       0x55 Objects - TCPIP PIC32 ETH Demo App-C32\DNS.o
 .debug_pubnames
                0x00000623       0x9f Objects - TCPIP PIC32 ETH Demo App-C32\DynDNS.o
 .debug_pubnames
                0x000006c2       0x62 Objects - TCPIP PIC32 ETH Demo App-C32\Hashes.o
 .debug_pubnames
                0x00000724      0x12c Objects - TCPIP PIC32 ETH Demo App-C32\Helpers.o
 .debug_pubnames
                0x00000850       0xcf Objects - TCPIP PIC32 ETH Demo App-C32\HTTP2.o
 .debug_pubnames
                0x0000091f       0x7f Objects - TCPIP PIC32 ETH Demo App-C32\ICMP.o
 .debug_pubnames
                0x0000099e       0x44 Objects - TCPIP PIC32 ETH Demo App-C32\IP.o
 .debug_pubnames
                0x000009e2      0x140 Objects - TCPIP PIC32 ETH Demo App-C32\MPFS2.o
 .debug_pubnames
                0x00000b22       0x1f Objects - TCPIP PIC32 ETH Demo App-C32\NBNS.o
 .debug_pubnames
                0x00000b41       0x21 Objects - TCPIP PIC32 ETH Demo App-C32\Reboot.o
 .debug_pubnames
                0x00000b62       0xd2 Objects - TCPIP PIC32 ETH Demo App-C32\SMTP.o
 .debug_pubnames
                0x00000c34       0x37 Objects - TCPIP PIC32 ETH Demo App-C32\SNTP.o
 .debug_pubnames
                0x00000c6b       0x53 Objects - TCPIP PIC32 ETH Demo App-C32\StackTsk.o
 .debug_pubnames
                0x00000cbe      0x1ba Objects - TCPIP PIC32 ETH Demo App-C32\TCP.o
 .debug_pubnames
                0x00000e78       0x5b Objects - TCPIP PIC32 ETH Demo App-C32\TCPPerformanceTest.o
 .debug_pubnames
                0x00000ed3       0x21 Objects - TCPIP PIC32 ETH Demo App-C32\Telnet.o
 .debug_pubnames
                0x00000ef4       0x7e Objects - TCPIP PIC32 ETH Demo App-C32\Tick.o
 .debug_pubnames
                0x00000f72      0x155 Objects - TCPIP PIC32 ETH Demo App-C32\UDP.o
 .debug_pubnames
                0x000010c7       0x23 Objects - TCPIP PIC32 ETH Demo App-C32\UARTConfig.o
 .debug_pubnames
                0x000010ea       0x27 Objects - TCPIP PIC32 ETH Demo App-C32\GenericTCPClient.o
 .debug_pubnames
                0x00001111       0x27 Objects - TCPIP PIC32 ETH Demo App-C32\GenericTCPServer.o
 .debug_pubnames
                0x00001138       0x1f Objects - TCPIP PIC32 ETH Demo App-C32\PingDemo.o
 .debug_pubnames
                0x00001157       0x1f Objects - TCPIP PIC32 ETH Demo App-C32\SMTPDemo.o
 .debug_pubnames
                0x00001176       0xa9 Objects - TCPIP PIC32 ETH Demo App-C32\BerkeleyAPI.o
 .debug_pubnames
                0x0000121f       0x4a Objects - TCPIP PIC32 ETH Demo App-C32\BerkeleyUDPClientDemo.o
 .debug_pubnames
                0x00001269       0x2c Objects - TCPIP PIC32 ETH Demo App-C32\BerkeleyTCPClientDemo.o
 .debug_pubnames
                0x00001295       0x2c Objects - TCPIP PIC32 ETH Demo App-C32\BerkeleyTCPServerDemo.o
 .debug_pubnames
                0x000012c1       0x21 Objects - TCPIP PIC32 ETH Demo App-C32\MPFSImg2.o
 .debug_pubnames
                0x000012e2       0xd2 Objects - TCPIP PIC32 ETH Demo App-C32\AutoIP.o
 .debug_pubnames
                0x000013b4      0x213 Objects - TCPIP PIC32 ETH Demo App-C32\ETHPIC32IntMac.o
 .debug_pubnames
                0x000015c7      0x110 Objects - TCPIP PIC32 ETH Demo App-C32\ETHPIC32ExtPhy.o
 .debug_pubnames
                0x000016d7       0x6b Objects - TCPIP PIC32 ETH Demo App-C32\ETHPIC32ExtPhyDP83848.o
 .debug_pubnames
                0x00001742       0x25 Objects - TCPIP PIC32 ETH Demo App-C32\UART.o
 .debug_pubnames
                0x00001767       0x20 c:/program files (x86)/microchip/mplab c32 suite/bin/../lib/gcc/pic32mx/4.5.1/size\libgcc.a(_udivdi3.o)
 .debug_pubnames
                0x00001787       0x1b c:/program files (x86)/microchip/mplab c32 suite/bin/../lib/gcc/pic32mx/4.5.1/../../../../pic32mx/lib/size\libc.a(atoi.o)
 .debug_pubnames
                0x000017a2       0x1b c:/program files (x86)/microchip/mplab c32 suite/bin/../lib/gcc/pic32mx/4.5.1/../../../../pic32mx/lib/size\libc.a(atol.o)
 .debug_pubnames
                0x000017bd       0x1d c:/program files (x86)/microchip/mplab c32 suite/bin/../lib/gcc/pic32mx/4.5.1/../../../../pic32mx/lib/size\libc.a(calloc.o)
 .debug_pubnames
                0x000017da       0x25 c:/program files (x86)/microchip/mplab c32 suite/bin/../lib/gcc/pic32mx/4.5.1/../../../../pic32mx/lib/size\libc.a(ltoa.o)
 .debug_pubnames
                0x000017ff       0x32 c:/program files (x86)/microchip/mplab c32 suite/bin/../lib/gcc/pic32mx/4.5.1/../../../../pic32mx/lib/size\libc.a(malloc.o)
 .debug_pubnames
                0x00001831       0x1d c:/program files (x86)/microchip/mplab c32 suite/bin/../lib/gcc/pic32mx/4.5.1/../../../../pic32mx/lib/size\libc.a(strchr.o)
 .debug_pubnames
                0x0000184e       0x1e c:/program files (x86)/microchip/mplab c32 suite/bin/../lib/gcc/pic32mx/4.5.1/../../../../pic32mx/lib/size\libc.a(strncpy.o)
 .debug_pubnames
                0x0000186c       0x1d c:/program files (x86)/microchip/mplab c32 suite/bin/../lib/gcc/pic32mx/4.5.1/../../../../pic32mx/lib/size\libc.a(strstr.o)
 .debug_pubnames
                0x00001889       0x5c c:/program files (x86)/microchip/mplab c32 suite/bin/../lib/gcc/pic32mx/4.5.1/../../../../pic32mx/lib/size\libc.a(sbrk.o)
 .debug_pubnames
                0x000018e5       0x33 c:/program files (x86)/microchip/mplab c32 suite/bin/../lib/gcc/pic32mx/4.5.1/../../../../pic32mx/lib/size\libc.a(default-bootstrap-exception-handler.o)
 .debug_pubnames
                0x00001918       0x20 c:/program files (x86)/microchip/mplab c32 suite/bin/../lib/gcc/pic32mx/4.5.1/../../../../pic32mx/lib/size\libc.a(default-on-reset.o)
 .debug_pubnames
                0x00001938       0x24 c:/program files (x86)/microchip/mplab c32 suite/bin/../lib/gcc/pic32mx/4.5.1/../../../../pic32mx/lib/size\libc.a(default-on-bootstrap.o)
 .debug_pubnames
                0x0000195c       0x1e c:/program files (x86)/microchip/mplab c32 suite/bin/../lib/gcc/pic32mx/4.5.1/../../../../pic32mx/lib/size\libc.a(strncmp.o)
 .debug_pubnames
                0x0000197a       0x24 c:/program files (x86)/microchip/mplab c32 suite/bin/../lib/gcc/pic32mx/4.5.1/../../../../pic32mx/lib/size\libmchp_peripheral.a(read_core_timer_lib.o)
 .debug_pubnames
                0x0000199e       0x80 c:/program files (x86)/microchip/mplab c32 suite/bin/../lib/gcc/pic32mx/4.5.1/../../../../pic32mx/lib/size\libmchp_peripheral_32MX795F512L.a(eth_ack_packet_lib.o)
 .debug_pubnames
                0x00001a1e       0x42 c:/program files (x86)/microchip/mplab c32 suite/bin/../lib/gcc/pic32mx/4.5.1/../../../../pic32mx/lib/size\libmchp_peripheral_32MX795F512L.a(eth_descriptors_add_lib.o)
 .debug_pubnames
                0x00001a60       0x1e c:/program files (x86)/microchip/mplab c32 suite/bin/../lib/gcc/pic32mx/4.5.1/../../../../pic32mx/lib/size\libmchp_peripheral_32MX795F512L.a(eth_init_lib.o)
 .debug_pubnames
                0x00001a7e       0x21 c:/program files (x86)/microchip/mplab c32 suite/bin/../lib/gcc/pic32mx/4.5.1/../../../../pic32mx/lib/size\libmchp_peripheral_32MX795F512L.a(eth_mac_open_lib.o)
 .debug_pubnames
                0x00001a9f       0x52 c:/program files (x86)/microchip/mplab c32 suite/bin/../lib/gcc/pic32mx/4.5.1/../../../../pic32mx/lib/size\libmchp_peripheral_32MX795F512L.a(eth_mac_set_address_max_lib.o)
 .debug_pubnames
                0x00001af1       0x29 c:/program files (x86)/microchip/mplab c32 suite/bin/../lib/gcc/pic32mx/4.5.1/../../../../pic32mx/lib/size\libmchp_peripheral_32MX795F512L.a(eth_rx_buffers_append_lib.o)
 .debug_pubnames
                0x00001b1a       0x92 c:/program files (x86)/microchip/mplab c32 suite/bin/../lib/gcc/pic32mx/4.5.1/../../../../pic32mx/lib/size\libmchp_peripheral_32MX795F512L.a(eth_rx_filters_lib.o)
 .debug_pubnames
                0x00001bac       0x38 c:/program files (x86)/microchip/mplab c32 suite/bin/../lib/gcc/pic32mx/4.5.1/../../../../pic32mx/lib/size\libmchp_peripheral_32MX795F512L.a(eth_rx_get_packet_lib.o)
 .debug_pubnames
                0x00001be4       0x29 c:/program files (x86)/microchip/mplab c32 suite/bin/../lib/gcc/pic32mx/4.5.1/../../../../pic32mx/lib/size\libmchp_peripheral_32MX795F512L.a(eth_rx_set_buffer_size_lib.o)
 .debug_pubnames
                0x00001c0d       0x66 c:/program files (x86)/microchip/mplab c32 suite/bin/../lib/gcc/pic32mx/4.5.1/../../../../pic32mx/lib/size\libmchp_peripheral_32MX795F512L.a(eth_tx_packet_lib.o)
 .debug_pubnames
                0x00001c73       0x29 c:/program files (x86)/microchip/mplab c32 suite/bin/../lib/gcc/pic32mx/4.5.1/../../../../pic32mx/lib/size\libmchp_peripheral_32MX795F512L.a(_eth_append_busy_list_lib.o)
 .debug_pubnames
                0x00001c9c       0x90 c:/program files (x86)/microchip/mplab c32 suite/bin/../lib/gcc/pic32mx/4.5.1/../../../../pic32mx/lib/size\libmchp_peripheral_32MX795F512L.a(eth_miim_access.o)
 .debug_pubnames
                0x00001d2c       0x20 c:/program files (x86)/microchip/mplab c32 suite/bin/../lib/gcc/pic32mx/4.5.1/../../../../pic32mx/lib/size\libmchp_peripheral_32MX795F512L.a(soft_reset_lib.o)
 .debug_pubnames
                0x00001d4c       0x3b c:/program files (x86)/microchip/mplab c32 suite/bin/../lib/gcc/pic32mx/4.5.1/../../../../pic32mx/lib/size\libmchp_peripheral_32MX795F512L.a(pcache.o)
 .debug_pubnames
                0x00001d87       0x2b c:/program files (x86)/microchip/mplab c32 suite/bin/../lib/gcc/pic32mx/4.5.1/../../../../pic32mx/lib/size\libmchp_peripheral_32MX795F512L.a(int_disable_interrupts_lib.o)
 .debug_pubnames
                0x00001db2       0x2b c:/program files (x86)/microchip/mplab c32 suite/bin/../lib/gcc/pic32mx/4.5.1/../../../../pic32mx/lib/size\libmchp_peripheral_32MX795F512L.a(int_restore_interrupts_lib.o)
 .debug_pubnames
                0x00001ddd       0x36 c:/program files (x86)/microchip/mplab c32 suite/bin/../lib/gcc/pic32mx/4.5.1/../../../../pic32mx/lib/size\libmchp_peripheral_32MX795F512L.a(int_enable_mv_int_lib.o)
 .debug_pubnames
                0x00001e13       0xca c:/program files (x86)/microchip/mplab c32 suite/bin/../lib/gcc/pic32mx/4.5.1/../../../../pic32mx/lib/size\libmchp_peripheral_32MX795F512L.a(int_tbl_lib.o)
 .debug_pubnames
                0x00001edd       0x2b c:/program files (x86)/microchip/mplab c32 suite/bin/../lib/gcc/pic32mx/4.5.1/../../../../pic32mx/lib/size\libmchp_peripheral_32MX795F512L.a(port_set_pins_digital_in_lib.o)
 .debug_pubnames
                0x00001f08       0x2c c:/program files (x86)/microchip/mplab c32 suite/bin/../lib/gcc/pic32mx/4.5.1/../../../../pic32mx/lib/size\libmchp_peripheral_32MX795F512L.a(port_set_pins_digital_out_lib.o)
 .debug_pubnames
                0x00001f34       0xb1 c:/program files (x86)/microchip/mplab c32 suite/bin/../lib/gcc/pic32mx/4.5.1/../../../../pic32mx/lib/size\libmchp_peripheral_32MX795F512L.a(uart_lib.o)
 .debug_pubnames
                0x00001fe5       0x2a c:/program files (x86)/microchip/mplab c32 suite/bin/../lib/gcc/pic32mx/4.5.1/../../../../pic32mx/lib/size\libmchp_peripheral_32MX795F512L.a(int_enable_interrupts_lib.o)

.debug_info     0x00000000    0x62fc2
 *(.debug_info .gnu.linkonce.wi.*)
 .debug_info    0x00000000     0x31a8 Objects - TCPIP PIC32 ETH Demo App-C32\MainDemo.o
 .debug_info    0x000031a8     0x31e8 Objects - TCPIP PIC32 ETH Demo App-C32\CustomHTTPApp.o
 .debug_info    0x00006390     0x1180 Objects - TCPIP PIC32 ETH Demo App-C32\UDPPerformanceTest.o
 .debug_info    0x00007510     0x1b6d Objects - TCPIP PIC32 ETH Demo App-C32\Announce.o
 .debug_info    0x0000907d     0x1bab Objects - TCPIP PIC32 ETH Demo App-C32\ARP.o
 .debug_info    0x0000ac28     0x1208 Objects - TCPIP PIC32 ETH Demo App-C32\Delay.o
 .debug_info    0x0000be30     0x2128 Objects - TCPIP PIC32 ETH Demo App-C32\DHCP.o
 .debug_info    0x0000df58     0x1db9 Objects - TCPIP PIC32 ETH Demo App-C32\DHCPs.o
 .debug_info    0x0000fd11     0x1dbf Objects - TCPIP PIC32 ETH Demo App-C32\DNS.o
 .debug_info    0x00011ad0     0x1f54 Objects - TCPIP PIC32 ETH Demo App-C32\DynDNS.o
 .debug_info    0x00013a24     0x1176 Objects - TCPIP PIC32 ETH Demo App-C32\ENC28J60.o
 .debug_info    0x00014b9a     0x1171 Objects - TCPIP PIC32 ETH Demo App-C32\FTP.o
 .debug_info    0x00015d0b     0x1544 Objects - TCPIP PIC32 ETH Demo App-C32\Hashes.o
 .debug_info    0x0001724f     0x1e26 Objects - TCPIP PIC32 ETH Demo App-C32\Helpers.o
 .debug_info    0x00019075     0x233e Objects - TCPIP PIC32 ETH Demo App-C32\HTTP2.o
 .debug_info    0x0001b3b3     0x1172 Objects - TCPIP PIC32 ETH Demo App-C32\HTTP.o
 .debug_info    0x0001c525     0x1b03 Objects - TCPIP PIC32 ETH Demo App-C32\ICMP.o
 .debug_info    0x0001e028     0x1b50 Objects - TCPIP PIC32 ETH Demo App-C32\IP.o
 .debug_info    0x0001fb78     0x1179 Objects - TCPIP PIC32 ETH Demo App-C32\LCDBlocking.o
 .debug_info    0x00020cf1     0x192a Objects - TCPIP PIC32 ETH Demo App-C32\MPFS2.o
 .debug_info    0x0002261b     0x1172 Objects - TCPIP PIC32 ETH Demo App-C32\MPFS.o
 .debug_info    0x0002378d     0x1ca4 Objects - TCPIP PIC32 ETH Demo App-C32\NBNS.o
 .debug_info    0x00025431     0x1a6b Objects - TCPIP PIC32 ETH Demo App-C32\Reboot.o
 .debug_info    0x00026e9c     0x2475 Objects - TCPIP PIC32 ETH Demo App-C32\SMTP.o
 .debug_info    0x00029311     0x1172 Objects - TCPIP PIC32 ETH Demo App-C32\SNMP.o
 .debug_info    0x0002a483     0x14f4 Objects - TCPIP PIC32 ETH Demo App-C32\SNTP.o
 .debug_info    0x0002b977     0x1177 Objects - TCPIP PIC32 ETH Demo App-C32\SPIEEPROM.o
 .debug_info    0x0002caee     0x1176 Objects - TCPIP PIC32 ETH Demo App-C32\SPIFlash.o
 .debug_info    0x0002dc64     0x1174 Objects - TCPIP PIC32 ETH Demo App-C32\SPIRAM.o
 .debug_info    0x0002edd8     0x1a5f Objects - TCPIP PIC32 ETH Demo App-C32\StackTsk.o
 .debug_info    0x00030837     0x3209 Objects - TCPIP PIC32 ETH Demo App-C32\TCP.o
 .debug_info    0x00033a40     0x1896 Objects - TCPIP PIC32 ETH Demo App-C32\TCPPerformanceTest.o
 .debug_info    0x000352d6     0x1858 Objects - TCPIP PIC32 ETH Demo App-C32\Telnet.o
 .debug_info    0x00036b2e     0x1173 Objects - TCPIP PIC32 ETH Demo App-C32\TFTPc.o
 .debug_info    0x00037ca1     0x1ae9 Objects - TCPIP PIC32 ETH Demo App-C32\Tick.o
 .debug_info    0x0003978a     0x117c Objects - TCPIP PIC32 ETH Demo App-C32\UART2TCPBridge.o
 .debug_info    0x0003a906     0x221b Objects - TCPIP PIC32 ETH Demo App-C32\UDP.o
 .debug_info    0x0003cb21     0x1162 Objects - TCPIP PIC32 ETH Demo App-C32\CustomSNMPApp.o
 .debug_info    0x0003dc83     0x25d3 Objects - TCPIP PIC32 ETH Demo App-C32\UARTConfig.o
 .debug_info    0x00040256     0x16b9 Objects - TCPIP PIC32 ETH Demo App-C32\GenericTCPClient.o
 .debug_info    0x0004190f     0x129f Objects - TCPIP PIC32 ETH Demo App-C32\GenericTCPServer.o
 .debug_info    0x00042bae     0x1162 Objects - TCPIP PIC32 ETH Demo App-C32\LegacyHTTPApp.o
 .debug_info    0x00043d10     0x13b5 Objects - TCPIP PIC32 ETH Demo App-C32\PingDemo.o
 .debug_info    0x000450c5     0x18d9 Objects - TCPIP PIC32 ETH Demo App-C32\SMTPDemo.o
 .debug_info    0x0004699e     0x24a6 Objects - TCPIP PIC32 ETH Demo App-C32\BerkeleyAPI.o
 .debug_info    0x00048e44     0x1bb4 Objects - TCPIP PIC32 ETH Demo App-C32\BerkeleyUDPClientDemo.o
 .debug_info    0x0004a9f8     0x1e1f Objects - TCPIP PIC32 ETH Demo App-C32\BerkeleyTCPClientDemo.o
 .debug_info    0x0004c817     0x1465 Objects - TCPIP PIC32 ETH Demo App-C32\BerkeleyTCPServerDemo.o
 .debug_info    0x0004dc7c     0x1178 Objects - TCPIP PIC32 ETH Demo App-C32\ENCX24J600.o
 .debug_info    0x0004edf4     0x119a Objects - TCPIP PIC32 ETH Demo App-C32\MPFSImg2.o
 .debug_info    0x0004ff8e     0x1174 Objects - TCPIP PIC32 ETH Demo App-C32\Random.o
 .debug_info    0x00051102     0x1171 Objects - TCPIP PIC32 ETH Demo App-C32\RSA.o
 .debug_info    0x00052273     0x1171 Objects - TCPIP PIC32 ETH Demo App-C32\SSL.o
 .debug_info    0x000533e4     0x1175 Objects - TCPIP PIC32 ETH Demo App-C32\ARCFOUR.o
 .debug_info    0x00054559     0x1174 Objects - TCPIP PIC32 ETH Demo App-C32\BigInt.o
 .debug_info    0x000556cd     0x1162 Objects - TCPIP PIC32 ETH Demo App-C32\CustomSSLCert.o
 .debug_info    0x0005682f     0x1e7c Objects - TCPIP PIC32 ETH Demo App-C32\AutoIP.o
 .debug_info    0x000586ab     0x2d2a Objects - TCPIP PIC32 ETH Demo App-C32\ETHPIC32IntMac.o
 .debug_info    0x0005b3d5     0x2736 Objects - TCPIP PIC32 ETH Demo App-C32\ETHPIC32ExtPhy.o
 .debug_info    0x0005db0b     0x16b7 Objects - TCPIP PIC32 ETH Demo App-C32\ETHPIC32ExtPhyDP83848.o
 .debug_info    0x0005f1c2     0x13a0 Objects - TCPIP PIC32 ETH Demo App-C32\UART.o
 .debug_info    0x00060562      0x78b c:/program files (x86)/microchip/mplab c32 suite/bin/../lib/gcc/pic32mx/4.5.1/size\libgcc.a(_udivdi3.o)
 .debug_info    0x00060ced       0xcd c:/program files (x86)/microchip/mplab c32 suite/bin/../lib/gcc/pic32mx/4.5.1/../../../../pic32mx/lib/size\libc.a(atoi.o)
 .debug_info    0x00060dba       0xcd c:/program files (x86)/microchip/mplab c32 suite/bin/../lib/gcc/pic32mx/4.5.1/../../../../pic32mx/lib/size\libc.a(atol.o)
 .debug_info    0x00060e87       0xd1 c:/program files (x86)/microchip/mplab c32 suite/bin/../lib/gcc/pic32mx/4.5.1/../../../../pic32mx/lib/size\libc.a(calloc.o)
 .debug_info    0x00060f58        0x0 c:/program files (x86)/microchip/mplab c32 suite/bin/../lib/gcc/pic32mx/4.5.1/../../../../pic32mx/lib/size\libc.a(ctype.o)
 .debug_info    0x00060f58       0xe1 c:/program files (x86)/microchip/mplab c32 suite/bin/../lib/gcc/pic32mx/4.5.1/../../../../pic32mx/lib/size\libc.a(ltoa.o)
 .debug_info    0x00061039       0xfa c:/program files (x86)/microchip/mplab c32 suite/bin/../lib/gcc/pic32mx/4.5.1/../../../../pic32mx/lib/size\libc.a(malloc.o)
 .debug_info    0x00061133       0xd1 c:/program files (x86)/microchip/mplab c32 suite/bin/../lib/gcc/pic32mx/4.5.1/../../../../pic32mx/lib/size\libc.a(strchr.o)
 .debug_info    0x00061204       0xd3 c:/program files (x86)/microchip/mplab c32 suite/bin/../lib/gcc/pic32mx/4.5.1/../../../../pic32mx/lib/size\libc.a(strncpy.o)
 .debug_info    0x000612d7       0xd1 c:/program files (x86)/microchip/mplab c32 suite/bin/../lib/gcc/pic32mx/4.5.1/../../../../pic32mx/lib/size\libc.a(strstr.o)
 .debug_info    0x000613a8      0x139 c:/program files (x86)/microchip/mplab c32 suite/bin/../lib/gcc/pic32mx/4.5.1/../../../../pic32mx/lib/size\libc.a(sbrk.o)
 .debug_info    0x000614e1      0x106 c:/program files (x86)/microchip/mplab c32 suite/bin/../lib/gcc/pic32mx/4.5.1/../../../../pic32mx/lib/size\libc.a(default-bootstrap-exception-handler.o)
 .debug_info    0x000615e7       0xe0 c:/program files (x86)/microchip/mplab c32 suite/bin/../lib/gcc/pic32mx/4.5.1/../../../../pic32mx/lib/size\libc.a(default-on-reset.o)
 .debug_info    0x000616c7       0xe8 c:/program files (x86)/microchip/mplab c32 suite/bin/../lib/gcc/pic32mx/4.5.1/../../../../pic32mx/lib/size\libc.a(default-on-bootstrap.o)
 .debug_info    0x000617af        0x0 c:/program files (x86)/microchip/mplab c32 suite/bin/../lib/gcc/pic32mx/4.5.1/../../../../pic32mx/lib/size\libc.a(errno.o)
 .debug_info    0x000617af       0xd3 c:/program files (x86)/microchip/mplab c32 suite/bin/../lib/gcc/pic32mx/4.5.1/../../../../pic32mx/lib/size\libc.a(strncmp.o)
 .debug_info    0x00061882       0xbf c:/program files (x86)/microchip/mplab c32 suite/bin/../lib/gcc/pic32mx/4.5.1/../../../../pic32mx/lib/size\libmchp_peripheral.a(read_core_timer_lib.o)
 .debug_info    0x00061941      0x180 c:/program files (x86)/microchip/mplab c32 suite/bin/../lib/gcc/pic32mx/4.5.1/../../../../pic32mx/lib/size\libmchp_peripheral_32MX795F512L.a(eth_ack_packet_lib.o)
 .debug_info    0x00061ac1      0x107 c:/program files (x86)/microchip/mplab c32 suite/bin/../lib/gcc/pic32mx/4.5.1/../../../../pic32mx/lib/size\libmchp_peripheral_32MX795F512L.a(eth_descriptors_add_lib.o)
 .debug_info    0x00061bc8       0xd3 c:/program files (x86)/microchip/mplab c32 suite/bin/../lib/gcc/pic32mx/4.5.1/../../../../pic32mx/lib/size\libmchp_peripheral_32MX795F512L.a(eth_init_lib.o)
 .debug_info    0x00061c9b       0xb7 c:/program files (x86)/microchip/mplab c32 suite/bin/../lib/gcc/pic32mx/4.5.1/../../../../pic32mx/lib/size\libmchp_peripheral_32MX795F512L.a(eth_mac_open_lib.o)
 .debug_info    0x00061d52      0x107 c:/program files (x86)/microchip/mplab c32 suite/bin/../lib/gcc/pic32mx/4.5.1/../../../../pic32mx/lib/size\libmchp_peripheral_32MX795F512L.a(eth_mac_set_address_max_lib.o)
 .debug_info    0x00061e59       0xfb c:/program files (x86)/microchip/mplab c32 suite/bin/../lib/gcc/pic32mx/4.5.1/../../../../pic32mx/lib/size\libmchp_peripheral_32MX795F512L.a(eth_rx_buffers_append_lib.o)
 .debug_info    0x00061f54      0x15c c:/program files (x86)/microchip/mplab c32 suite/bin/../lib/gcc/pic32mx/4.5.1/../../../../pic32mx/lib/size\libmchp_peripheral_32MX795F512L.a(eth_rx_filters_lib.o)
 .debug_info    0x000620b0       0xdd c:/program files (x86)/microchip/mplab c32 suite/bin/../lib/gcc/pic32mx/4.5.1/../../../../pic32mx/lib/size\libmchp_peripheral_32MX795F512L.a(eth_rx_get_packet_lib.o)
 .debug_info    0x0006218d       0xc9 c:/program files (x86)/microchip/mplab c32 suite/bin/../lib/gcc/pic32mx/4.5.1/../../../../pic32mx/lib/size\libmchp_peripheral_32MX795F512L.a(eth_rx_set_buffer_size_lib.o)
 .debug_info    0x00062256      0x18b c:/program files (x86)/microchip/mplab c32 suite/bin/../lib/gcc/pic32mx/4.5.1/../../../../pic32mx/lib/size\libmchp_peripheral_32MX795F512L.a(eth_tx_packet_lib.o)
 .debug_info    0x000623e1       0xe9 c:/program files (x86)/microchip/mplab c32 suite/bin/../lib/gcc/pic32mx/4.5.1/../../../../pic32mx/lib/size\libmchp_peripheral_32MX795F512L.a(_eth_append_busy_list_lib.o)
 .debug_info    0x000624ca      0x158 c:/program files (x86)/microchip/mplab c32 suite/bin/../lib/gcc/pic32mx/4.5.1/../../../../pic32mx/lib/size\libmchp_peripheral_32MX795F512L.a(eth_miim_access.o)
 .debug_info    0x00062622       0xc7 c:/program files (x86)/microchip/mplab c32 suite/bin/../lib/gcc/pic32mx/4.5.1/../../../../pic32mx/lib/size\libmchp_peripheral_32MX795F512L.a(soft_reset_lib.o)
 .debug_info    0x000626e9       0xd4 c:/program files (x86)/microchip/mplab c32 suite/bin/../lib/gcc/pic32mx/4.5.1/../../../../pic32mx/lib/size\libmchp_peripheral_32MX795F512L.a(pcache.o)
 .debug_info    0x000627bd       0xcb c:/program files (x86)/microchip/mplab c32 suite/bin/../lib/gcc/pic32mx/4.5.1/../../../../pic32mx/lib/size\libmchp_peripheral_32MX795F512L.a(int_disable_interrupts_lib.o)
 .debug_info    0x00062888       0xcb c:/program files (x86)/microchip/mplab c32 suite/bin/../lib/gcc/pic32mx/4.5.1/../../../../pic32mx/lib/size\libmchp_peripheral_32MX795F512L.a(int_restore_interrupts_lib.o)
 .debug_info    0x00062953       0xd1 c:/program files (x86)/microchip/mplab c32 suite/bin/../lib/gcc/pic32mx/4.5.1/../../../../pic32mx/lib/size\libmchp_peripheral_32MX795F512L.a(int_enable_mv_int_lib.o)
 .debug_info    0x00062a24      0x1ab c:/program files (x86)/microchip/mplab c32 suite/bin/../lib/gcc/pic32mx/4.5.1/../../../../pic32mx/lib/size\libmchp_peripheral_32MX795F512L.a(int_tbl_lib.o)
 .debug_info    0x00062bcf       0xcf c:/program files (x86)/microchip/mplab c32 suite/bin/../lib/gcc/pic32mx/4.5.1/../../../../pic32mx/lib/size\libmchp_peripheral_32MX795F512L.a(port_set_pins_digital_in_lib.o)
 .debug_info    0x00062c9e       0xd1 c:/program files (x86)/microchip/mplab c32 suite/bin/../lib/gcc/pic32mx/4.5.1/../../../../pic32mx/lib/size\libmchp_peripheral_32MX795F512L.a(port_set_pins_digital_out_lib.o)
 .debug_info    0x00062d6f        0x0 c:/program files (x86)/microchip/mplab c32 suite/bin/../lib/gcc/pic32mx/4.5.1/../../../../pic32mx/lib/size\libmchp_peripheral_32MX795F512L.a(_ports_tbl_libp.o)
 .debug_info    0x00062d6f      0x18a c:/program files (x86)/microchip/mplab c32 suite/bin/../lib/gcc/pic32mx/4.5.1/../../../../pic32mx/lib/size\libmchp_peripheral_32MX795F512L.a(uart_lib.o)
 .debug_info    0x00062ef9       0xc9 c:/program files (x86)/microchip/mplab c32 suite/bin/../lib/gcc/pic32mx/4.5.1/../../../../pic32mx/lib/size\libmchp_peripheral_32MX795F512L.a(int_enable_interrupts_lib.o)

.debug_abbrev   0x00000000     0x8138
 *(.debug_abbrev)
 .debug_abbrev  0x00000000      0x393 Objects - TCPIP PIC32 ETH Demo App-C32\MainDemo.o
 .debug_abbrev  0x00000393      0x2e6 Objects - TCPIP PIC32 ETH Demo App-C32\CustomHTTPApp.o
 .debug_abbrev  0x00000679      0x166 Objects - TCPIP PIC32 ETH Demo App-C32\UDPPerformanceTest.o
 .debug_abbrev  0x000007df      0x1ff Objects - TCPIP PIC32 ETH Demo App-C32\Announce.o
 .debug_abbrev  0x000009de      0x275 Objects - TCPIP PIC32 ETH Demo App-C32\ARP.o
 .debug_abbrev  0x00000c53      0x19b Objects - TCPIP PIC32 ETH Demo App-C32\Delay.o
 .debug_abbrev  0x00000dee      0x2a8 Objects - TCPIP PIC32 ETH Demo App-C32\DHCP.o
 .debug_abbrev  0x00001096      0x23d Objects - TCPIP PIC32 ETH Demo App-C32\DHCPs.o
 .debug_abbrev  0x000012d3      0x271 Objects - TCPIP PIC32 ETH Demo App-C32\DNS.o
 .debug_abbrev  0x00001544      0x27f Objects - TCPIP PIC32 ETH Demo App-C32\DynDNS.o
 .debug_abbrev  0x000017c3      0x166 Objects - TCPIP PIC32 ETH Demo App-C32\ENC28J60.o
 .debug_abbrev  0x00001929      0x166 Objects - TCPIP PIC32 ETH Demo App-C32\FTP.o
 .debug_abbrev  0x00001a8f      0x233 Objects - TCPIP PIC32 ETH Demo App-C32\Hashes.o
 .debug_abbrev  0x00001cc2      0x252 Objects - TCPIP PIC32 ETH Demo App-C32\Helpers.o
 .debug_abbrev  0x00001f14      0x2cc Objects - TCPIP PIC32 ETH Demo App-C32\HTTP2.o
 .debug_abbrev  0x000021e0      0x166 Objects - TCPIP PIC32 ETH Demo App-C32\HTTP.o
 .debug_abbrev  0x00002346      0x246 Objects - TCPIP PIC32 ETH Demo App-C32\ICMP.o
 .debug_abbrev  0x0000258c      0x242 Objects - TCPIP PIC32 ETH Demo App-C32\IP.o
 .debug_abbrev  0x000027ce      0x166 Objects - TCPIP PIC32 ETH Demo App-C32\LCDBlocking.o
 .debug_abbrev  0x00002934      0x28e Objects - TCPIP PIC32 ETH Demo App-C32\MPFS2.o
 .debug_abbrev  0x00002bc2      0x166 Objects - TCPIP PIC32 ETH Demo App-C32\MPFS.o
 .debug_abbrev  0x00002d28      0x247 Objects - TCPIP PIC32 ETH Demo App-C32\NBNS.o
 .debug_abbrev  0x00002f6f      0x1c0 Objects - TCPIP PIC32 ETH Demo App-C32\Reboot.o
 .debug_abbrev  0x0000312f      0x2da Objects - TCPIP PIC32 ETH Demo App-C32\SMTP.o
 .debug_abbrev  0x00003409      0x166 Objects - TCPIP PIC32 ETH Demo App-C32\SNMP.o
 .debug_abbrev  0x0000356f      0x1d9 Objects - TCPIP PIC32 ETH Demo App-C32\SNTP.o
 .debug_abbrev  0x00003748      0x166 Objects - TCPIP PIC32 ETH Demo App-C32\SPIEEPROM.o
 .debug_abbrev  0x000038ae      0x166 Objects - TCPIP PIC32 ETH Demo App-C32\SPIFlash.o
 .debug_abbrev  0x00003a14      0x166 Objects - TCPIP PIC32 ETH Demo App-C32\SPIRAM.o
 .debug_abbrev  0x00003b7a      0x223 Objects - TCPIP PIC32 ETH Demo App-C32\StackTsk.o
 .debug_abbrev  0x00003d9d      0x2db Objects - TCPIP PIC32 ETH Demo App-C32\TCP.o
 .debug_abbrev  0x00004078      0x20a Objects - TCPIP PIC32 ETH Demo App-C32\TCPPerformanceTest.o
 .debug_abbrev  0x00004282      0x1d2 Objects - TCPIP PIC32 ETH Demo App-C32\Telnet.o
 .debug_abbrev  0x00004454      0x166 Objects - TCPIP PIC32 ETH Demo App-C32\TFTPc.o
 .debug_abbrev  0x000045ba      0x214 Objects - TCPIP PIC32 ETH Demo App-C32\Tick.o
 .debug_abbrev  0x000047ce      0x166 Objects - TCPIP PIC32 ETH Demo App-C32\UART2TCPBridge.o
 .debug_abbrev  0x00004934      0x2fc Objects - TCPIP PIC32 ETH Demo App-C32\UDP.o
 .debug_abbrev  0x00004c30      0x166 Objects - TCPIP PIC32 ETH Demo App-C32\CustomSNMPApp.o
 .debug_abbrev  0x00004d96      0x271 Objects - TCPIP PIC32 ETH Demo App-C32\UARTConfig.o
 .debug_abbrev  0x00005007      0x22c Objects - TCPIP PIC32 ETH Demo App-C32\GenericTCPClient.o
 .debug_abbrev  0x00005233      0x1ad Objects - TCPIP PIC32 ETH Demo App-C32\GenericTCPServer.o
 .debug_abbrev  0x000053e0      0x166 Objects - TCPIP PIC32 ETH Demo App-C32\LegacyHTTPApp.o
 .debug_abbrev  0x00005546      0x1a2 Objects - TCPIP PIC32 ETH Demo App-C32\PingDemo.o
 .debug_abbrev  0x000056e8      0x1e5 Objects - TCPIP PIC32 ETH Demo App-C32\SMTPDemo.o
 .debug_abbrev  0x000058cd      0x2cc Objects - TCPIP PIC32 ETH Demo App-C32\BerkeleyAPI.o
 .debug_abbrev  0x00005b99      0x20b Objects - TCPIP PIC32 ETH Demo App-C32\BerkeleyUDPClientDemo.o
 .debug_abbrev  0x00005da4      0x264 Objects - TCPIP PIC32 ETH Demo App-C32\BerkeleyTCPClientDemo.o
 .debug_abbrev  0x00006008      0x1c7 Objects - TCPIP PIC32 ETH Demo App-C32\BerkeleyTCPServerDemo.o
 .debug_abbrev  0x000061cf      0x166 Objects - TCPIP PIC32 ETH Demo App-C32\ENCX24J600.o
 .debug_abbrev  0x00006335      0x180 Objects - TCPIP PIC32 ETH Demo App-C32\MPFSImg2.o
 .debug_abbrev  0x000064b5      0x166 Objects - TCPIP PIC32 ETH Demo App-C32\Random.o
 .debug_abbrev  0x0000661b      0x166 Objects - TCPIP PIC32 ETH Demo App-C32\RSA.o
 .debug_abbrev  0x00006781      0x166 Objects - TCPIP PIC32 ETH Demo App-C32\SSL.o
 .debug_abbrev  0x000068e7      0x166 Objects - TCPIP PIC32 ETH Demo App-C32\ARCFOUR.o
 .debug_abbrev  0x00006a4d      0x166 Objects - TCPIP PIC32 ETH Demo App-C32\BigInt.o
 .debug_abbrev  0x00006bb3      0x166 Objects - TCPIP PIC32 ETH Demo App-C32\CustomSSLCert.o
 .debug_abbrev  0x00006d19      0x26a Objects - TCPIP PIC32 ETH Demo App-C32\AutoIP.o
 .debug_abbrev  0x00006f83      0x336 Objects - TCPIP PIC32 ETH Demo App-C32\ETHPIC32IntMac.o
 .debug_abbrev  0x000072b9      0x34c Objects - TCPIP PIC32 ETH Demo App-C32\ETHPIC32ExtPhy.o
 .debug_abbrev  0x00007605      0x1ca Objects - TCPIP PIC32 ETH Demo App-C32\ETHPIC32ExtPhyDP83848.o
 .debug_abbrev  0x000077cf      0x20b Objects - TCPIP PIC32 ETH Demo App-C32\UART.o
 .debug_abbrev  0x000079da      0x13d c:/program files (x86)/microchip/mplab c32 suite/bin/../lib/gcc/pic32mx/4.5.1/size\libgcc.a(_udivdi3.o)
 .debug_abbrev  0x00007b17       0x25 c:/program files (x86)/microchip/mplab c32 suite/bin/../lib/gcc/pic32mx/4.5.1/../../../../pic32mx/lib/size\libc.a(atoi.o)
 .debug_abbrev  0x00007b3c       0x25 c:/program files (x86)/microchip/mplab c32 suite/bin/../lib/gcc/pic32mx/4.5.1/../../../../pic32mx/lib/size\libc.a(atol.o)
 .debug_abbrev  0x00007b61       0x25 c:/program files (x86)/microchip/mplab c32 suite/bin/../lib/gcc/pic32mx/4.5.1/../../../../pic32mx/lib/size\libc.a(calloc.o)
 .debug_abbrev  0x00007b86        0x1 c:/program files (x86)/microchip/mplab c32 suite/bin/../lib/gcc/pic32mx/4.5.1/../../../../pic32mx/lib/size\libc.a(ctype.o)
 .debug_abbrev  0x00007b87       0x25 c:/program files (x86)/microchip/mplab c32 suite/bin/../lib/gcc/pic32mx/4.5.1/../../../../pic32mx/lib/size\libc.a(ltoa.o)
 .debug_abbrev  0x00007bac       0x25 c:/program files (x86)/microchip/mplab c32 suite/bin/../lib/gcc/pic32mx/4.5.1/../../../../pic32mx/lib/size\libc.a(malloc.o)
 .debug_abbrev  0x00007bd1       0x25 c:/program files (x86)/microchip/mplab c32 suite/bin/../lib/gcc/pic32mx/4.5.1/../../../../pic32mx/lib/size\libc.a(strchr.o)
 .debug_abbrev  0x00007bf6       0x25 c:/program files (x86)/microchip/mplab c32 suite/bin/../lib/gcc/pic32mx/4.5.1/../../../../pic32mx/lib/size\libc.a(strncpy.o)
 .debug_abbrev  0x00007c1b       0x25 c:/program files (x86)/microchip/mplab c32 suite/bin/../lib/gcc/pic32mx/4.5.1/../../../../pic32mx/lib/size\libc.a(strstr.o)
 .debug_abbrev  0x00007c40       0x38 c:/program files (x86)/microchip/mplab c32 suite/bin/../lib/gcc/pic32mx/4.5.1/../../../../pic32mx/lib/size\libc.a(sbrk.o)
 .debug_abbrev  0x00007c78       0x25 c:/program files (x86)/microchip/mplab c32 suite/bin/../lib/gcc/pic32mx/4.5.1/../../../../pic32mx/lib/size\libc.a(default-bootstrap-exception-handler.o)
 .debug_abbrev  0x00007c9d       0x25 c:/program files (x86)/microchip/mplab c32 suite/bin/../lib/gcc/pic32mx/4.5.1/../../../../pic32mx/lib/size\libc.a(default-on-reset.o)
 .debug_abbrev  0x00007cc2       0x25 c:/program files (x86)/microchip/mplab c32 suite/bin/../lib/gcc/pic32mx/4.5.1/../../../../pic32mx/lib/size\libc.a(default-on-bootstrap.o)
 .debug_abbrev  0x00007ce7        0x1 c:/program files (x86)/microchip/mplab c32 suite/bin/../lib/gcc/pic32mx/4.5.1/../../../../pic32mx/lib/size\libc.a(errno.o)
 .debug_abbrev  0x00007ce8       0x25 c:/program files (x86)/microchip/mplab c32 suite/bin/../lib/gcc/pic32mx/4.5.1/../../../../pic32mx/lib/size\libc.a(strncmp.o)
 .debug_abbrev  0x00007d0d       0x25 c:/program files (x86)/microchip/mplab c32 suite/bin/../lib/gcc/pic32mx/4.5.1/../../../../pic32mx/lib/size\libmchp_peripheral.a(read_core_timer_lib.o)
 .debug_abbrev  0x00007d32       0x58 c:/program files (x86)/microchip/mplab c32 suite/bin/../lib/gcc/pic32mx/4.5.1/../../../../pic32mx/lib/size\libmchp_peripheral_32MX795F512L.a(eth_ack_packet_lib.o)
 .debug_abbrev  0x00007d8a       0x34 c:/program files (x86)/microchip/mplab c32 suite/bin/../lib/gcc/pic32mx/4.5.1/../../../../pic32mx/lib/size\libmchp_peripheral_32MX795F512L.a(eth_descriptors_add_lib.o)
 .debug_abbrev  0x00007dbe       0x34 c:/program files (x86)/microchip/mplab c32 suite/bin/../lib/gcc/pic32mx/4.5.1/../../../../pic32mx/lib/size\libmchp_peripheral_32MX795F512L.a(eth_init_lib.o)
 .debug_abbrev  0x00007df2       0x25 c:/program files (x86)/microchip/mplab c32 suite/bin/../lib/gcc/pic32mx/4.5.1/../../../../pic32mx/lib/size\libmchp_peripheral_32MX795F512L.a(eth_mac_open_lib.o)
 .debug_abbrev  0x00007e17       0x25 c:/program files (x86)/microchip/mplab c32 suite/bin/../lib/gcc/pic32mx/4.5.1/../../../../pic32mx/lib/size\libmchp_peripheral_32MX795F512L.a(eth_mac_set_address_max_lib.o)
 .debug_abbrev  0x00007e3c       0x34 c:/program files (x86)/microchip/mplab c32 suite/bin/../lib/gcc/pic32mx/4.5.1/../../../../pic32mx/lib/size\libmchp_peripheral_32MX795F512L.a(eth_rx_buffers_append_lib.o)
 .debug_abbrev  0x00007e70       0x25 c:/program files (x86)/microchip/mplab c32 suite/bin/../lib/gcc/pic32mx/4.5.1/../../../../pic32mx/lib/size\libmchp_peripheral_32MX795F512L.a(eth_rx_filters_lib.o)
 .debug_abbrev  0x00007e95       0x25 c:/program files (x86)/microchip/mplab c32 suite/bin/../lib/gcc/pic32mx/4.5.1/../../../../pic32mx/lib/size\libmchp_peripheral_32MX795F512L.a(eth_rx_get_packet_lib.o)
 .debug_abbrev  0x00007eba       0x25 c:/program files (x86)/microchip/mplab c32 suite/bin/../lib/gcc/pic32mx/4.5.1/../../../../pic32mx/lib/size\libmchp_peripheral_32MX795F512L.a(eth_rx_set_buffer_size_lib.o)
 .debug_abbrev  0x00007edf       0x58 c:/program files (x86)/microchip/mplab c32 suite/bin/../lib/gcc/pic32mx/4.5.1/../../../../pic32mx/lib/size\libmchp_peripheral_32MX795F512L.a(eth_tx_packet_lib.o)
 .debug_abbrev  0x00007f37       0x34 c:/program files (x86)/microchip/mplab c32 suite/bin/../lib/gcc/pic32mx/4.5.1/../../../../pic32mx/lib/size\libmchp_peripheral_32MX795F512L.a(_eth_append_busy_list_lib.o)
 .debug_abbrev  0x00007f6b       0x38 c:/program files (x86)/microchip/mplab c32 suite/bin/../lib/gcc/pic32mx/4.5.1/../../../../pic32mx/lib/size\libmchp_peripheral_32MX795F512L.a(eth_miim_access.o)
 .debug_abbrev  0x00007fa3       0x34 c:/program files (x86)/microchip/mplab c32 suite/bin/../lib/gcc/pic32mx/4.5.1/../../../../pic32mx/lib/size\libmchp_peripheral_32MX795F512L.a(soft_reset_lib.o)
 .debug_abbrev  0x00007fd7       0x25 c:/program files (x86)/microchip/mplab c32 suite/bin/../lib/gcc/pic32mx/4.5.1/../../../../pic32mx/lib/size\libmchp_peripheral_32MX795F512L.a(pcache.o)
 .debug_abbrev  0x00007ffc       0x25 c:/program files (x86)/microchip/mplab c32 suite/bin/../lib/gcc/pic32mx/4.5.1/../../../../pic32mx/lib/size\libmchp_peripheral_32MX795F512L.a(int_disable_interrupts_lib.o)
 .debug_abbrev  0x00008021       0x25 c:/program files (x86)/microchip/mplab c32 suite/bin/../lib/gcc/pic32mx/4.5.1/../../../../pic32mx/lib/size\libmchp_peripheral_32MX795F512L.a(int_restore_interrupts_lib.o)
 .debug_abbrev  0x00008046       0x25 c:/program files (x86)/microchip/mplab c32 suite/bin/../lib/gcc/pic32mx/4.5.1/../../../../pic32mx/lib/size\libmchp_peripheral_32MX795F512L.a(int_enable_mv_int_lib.o)
 .debug_abbrev  0x0000806b       0x25 c:/program files (x86)/microchip/mplab c32 suite/bin/../lib/gcc/pic32mx/4.5.1/../../../../pic32mx/lib/size\libmchp_peripheral_32MX795F512L.a(int_tbl_lib.o)
 .debug_abbrev  0x00008090       0x25 c:/program files (x86)/microchip/mplab c32 suite/bin/../lib/gcc/pic32mx/4.5.1/../../../../pic32mx/lib/size\libmchp_peripheral_32MX795F512L.a(port_set_pins_digital_in_lib.o)
 .debug_abbrev  0x000080b5       0x25 c:/program files (x86)/microchip/mplab c32 suite/bin/../lib/gcc/pic32mx/4.5.1/../../../../pic32mx/lib/size\libmchp_peripheral_32MX795F512L.a(port_set_pins_digital_out_lib.o)
 .debug_abbrev  0x000080da        0x1 c:/program files (x86)/microchip/mplab c32 suite/bin/../lib/gcc/pic32mx/4.5.1/../../../../pic32mx/lib/size\libmchp_peripheral_32MX795F512L.a(_ports_tbl_libp.o)
 .debug_abbrev  0x000080db       0x38 c:/program files (x86)/microchip/mplab c32 suite/bin/../lib/gcc/pic32mx/4.5.1/../../../../pic32mx/lib/size\libmchp_peripheral_32MX795F512L.a(uart_lib.o)
 .debug_abbrev  0x00008113       0x25 c:/program files (x86)/microchip/mplab c32 suite/bin/../lib/gcc/pic32mx/4.5.1/../../../../pic32mx/lib/size\libmchp_peripheral_32MX795F512L.a(int_enable_interrupts_lib.o)

.debug_line     0x00000000     0xac20
 *(.debug_line)
 .debug_line    0x00000000      0x407 Objects - TCPIP PIC32 ETH Demo App-C32\MainDemo.o
 .debug_line    0x00000407      0x659 Objects - TCPIP PIC32 ETH Demo App-C32\CustomHTTPApp.o
 .debug_line    0x00000a60      0x148 Objects - TCPIP PIC32 ETH Demo App-C32\UDPPerformanceTest.o
 .debug_line    0x00000ba8      0x220 Objects - TCPIP PIC32 ETH Demo App-C32\Announce.o
 .debug_line    0x00000dc8      0x259 Objects - TCPIP PIC32 ETH Demo App-C32\ARP.o
 .debug_line    0x00001021      0x190 Objects - TCPIP PIC32 ETH Demo App-C32\Delay.o
 .debug_line    0x000011b1      0x3f3 Objects - TCPIP PIC32 ETH Demo App-C32\DHCP.o
 .debug_line    0x000015a4      0x2dd Objects - TCPIP PIC32 ETH Demo App-C32\DHCPs.o
 .debug_line    0x00001881      0x324 Objects - TCPIP PIC32 ETH Demo App-C32\DNS.o
 .debug_line    0x00001ba5      0x3cd Objects - TCPIP PIC32 ETH Demo App-C32\DynDNS.o
 .debug_line    0x00001f72      0x148 Objects - TCPIP PIC32 ETH Demo App-C32\ENC28J60.o
 .debug_line    0x000020ba      0x148 Objects - TCPIP PIC32 ETH Demo App-C32\FTP.o
 .debug_line    0x00002202      0x248 Objects - TCPIP PIC32 ETH Demo App-C32\Hashes.o
 .debug_line    0x0000244a      0x3f7 Objects - TCPIP PIC32 ETH Demo App-C32\Helpers.o
 .debug_line    0x00002841      0x654 Objects - TCPIP PIC32 ETH Demo App-C32\HTTP2.o
 .debug_line    0x00002e95      0x148 Objects - TCPIP PIC32 ETH Demo App-C32\HTTP.o
 .debug_line    0x00002fdd      0x249 Objects - TCPIP PIC32 ETH Demo App-C32\ICMP.o
 .debug_line    0x00003226      0x1fc Objects - TCPIP PIC32 ETH Demo App-C32\IP.o
 .debug_line    0x00003422      0x148 Objects - TCPIP PIC32 ETH Demo App-C32\LCDBlocking.o
 .debug_line    0x0000356a      0x377 Objects - TCPIP PIC32 ETH Demo App-C32\MPFS2.o
 .debug_line    0x000038e1      0x148 Objects - TCPIP PIC32 ETH Demo App-C32\MPFS.o
 .debug_line    0x00003a29      0x253 Objects - TCPIP PIC32 ETH Demo App-C32\NBNS.o
 .debug_line    0x00003c7c      0x1d5 Objects - TCPIP PIC32 ETH Demo App-C32\Reboot.o
 .debug_line    0x00003e51      0x58b Objects - TCPIP PIC32 ETH Demo App-C32\SMTP.o
 .debug_line    0x000043dc      0x148 Objects - TCPIP PIC32 ETH Demo App-C32\SNMP.o
 .debug_line    0x00004524      0x211 Objects - TCPIP PIC32 ETH Demo App-C32\SNTP.o
 .debug_line    0x00004735      0x148 Objects - TCPIP PIC32 ETH Demo App-C32\SPIEEPROM.o
 .debug_line    0x0000487d      0x148 Objects - TCPIP PIC32 ETH Demo App-C32\SPIFlash.o
 .debug_line    0x000049c5      0x148 Objects - TCPIP PIC32 ETH Demo App-C32\SPIRAM.o
 .debug_line    0x00004b0d      0x22a Objects - TCPIP PIC32 ETH Demo App-C32\StackTsk.o
 .debug_line    0x00004d37      0xb7e Objects - TCPIP PIC32 ETH Demo App-C32\TCP.o
 .debug_line    0x000058b5      0x24a Objects - TCPIP PIC32 ETH Demo App-C32\TCPPerformanceTest.o
 .debug_line    0x00005aff      0x296 Objects - TCPIP PIC32 ETH Demo App-C32\Telnet.o
 .debug_line    0x00005d95      0x148 Objects - TCPIP PIC32 ETH Demo App-C32\TFTPc.o
 .debug_line    0x00005edd      0x1d0 Objects - TCPIP PIC32 ETH Demo App-C32\Tick.o
 .debug_line    0x000060ad      0x148 Objects - TCPIP PIC32 ETH Demo App-C32\UART2TCPBridge.o
 .debug_line    0x000061f5      0x38a Objects - TCPIP PIC32 ETH Demo App-C32\UDP.o
 .debug_line    0x0000657f      0x148 Objects - TCPIP PIC32 ETH Demo App-C32\CustomSNMPApp.o
 .debug_line    0x000066c7      0x624 Objects - TCPIP PIC32 ETH Demo App-C32\UARTConfig.o
 .debug_line    0x00006ceb      0x246 Objects - TCPIP PIC32 ETH Demo App-C32\GenericTCPClient.o
 .debug_line    0x00006f31      0x1cf Objects - TCPIP PIC32 ETH Demo App-C32\GenericTCPServer.o
 .debug_line    0x00007100      0x148 Objects - TCPIP PIC32 ETH Demo App-C32\LegacyHTTPApp.o
 .debug_line    0x00007248      0x18d Objects - TCPIP PIC32 ETH Demo App-C32\PingDemo.o
 .debug_line    0x000073d5      0x1df Objects - TCPIP PIC32 ETH Demo App-C32\SMTPDemo.o
 .debug_line    0x000075b4      0x40e Objects - TCPIP PIC32 ETH Demo App-C32\BerkeleyAPI.o
 .debug_line    0x000079c2      0x216 Objects - TCPIP PIC32 ETH Demo App-C32\BerkeleyUDPClientDemo.o
 .debug_line    0x00007bd8      0x2a7 Objects - TCPIP PIC32 ETH Demo App-C32\BerkeleyTCPClientDemo.o
 .debug_line    0x00007e7f      0x1ea Objects - TCPIP PIC32 ETH Demo App-C32\BerkeleyTCPServerDemo.o
 .debug_line    0x00008069      0x148 Objects - TCPIP PIC32 ETH Demo App-C32\ENCX24J600.o
 .debug_line    0x000081b1      0x156 Objects - TCPIP PIC32 ETH Demo App-C32\MPFSImg2.o
 .debug_line    0x00008307      0x148 Objects - TCPIP PIC32 ETH Demo App-C32\Random.o
 .debug_line    0x0000844f      0x148 Objects - TCPIP PIC32 ETH Demo App-C32\RSA.o
 .debug_line    0x00008597      0x148 Objects - TCPIP PIC32 ETH Demo App-C32\SSL.o
 .debug_line    0x000086df      0x148 Objects - TCPIP PIC32 ETH Demo App-C32\ARCFOUR.o
 .debug_line    0x00008827      0x148 Objects - TCPIP PIC32 ETH Demo App-C32\BigInt.o
 .debug_line    0x0000896f      0x148 Objects - TCPIP PIC32 ETH Demo App-C32\CustomSSLCert.o
 .debug_line    0x00008ab7      0x2f7 Objects - TCPIP PIC32 ETH Demo App-C32\AutoIP.o
 .debug_line    0x00008dae      0x3df Objects - TCPIP PIC32 ETH Demo App-C32\ETHPIC32IntMac.o
 .debug_line    0x0000918d      0x40d Objects - TCPIP PIC32 ETH Demo App-C32\ETHPIC32ExtPhy.o
 .debug_line    0x0000959a      0x211 Objects - TCPIP PIC32 ETH Demo App-C32\ETHPIC32ExtPhyDP83848.o
 .debug_line    0x000097ab      0x1a7 Objects - TCPIP PIC32 ETH Demo App-C32\UART.o
 .debug_line    0x00009952      0x118 c:/program files (x86)/microchip/mplab c32 suite/bin/../lib/gcc/pic32mx/4.5.1/size\libgcc.a(_udivdi3.o)
 .debug_line    0x00009a6a       0x85 c:/program files (x86)/microchip/mplab c32 suite/bin/../lib/gcc/pic32mx/4.5.1/../../../../pic32mx/lib/size\libc.a(atoi.o)
 .debug_line    0x00009aef       0x85 c:/program files (x86)/microchip/mplab c32 suite/bin/../lib/gcc/pic32mx/4.5.1/../../../../pic32mx/lib/size\libc.a(atol.o)
 .debug_line    0x00009b74       0x87 c:/program files (x86)/microchip/mplab c32 suite/bin/../lib/gcc/pic32mx/4.5.1/../../../../pic32mx/lib/size\libc.a(calloc.o)
 .debug_line    0x00009bfb        0x0 c:/program files (x86)/microchip/mplab c32 suite/bin/../lib/gcc/pic32mx/4.5.1/../../../../pic32mx/lib/size\libc.a(ctype.o)
 .debug_line    0x00009bfb       0x85 c:/program files (x86)/microchip/mplab c32 suite/bin/../lib/gcc/pic32mx/4.5.1/../../../../pic32mx/lib/size\libc.a(ltoa.o)
 .debug_line    0x00009c80       0x87 c:/program files (x86)/microchip/mplab c32 suite/bin/../lib/gcc/pic32mx/4.5.1/../../../../pic32mx/lib/size\libc.a(malloc.o)
 .debug_line    0x00009d07       0x87 c:/program files (x86)/microchip/mplab c32 suite/bin/../lib/gcc/pic32mx/4.5.1/../../../../pic32mx/lib/size\libc.a(strchr.o)
 .debug_line    0x00009d8e       0x88 c:/program files (x86)/microchip/mplab c32 suite/bin/../lib/gcc/pic32mx/4.5.1/../../../../pic32mx/lib/size\libc.a(strncpy.o)
 .debug_line    0x00009e16       0x87 c:/program files (x86)/microchip/mplab c32 suite/bin/../lib/gcc/pic32mx/4.5.1/../../../../pic32mx/lib/size\libc.a(strstr.o)
 .debug_line    0x00009e9d       0x87 c:/program files (x86)/microchip/mplab c32 suite/bin/../lib/gcc/pic32mx/4.5.1/../../../../pic32mx/lib/size\libc.a(sbrk.o)
 .debug_line    0x00009f24       0xa6 c:/program files (x86)/microchip/mplab c32 suite/bin/../lib/gcc/pic32mx/4.5.1/../../../../pic32mx/lib/size\libc.a(default-bootstrap-exception-handler.o)
 .debug_line    0x00009fca       0x93 c:/program files (x86)/microchip/mplab c32 suite/bin/../lib/gcc/pic32mx/4.5.1/../../../../pic32mx/lib/size\libc.a(default-on-reset.o)
 .debug_line    0x0000a05d       0x97 c:/program files (x86)/microchip/mplab c32 suite/bin/../lib/gcc/pic32mx/4.5.1/../../../../pic32mx/lib/size\libc.a(default-on-bootstrap.o)
 .debug_line    0x0000a0f4        0x0 c:/program files (x86)/microchip/mplab c32 suite/bin/../lib/gcc/pic32mx/4.5.1/../../../../pic32mx/lib/size\libc.a(errno.o)
 .debug_line    0x0000a0f4       0x88 c:/program files (x86)/microchip/mplab c32 suite/bin/../lib/gcc/pic32mx/4.5.1/../../../../pic32mx/lib/size\libc.a(strncmp.o)
 .debug_line    0x0000a17c       0x6e c:/program files (x86)/microchip/mplab c32 suite/bin/../lib/gcc/pic32mx/4.5.1/../../../../pic32mx/lib/size\libmchp_peripheral.a(read_core_timer_lib.o)
 .debug_line    0x0000a1ea       0x80 c:/program files (x86)/microchip/mplab c32 suite/bin/../lib/gcc/pic32mx/4.5.1/../../../../pic32mx/lib/size\libmchp_peripheral_32MX795F512L.a(eth_ack_packet_lib.o)
 .debug_line    0x0000a26a       0x85 c:/program files (x86)/microchip/mplab c32 suite/bin/../lib/gcc/pic32mx/4.5.1/../../../../pic32mx/lib/size\libmchp_peripheral_32MX795F512L.a(eth_descriptors_add_lib.o)
 .debug_line    0x0000a2ef       0x77 c:/program files (x86)/microchip/mplab c32 suite/bin/../lib/gcc/pic32mx/4.5.1/../../../../pic32mx/lib/size\libmchp_peripheral_32MX795F512L.a(eth_init_lib.o)
 .debug_line    0x0000a366       0x69 c:/program files (x86)/microchip/mplab c32 suite/bin/../lib/gcc/pic32mx/4.5.1/../../../../pic32mx/lib/size\libmchp_peripheral_32MX795F512L.a(eth_mac_open_lib.o)
 .debug_line    0x0000a3cf       0x74 c:/program files (x86)/microchip/mplab c32 suite/bin/../lib/gcc/pic32mx/4.5.1/../../../../pic32mx/lib/size\libmchp_peripheral_32MX795F512L.a(eth_mac_set_address_max_lib.o)
 .debug_line    0x0000a443       0x87 c:/program files (x86)/microchip/mplab c32 suite/bin/../lib/gcc/pic32mx/4.5.1/../../../../pic32mx/lib/size\libmchp_peripheral_32MX795F512L.a(eth_rx_buffers_append_lib.o)
 .debug_line    0x0000a4ca       0x6b c:/program files (x86)/microchip/mplab c32 suite/bin/../lib/gcc/pic32mx/4.5.1/../../../../pic32mx/lib/size\libmchp_peripheral_32MX795F512L.a(eth_rx_filters_lib.o)
 .debug_line    0x0000a535       0x6e c:/program files (x86)/microchip/mplab c32 suite/bin/../lib/gcc/pic32mx/4.5.1/../../../../pic32mx/lib/size\libmchp_peripheral_32MX795F512L.a(eth_rx_get_packet_lib.o)
 .debug_line    0x0000a5a3       0x73 c:/program files (x86)/microchip/mplab c32 suite/bin/../lib/gcc/pic32mx/4.5.1/../../../../pic32mx/lib/size\libmchp_peripheral_32MX795F512L.a(eth_rx_set_buffer_size_lib.o)
 .debug_line    0x0000a616       0x7f c:/program files (x86)/microchip/mplab c32 suite/bin/../lib/gcc/pic32mx/4.5.1/../../../../pic32mx/lib/size\libmchp_peripheral_32MX795F512L.a(eth_tx_packet_lib.o)
 .debug_line    0x0000a695       0x87 c:/program files (x86)/microchip/mplab c32 suite/bin/../lib/gcc/pic32mx/4.5.1/../../../../pic32mx/lib/size\libmchp_peripheral_32MX795F512L.a(_eth_append_busy_list_lib.o)
 .debug_line    0x0000a71c       0x68 c:/program files (x86)/microchip/mplab c32 suite/bin/../lib/gcc/pic32mx/4.5.1/../../../../pic32mx/lib/size\libmchp_peripheral_32MX795F512L.a(eth_miim_access.o)
 .debug_line    0x0000a784       0xbf c:/program files (x86)/microchip/mplab c32 suite/bin/../lib/gcc/pic32mx/4.5.1/../../../../pic32mx/lib/size\libmchp_peripheral_32MX795F512L.a(soft_reset_lib.o)
 .debug_line    0x0000a843       0x62 c:/program files (x86)/microchip/mplab c32 suite/bin/../lib/gcc/pic32mx/4.5.1/../../../../pic32mx/lib/size\libmchp_peripheral_32MX795F512L.a(pcache.o)
 .debug_line    0x0000a8a5       0x73 c:/program files (x86)/microchip/mplab c32 suite/bin/../lib/gcc/pic32mx/4.5.1/../../../../pic32mx/lib/size\libmchp_peripheral_32MX795F512L.a(int_disable_interrupts_lib.o)
 .debug_line    0x0000a918       0x73 c:/program files (x86)/microchip/mplab c32 suite/bin/../lib/gcc/pic32mx/4.5.1/../../../../pic32mx/lib/size\libmchp_peripheral_32MX795F512L.a(int_restore_interrupts_lib.o)
 .debug_line    0x0000a98b       0x6e c:/program files (x86)/microchip/mplab c32 suite/bin/../lib/gcc/pic32mx/4.5.1/../../../../pic32mx/lib/size\libmchp_peripheral_32MX795F512L.a(int_enable_mv_int_lib.o)
 .debug_line    0x0000a9f9       0x64 c:/program files (x86)/microchip/mplab c32 suite/bin/../lib/gcc/pic32mx/4.5.1/../../../../pic32mx/lib/size\libmchp_peripheral_32MX795F512L.a(int_tbl_lib.o)
 .debug_line    0x0000aa5d       0x77 c:/program files (x86)/microchip/mplab c32 suite/bin/../lib/gcc/pic32mx/4.5.1/../../../../pic32mx/lib/size\libmchp_peripheral_32MX795F512L.a(port_set_pins_digital_in_lib.o)
 .debug_line    0x0000aad4       0x78 c:/program files (x86)/microchip/mplab c32 suite/bin/../lib/gcc/pic32mx/4.5.1/../../../../pic32mx/lib/size\libmchp_peripheral_32MX795F512L.a(port_set_pins_digital_out_lib.o)
 .debug_line    0x0000ab4c        0x0 c:/program files (x86)/microchip/mplab c32 suite/bin/../lib/gcc/pic32mx/4.5.1/../../../../pic32mx/lib/size\libmchp_peripheral_32MX795F512L.a(_ports_tbl_libp.o)
 .debug_line    0x0000ab4c       0x62 c:/program files (x86)/microchip/mplab c32 suite/bin/../lib/gcc/pic32mx/4.5.1/../../../../pic32mx/lib/size\libmchp_peripheral_32MX795F512L.a(uart_lib.o)
 .debug_line    0x0000abae       0x72 c:/program files (x86)/microchip/mplab c32 suite/bin/../lib/gcc/pic32mx/4.5.1/../../../../pic32mx/lib/size\libmchp_peripheral_32MX795F512L.a(int_enable_interrupts_lib.o)

.debug_frame    0x00000000     0x2c2c
 *(.debug_frame)
 .debug_frame   0x00000000       0xb4 Objects - TCPIP PIC32 ETH Demo App-C32\MainDemo.o
 .debug_frame   0x000000b4      0x488 Objects - TCPIP PIC32 ETH Demo App-C32\CustomHTTPApp.o
 .debug_frame   0x0000053c       0x48 Objects - TCPIP PIC32 ETH Demo App-C32\Announce.o
 .debug_frame   0x00000584       0xcc Objects - TCPIP PIC32 ETH Demo App-C32\ARP.o
 .debug_frame   0x00000650       0x44 Objects - TCPIP PIC32 ETH Demo App-C32\Delay.o
 .debug_frame   0x00000694      0x114 Objects - TCPIP PIC32 ETH Demo App-C32\DHCP.o
 .debug_frame   0x000007a8       0x64 Objects - TCPIP PIC32 ETH Demo App-C32\DHCPs.o
 .debug_frame   0x0000080c       0xb4 Objects - TCPIP PIC32 ETH Demo App-C32\DNS.o
 .debug_frame   0x000008c0       0xac Objects - TCPIP PIC32 ETH Demo App-C32\DynDNS.o
 .debug_frame   0x0000096c       0x94 Objects - TCPIP PIC32 ETH Demo App-C32\Hashes.o
 .debug_frame   0x00000a00      0x1cc Objects - TCPIP PIC32 ETH Demo App-C32\Helpers.o
 .debug_frame   0x00000bcc      0x1ec Objects - TCPIP PIC32 ETH Demo App-C32\HTTP2.o
 .debug_frame   0x00000db8       0xb0 Objects - TCPIP PIC32 ETH Demo App-C32\ICMP.o
 .debug_frame   0x00000e68       0x80 Objects - TCPIP PIC32 ETH Demo App-C32\IP.o
 .debug_frame   0x00000ee8      0x230 Objects - TCPIP PIC32 ETH Demo App-C32\MPFS2.o
 .debug_frame   0x00001118       0x64 Objects - TCPIP PIC32 ETH Demo App-C32\NBNS.o
 .debug_frame   0x0000117c       0x2c Objects - TCPIP PIC32 ETH Demo App-C32\Reboot.o
 .debug_frame   0x000011a8      0x168 Objects - TCPIP PIC32 ETH Demo App-C32\SMTP.o
 .debug_frame   0x00001310       0x48 Objects - TCPIP PIC32 ETH Demo App-C32\SNTP.o
 .debug_frame   0x00001358       0x64 Objects - TCPIP PIC32 ETH Demo App-C32\StackTsk.o
 .debug_frame   0x000013bc      0x39c Objects - TCPIP PIC32 ETH Demo App-C32\TCP.o
 .debug_frame   0x00001758       0x80 Objects - TCPIP PIC32 ETH Demo App-C32\TCPPerformanceTest.o
 .debug_frame   0x000017d8       0x2c Objects - TCPIP PIC32 ETH Demo App-C32\Telnet.o
 .debug_frame   0x00001804       0xcc Objects - TCPIP PIC32 ETH Demo App-C32\Tick.o
 .debug_frame   0x000018d0      0x200 Objects - TCPIP PIC32 ETH Demo App-C32\UDP.o
 .debug_frame   0x00001ad0       0x2c Objects - TCPIP PIC32 ETH Demo App-C32\UARTConfig.o
 .debug_frame   0x00001afc       0x2c Objects - TCPIP PIC32 ETH Demo App-C32\GenericTCPClient.o
 .debug_frame   0x00001b28       0x2c Objects - TCPIP PIC32 ETH Demo App-C32\GenericTCPServer.o
 .debug_frame   0x00001b54       0x2c Objects - TCPIP PIC32 ETH Demo App-C32\PingDemo.o
 .debug_frame   0x00001b80       0x2c Objects - TCPIP PIC32 ETH Demo App-C32\SMTPDemo.o
 .debug_frame   0x00001bac      0x174 Objects - TCPIP PIC32 ETH Demo App-C32\BerkeleyAPI.o
 .debug_frame   0x00001d20       0x48 Objects - TCPIP PIC32 ETH Demo App-C32\BerkeleyUDPClientDemo.o
 .debug_frame   0x00001d68       0x30 Objects - TCPIP PIC32 ETH Demo App-C32\BerkeleyTCPClientDemo.o
 .debug_frame   0x00001d98       0x2c Objects - TCPIP PIC32 ETH Demo App-C32\BerkeleyTCPServerDemo.o
 .debug_frame   0x00001dc4      0x118 Objects - TCPIP PIC32 ETH Demo App-C32\AutoIP.o
 .debug_frame   0x00001edc      0x29c Objects - TCPIP PIC32 ETH Demo App-C32\ETHPIC32IntMac.o
 .debug_frame   0x00002178      0x158 Objects - TCPIP PIC32 ETH Demo App-C32\ETHPIC32ExtPhy.o
 .debug_frame   0x000022d0       0x78 Objects - TCPIP PIC32 ETH Demo App-C32\ETHPIC32ExtPhyDP83848.o
 .debug_frame   0x00002348       0x28 Objects - TCPIP PIC32 ETH Demo App-C32\UART.o
 .debug_frame   0x00002370       0x20 c:/program files (x86)/microchip/mplab c32 suite/bin/../lib/gcc/pic32mx/4.5.1/../../../../pic32mx/lib/size\libc.a(atoi.o)
 .debug_frame   0x00002390       0x20 c:/program files (x86)/microchip/mplab c32 suite/bin/../lib/gcc/pic32mx/4.5.1/../../../../pic32mx/lib/size\libc.a(atol.o)
 .debug_frame   0x000023b0       0x2c c:/program files (x86)/microchip/mplab c32 suite/bin/../lib/gcc/pic32mx/4.5.1/../../../../pic32mx/lib/size\libc.a(calloc.o)
 .debug_frame   0x000023dc       0x38 c:/program files (x86)/microchip/mplab c32 suite/bin/../lib/gcc/pic32mx/4.5.1/../../../../pic32mx/lib/size\libc.a(ltoa.o)
 .debug_frame   0x00002414       0x68 c:/program files (x86)/microchip/mplab c32 suite/bin/../lib/gcc/pic32mx/4.5.1/../../../../pic32mx/lib/size\libc.a(malloc.o)
 .debug_frame   0x0000247c       0x20 c:/program files (x86)/microchip/mplab c32 suite/bin/../lib/gcc/pic32mx/4.5.1/../../../../pic32mx/lib/size\libc.a(strchr.o)
 .debug_frame   0x0000249c       0x20 c:/program files (x86)/microchip/mplab c32 suite/bin/../lib/gcc/pic32mx/4.5.1/../../../../pic32mx/lib/size\libc.a(strncpy.o)
 .debug_frame   0x000024bc       0x2c c:/program files (x86)/microchip/mplab c32 suite/bin/../lib/gcc/pic32mx/4.5.1/../../../../pic32mx/lib/size\libc.a(strstr.o)
 .debug_frame   0x000024e8       0x88 c:/program files (x86)/microchip/mplab c32 suite/bin/../lib/gcc/pic32mx/4.5.1/../../../../pic32mx/lib/size\libc.a(sbrk.o)
 .debug_frame   0x00002570       0x20 c:/program files (x86)/microchip/mplab c32 suite/bin/../lib/gcc/pic32mx/4.5.1/../../../../pic32mx/lib/size\libc.a(default-bootstrap-exception-handler.o)
 .debug_frame   0x00002590       0x20 c:/program files (x86)/microchip/mplab c32 suite/bin/../lib/gcc/pic32mx/4.5.1/../../../../pic32mx/lib/size\libc.a(default-on-reset.o)
 .debug_frame   0x000025b0       0x20 c:/program files (x86)/microchip/mplab c32 suite/bin/../lib/gcc/pic32mx/4.5.1/../../../../pic32mx/lib/size\libc.a(default-on-bootstrap.o)
 .debug_frame   0x000025d0       0x20 c:/program files (x86)/microchip/mplab c32 suite/bin/../lib/gcc/pic32mx/4.5.1/../../../../pic32mx/lib/size\libc.a(strncmp.o)
 .debug_frame   0x000025f0       0x20 c:/program files (x86)/microchip/mplab c32 suite/bin/../lib/gcc/pic32mx/4.5.1/../../../../pic32mx/lib/size\libmchp_peripheral.a(read_core_timer_lib.o)
 .debug_frame   0x00002610       0xb8 c:/program files (x86)/microchip/mplab c32 suite/bin/../lib/gcc/pic32mx/4.5.1/../../../../pic32mx/lib/size\libmchp_peripheral_32MX795F512L.a(eth_ack_packet_lib.o)
 .debug_frame   0x000026c8       0x54 c:/program files (x86)/microchip/mplab c32 suite/bin/../lib/gcc/pic32mx/4.5.1/../../../../pic32mx/lib/size\libmchp_peripheral_32MX795F512L.a(eth_descriptors_add_lib.o)
 .debug_frame   0x0000271c       0x28 c:/program files (x86)/microchip/mplab c32 suite/bin/../lib/gcc/pic32mx/4.5.1/../../../../pic32mx/lib/size\libmchp_peripheral_32MX795F512L.a(eth_init_lib.o)
 .debug_frame   0x00002744       0x20 c:/program files (x86)/microchip/mplab c32 suite/bin/../lib/gcc/pic32mx/4.5.1/../../../../pic32mx/lib/size\libmchp_peripheral_32MX795F512L.a(eth_mac_open_lib.o)
 .debug_frame   0x00002764       0x50 c:/program files (x86)/microchip/mplab c32 suite/bin/../lib/gcc/pic32mx/4.5.1/../../../../pic32mx/lib/size\libmchp_peripheral_32MX795F512L.a(eth_mac_set_address_max_lib.o)
 .debug_frame   0x000027b4       0x2c c:/program files (x86)/microchip/mplab c32 suite/bin/../lib/gcc/pic32mx/4.5.1/../../../../pic32mx/lib/size\libmchp_peripheral_32MX795F512L.a(eth_rx_buffers_append_lib.o)
 .debug_frame   0x000027e0       0x70 c:/program files (x86)/microchip/mplab c32 suite/bin/../lib/gcc/pic32mx/4.5.1/../../../../pic32mx/lib/size\libmchp_peripheral_32MX795F512L.a(eth_rx_filters_lib.o)
 .debug_frame   0x00002850       0x3c c:/program files (x86)/microchip/mplab c32 suite/bin/../lib/gcc/pic32mx/4.5.1/../../../../pic32mx/lib/size\libmchp_peripheral_32MX795F512L.a(eth_rx_get_packet_lib.o)
 .debug_frame   0x0000288c       0x20 c:/program files (x86)/microchip/mplab c32 suite/bin/../lib/gcc/pic32mx/4.5.1/../../../../pic32mx/lib/size\libmchp_peripheral_32MX795F512L.a(eth_rx_set_buffer_size_lib.o)
 .debug_frame   0x000028ac       0x90 c:/program files (x86)/microchip/mplab c32 suite/bin/../lib/gcc/pic32mx/4.5.1/../../../../pic32mx/lib/size\libmchp_peripheral_32MX795F512L.a(eth_tx_packet_lib.o)
 .debug_frame   0x0000293c       0x30 c:/program files (x86)/microchip/mplab c32 suite/bin/../lib/gcc/pic32mx/4.5.1/../../../../pic32mx/lib/size\libmchp_peripheral_32MX795F512L.a(_eth_append_busy_list_lib.o)
 .debug_frame   0x0000296c       0x70 c:/program files (x86)/microchip/mplab c32 suite/bin/../lib/gcc/pic32mx/4.5.1/../../../../pic32mx/lib/size\libmchp_peripheral_32MX795F512L.a(eth_miim_access.o)
 .debug_frame   0x000029dc       0x28 c:/program files (x86)/microchip/mplab c32 suite/bin/../lib/gcc/pic32mx/4.5.1/../../../../pic32mx/lib/size\libmchp_peripheral_32MX795F512L.a(soft_reset_lib.o)
 .debug_frame   0x00002a04       0x30 c:/program files (x86)/microchip/mplab c32 suite/bin/../lib/gcc/pic32mx/4.5.1/../../../../pic32mx/lib/size\libmchp_peripheral_32MX795F512L.a(pcache.o)
 .debug_frame   0x00002a34       0x20 c:/program files (x86)/microchip/mplab c32 suite/bin/../lib/gcc/pic32mx/4.5.1/../../../../pic32mx/lib/size\libmchp_peripheral_32MX795F512L.a(int_disable_interrupts_lib.o)
 .debug_frame   0x00002a54       0x20 c:/program files (x86)/microchip/mplab c32 suite/bin/../lib/gcc/pic32mx/4.5.1/../../../../pic32mx/lib/size\libmchp_peripheral_32MX795F512L.a(int_restore_interrupts_lib.o)
 .debug_frame   0x00002a74       0x28 c:/program files (x86)/microchip/mplab c32 suite/bin/../lib/gcc/pic32mx/4.5.1/../../../../pic32mx/lib/size\libmchp_peripheral_32MX795F512L.a(int_enable_mv_int_lib.o)
 .debug_frame   0x00002a9c       0xa0 c:/program files (x86)/microchip/mplab c32 suite/bin/../lib/gcc/pic32mx/4.5.1/../../../../pic32mx/lib/size\libmchp_peripheral_32MX795F512L.a(int_tbl_lib.o)
 .debug_frame   0x00002b3c       0x20 c:/program files (x86)/microchip/mplab c32 suite/bin/../lib/gcc/pic32mx/4.5.1/../../../../pic32mx/lib/size\libmchp_peripheral_32MX795F512L.a(port_set_pins_digital_in_lib.o)
 .debug_frame   0x00002b5c       0x20 c:/program files (x86)/microchip/mplab c32 suite/bin/../lib/gcc/pic32mx/4.5.1/../../../../pic32mx/lib/size\libmchp_peripheral_32MX795F512L.a(port_set_pins_digital_out_lib.o)
 .debug_frame   0x00002b7c       0x90 c:/program files (x86)/microchip/mplab c32 suite/bin/../lib/gcc/pic32mx/4.5.1/../../../../pic32mx/lib/size\libmchp_peripheral_32MX795F512L.a(uart_lib.o)
 .debug_frame   0x00002c0c       0x20 c:/program files (x86)/microchip/mplab c32 suite/bin/../lib/gcc/pic32mx/4.5.1/../../../../pic32mx/lib/size\libmchp_peripheral_32MX795F512L.a(int_enable_interrupts_lib.o)

.debug_str      0x00000000     0x4fcd
 *(.debug_str)
 .debug_str     0x00000000      0x1d7 Objects - TCPIP PIC32 ETH Demo App-C32\MainDemo.o
 .debug_str     0x000001d7      0x209 Objects - TCPIP PIC32 ETH Demo App-C32\CustomHTTPApp.o
 .debug_str     0x000003e0      0x12f Objects - TCPIP PIC32 ETH Demo App-C32\UDPPerformanceTest.o
 .debug_str     0x0000050f      0x15b Objects - TCPIP PIC32 ETH Demo App-C32\Announce.o
 .debug_str     0x0000066a      0x147 Objects - TCPIP PIC32 ETH Demo App-C32\ARP.o
 .debug_str     0x000007b1      0x12f Objects - TCPIP PIC32 ETH Demo App-C32\Delay.o
 .debug_str     0x000008e0      0x177 Objects - TCPIP PIC32 ETH Demo App-C32\DHCP.o
 .debug_str     0x00000a57      0x165 Objects - TCPIP PIC32 ETH Demo App-C32\DHCPs.o
 .debug_str     0x00000bbc      0x139 Objects - TCPIP PIC32 ETH Demo App-C32\DNS.o
 .debug_str     0x00000cf5      0x184 Objects - TCPIP PIC32 ETH Demo App-C32\DynDNS.o
 .debug_str     0x00000e79      0x12f Objects - TCPIP PIC32 ETH Demo App-C32\ENC28J60.o
 .debug_str     0x00000fa8      0x12f Objects - TCPIP PIC32 ETH Demo App-C32\FTP.o
 .debug_str     0x000010d7      0x140 Objects - TCPIP PIC32 ETH Demo App-C32\Hashes.o
 .debug_str     0x00001217      0x159 Objects - TCPIP PIC32 ETH Demo App-C32\Helpers.o
 .debug_str     0x00001370      0x15b Objects - TCPIP PIC32 ETH Demo App-C32\HTTP2.o
 .debug_str     0x000014cb      0x12f Objects - TCPIP PIC32 ETH Demo App-C32\HTTP.o
 .debug_str     0x000015fa      0x12f Objects - TCPIP PIC32 ETH Demo App-C32\ICMP.o
 .debug_str     0x00001729      0x142 Objects - TCPIP PIC32 ETH Demo App-C32\IP.o
 .debug_str     0x0000186b      0x12f Objects - TCPIP PIC32 ETH Demo App-C32\LCDBlocking.o
 .debug_str     0x0000199a      0x153 Objects - TCPIP PIC32 ETH Demo App-C32\MPFS2.o
 .debug_str     0x00001aed      0x12f Objects - TCPIP PIC32 ETH Demo App-C32\MPFS.o
 .debug_str     0x00001c1c      0x152 Objects - TCPIP PIC32 ETH Demo App-C32\NBNS.o
 .debug_str     0x00001d6e      0x14d Objects - TCPIP PIC32 ETH Demo App-C32\Reboot.o
 .debug_str     0x00001ebb      0x182 Objects - TCPIP PIC32 ETH Demo App-C32\SMTP.o
 .debug_str     0x0000203d      0x12f Objects - TCPIP PIC32 ETH Demo App-C32\SNMP.o
 .debug_str     0x0000216c      0x12f Objects - TCPIP PIC32 ETH Demo App-C32\SNTP.o
 .debug_str     0x0000229b      0x12f Objects - TCPIP PIC32 ETH Demo App-C32\SPIEEPROM.o
 .debug_str     0x000023ca      0x12f Objects - TCPIP PIC32 ETH Demo App-C32\SPIFlash.o
 .debug_str     0x000024f9      0x12f Objects - TCPIP PIC32 ETH Demo App-C32\SPIRAM.o
 .debug_str     0x00002628      0x144 Objects - TCPIP PIC32 ETH Demo App-C32\StackTsk.o
 .debug_str     0x0000276c      0x1fa Objects - TCPIP PIC32 ETH Demo App-C32\TCP.o
 .debug_str     0x00002966      0x144 Objects - TCPIP PIC32 ETH Demo App-C32\TCPPerformanceTest.o
 .debug_str     0x00002aaa      0x14c Objects - TCPIP PIC32 ETH Demo App-C32\Telnet.o
 .debug_str     0x00002bf6      0x12f Objects - TCPIP PIC32 ETH Demo App-C32\TFTPc.o
 .debug_str     0x00002d25      0x14b Objects - TCPIP PIC32 ETH Demo App-C32\Tick.o
 .debug_str     0x00002e70      0x12f Objects - TCPIP PIC32 ETH Demo App-C32\UART2TCPBridge.o
 .debug_str     0x00002f9f      0x1ae Objects - TCPIP PIC32 ETH Demo App-C32\UDP.o
 .debug_str     0x0000314d      0x12f Objects - TCPIP PIC32 ETH Demo App-C32\CustomSNMPApp.o
 .debug_str     0x0000327c      0x139 Objects - TCPIP PIC32 ETH Demo App-C32\UARTConfig.o
 .debug_str     0x000033b5      0x139 Objects - TCPIP PIC32 ETH Demo App-C32\GenericTCPClient.o
 .debug_str     0x000034ee      0x12f Objects - TCPIP PIC32 ETH Demo App-C32\GenericTCPServer.o
 .debug_str     0x0000361d      0x12f Objects - TCPIP PIC32 ETH Demo App-C32\LegacyHTTPApp.o
 .debug_str     0x0000374c      0x139 Objects - TCPIP PIC32 ETH Demo App-C32\PingDemo.o
 .debug_str     0x00003885      0x178 Objects - TCPIP PIC32 ETH Demo App-C32\SMTPDemo.o
 .debug_str     0x000039fd      0x189 Objects - TCPIP PIC32 ETH Demo App-C32\BerkeleyAPI.o
 .debug_str     0x00003b86      0x12f Objects - TCPIP PIC32 ETH Demo App-C32\BerkeleyUDPClientDemo.o
 .debug_str     0x00003cb5      0x139 Objects - TCPIP PIC32 ETH Demo App-C32\BerkeleyTCPClientDemo.o
 .debug_str     0x00003dee      0x12f Objects - TCPIP PIC32 ETH Demo App-C32\BerkeleyTCPServerDemo.o
 .debug_str     0x00003f1d      0x12f Objects - TCPIP PIC32 ETH Demo App-C32\ENCX24J600.o
 .debug_str     0x0000404c      0x12f Objects - TCPIP PIC32 ETH Demo App-C32\MPFSImg2.o
 .debug_str     0x0000417b      0x12f Objects - TCPIP PIC32 ETH Demo App-C32\Random.o
 .debug_str     0x000042aa      0x12f Objects - TCPIP PIC32 ETH Demo App-C32\RSA.o
 .debug_str     0x000043d9      0x12f Objects - TCPIP PIC32 ETH Demo App-C32\SSL.o
 .debug_str     0x00004508      0x12f Objects - TCPIP PIC32 ETH Demo App-C32\ARCFOUR.o
 .debug_str     0x00004637      0x12f Objects - TCPIP PIC32 ETH Demo App-C32\BigInt.o
 .debug_str     0x00004766      0x12f Objects - TCPIP PIC32 ETH Demo App-C32\CustomSSLCert.o
 .debug_str     0x00004895      0x144 Objects - TCPIP PIC32 ETH Demo App-C32\AutoIP.o
 .debug_str     0x000049d9      0x1d9 Objects - TCPIP PIC32 ETH Demo App-C32\ETHPIC32IntMac.o
 .debug_str     0x00004bb2      0x1bd Objects - TCPIP PIC32 ETH Demo App-C32\ETHPIC32ExtPhy.o
 .debug_str     0x00004d6f      0x12f Objects - TCPIP PIC32 ETH Demo App-C32\ETHPIC32ExtPhyDP83848.o
 .debug_str     0x00004e9e      0x12f Objects - TCPIP PIC32 ETH Demo App-C32\UART.o
 .debug_str     0x00004fcd        0x0 c:/program files (x86)/microchip/mplab c32 suite/bin/../lib/gcc/pic32mx/4.5.1/size\libgcc.a(_udivdi3.o)
 .debug_str     0x00004fcd        0x0 c:/program files (x86)/microchip/mplab c32 suite/bin/../lib/gcc/pic32mx/4.5.1/../../../../pic32mx/lib/size\libc.a(atoi.o)
 .debug_str     0x00004fcd        0x0 c:/program files (x86)/microchip/mplab c32 suite/bin/../lib/gcc/pic32mx/4.5.1/../../../../pic32mx/lib/size\libc.a(atol.o)
 .debug_str     0x00004fcd        0x0 c:/program files (x86)/microchip/mplab c32 suite/bin/../lib/gcc/pic32mx/4.5.1/../../../../pic32mx/lib/size\libc.a(calloc.o)
 .debug_str     0x00004fcd        0x0 c:/program files (x86)/microchip/mplab c32 suite/bin/../lib/gcc/pic32mx/4.5.1/../../../../pic32mx/lib/size\libc.a(ctype.o)
 .debug_str     0x00004fcd        0x0 c:/program files (x86)/microchip/mplab c32 suite/bin/../lib/gcc/pic32mx/4.5.1/../../../../pic32mx/lib/size\libc.a(ltoa.o)
 .debug_str     0x00004fcd        0x0 c:/program files (x86)/microchip/mplab c32 suite/bin/../lib/gcc/pic32mx/4.5.1/../../../../pic32mx/lib/size\libc.a(malloc.o)
 .debug_str     0x00004fcd        0x0 c:/program files (x86)/microchip/mplab c32 suite/bin/../lib/gcc/pic32mx/4.5.1/../../../../pic32mx/lib/size\libc.a(strchr.o)
 .debug_str     0x00004fcd        0x0 c:/program files (x86)/microchip/mplab c32 suite/bin/../lib/gcc/pic32mx/4.5.1/../../../../pic32mx/lib/size\libc.a(strncpy.o)
 .debug_str     0x00004fcd        0x0 c:/program files (x86)/microchip/mplab c32 suite/bin/../lib/gcc/pic32mx/4.5.1/../../../../pic32mx/lib/size\libc.a(strstr.o)
 .debug_str     0x00004fcd        0x0 c:/program files (x86)/microchip/mplab c32 suite/bin/../lib/gcc/pic32mx/4.5.1/../../../../pic32mx/lib/size\libc.a(sbrk.o)
 .debug_str     0x00004fcd        0x0 c:/program files (x86)/microchip/mplab c32 suite/bin/../lib/gcc/pic32mx/4.5.1/../../../../pic32mx/lib/size\libc.a(default-bootstrap-exception-handler.o)
 .debug_str     0x00004fcd        0x0 c:/program files (x86)/microchip/mplab c32 suite/bin/../lib/gcc/pic32mx/4.5.1/../../../../pic32mx/lib/size\libc.a(default-on-reset.o)
 .debug_str     0x00004fcd        0x0 c:/program files (x86)/microchip/mplab c32 suite/bin/../lib/gcc/pic32mx/4.5.1/../../../../pic32mx/lib/size\libc.a(default-on-bootstrap.o)
 .debug_str     0x00004fcd        0x0 c:/program files (x86)/microchip/mplab c32 suite/bin/../lib/gcc/pic32mx/4.5.1/../../../../pic32mx/lib/size\libc.a(errno.o)
 .debug_str     0x00004fcd        0x0 c:/program files (x86)/microchip/mplab c32 suite/bin/../lib/gcc/pic32mx/4.5.1/../../../../pic32mx/lib/size\libc.a(strncmp.o)
 .debug_str     0x00004fcd        0x0 c:/program files (x86)/microchip/mplab c32 suite/bin/../lib/gcc/pic32mx/4.5.1/../../../../pic32mx/lib/size\libmchp_peripheral.a(read_core_timer_lib.o)
 .debug_str     0x00004fcd        0x0 c:/program files (x86)/microchip/mplab c32 suite/bin/../lib/gcc/pic32mx/4.5.1/../../../../pic32mx/lib/size\libmchp_peripheral_32MX795F512L.a(eth_ack_packet_lib.o)
 .debug_str     0x00004fcd        0x0 c:/program files (x86)/microchip/mplab c32 suite/bin/../lib/gcc/pic32mx/4.5.1/../../../../pic32mx/lib/size\libmchp_peripheral_32MX795F512L.a(eth_descriptors_add_lib.o)
 .debug_str     0x00004fcd        0x0 c:/program files (x86)/microchip/mplab c32 suite/bin/../lib/gcc/pic32mx/4.5.1/../../../../pic32mx/lib/size\libmchp_peripheral_32MX795F512L.a(eth_init_lib.o)
 .debug_str     0x00004fcd        0x0 c:/program files (x86)/microchip/mplab c32 suite/bin/../lib/gcc/pic32mx/4.5.1/../../../../pic32mx/lib/size\libmchp_peripheral_32MX795F512L.a(eth_mac_open_lib.o)
 .debug_str     0x00004fcd        0x0 c:/program files (x86)/microchip/mplab c32 suite/bin/../lib/gcc/pic32mx/4.5.1/../../../../pic32mx/lib/size\libmchp_peripheral_32MX795F512L.a(eth_mac_set_address_max_lib.o)
 .debug_str     0x00004fcd        0x0 c:/program files (x86)/microchip/mplab c32 suite/bin/../lib/gcc/pic32mx/4.5.1/../../../../pic32mx/lib/size\libmchp_peripheral_32MX795F512L.a(eth_rx_buffers_append_lib.o)
 .debug_str     0x00004fcd        0x0 c:/program files (x86)/microchip/mplab c32 suite/bin/../lib/gcc/pic32mx/4.5.1/../../../../pic32mx/lib/size\libmchp_peripheral_32MX795F512L.a(eth_rx_filters_lib.o)
 .debug_str     0x00004fcd        0x0 c:/program files (x86)/microchip/mplab c32 suite/bin/../lib/gcc/pic32mx/4.5.1/../../../../pic32mx/lib/size\libmchp_peripheral_32MX795F512L.a(eth_rx_get_packet_lib.o)
 .debug_str     0x00004fcd        0x0 c:/program files (x86)/microchip/mplab c32 suite/bin/../lib/gcc/pic32mx/4.5.1/../../../../pic32mx/lib/size\libmchp_peripheral_32MX795F512L.a(eth_rx_set_buffer_size_lib.o)
 .debug_str     0x00004fcd        0x0 c:/program files (x86)/microchip/mplab c32 suite/bin/../lib/gcc/pic32mx/4.5.1/../../../../pic32mx/lib/size\libmchp_peripheral_32MX795F512L.a(eth_tx_packet_lib.o)
 .debug_str     0x00004fcd        0x0 c:/program files (x86)/microchip/mplab c32 suite/bin/../lib/gcc/pic32mx/4.5.1/../../../../pic32mx/lib/size\libmchp_peripheral_32MX795F512L.a(_eth_append_busy_list_lib.o)
 .debug_str     0x00004fcd        0x0 c:/program files (x86)/microchip/mplab c32 suite/bin/../lib/gcc/pic32mx/4.5.1/../../../../pic32mx/lib/size\libmchp_peripheral_32MX795F512L.a(eth_miim_access.o)
 .debug_str     0x00004fcd        0x0 c:/program files (x86)/microchip/mplab c32 suite/bin/../lib/gcc/pic32mx/4.5.1/../../../../pic32mx/lib/size\libmchp_peripheral_32MX795F512L.a(soft_reset_lib.o)
 .debug_str     0x00004fcd        0x0 c:/program files (x86)/microchip/mplab c32 suite/bin/../lib/gcc/pic32mx/4.5.1/../../../../pic32mx/lib/size\libmchp_peripheral_32MX795F512L.a(pcache.o)
 .debug_str     0x00004fcd        0x0 c:/program files (x86)/microchip/mplab c32 suite/bin/../lib/gcc/pic32mx/4.5.1/../../../../pic32mx/lib/size\libmchp_peripheral_32MX795F512L.a(int_disable_interrupts_lib.o)
 .debug_str     0x00004fcd        0x0 c:/program files (x86)/microchip/mplab c32 suite/bin/../lib/gcc/pic32mx/4.5.1/../../../../pic32mx/lib/size\libmchp_peripheral_32MX795F512L.a(int_restore_interrupts_lib.o)
 .debug_str     0x00004fcd        0x0 c:/program files (x86)/microchip/mplab c32 suite/bin/../lib/gcc/pic32mx/4.5.1/../../../../pic32mx/lib/size\libmchp_peripheral_32MX795F512L.a(int_enable_mv_int_lib.o)
 .debug_str     0x00004fcd        0x0 c:/program files (x86)/microchip/mplab c32 suite/bin/../lib/gcc/pic32mx/4.5.1/../../../../pic32mx/lib/size\libmchp_peripheral_32MX795F512L.a(int_tbl_lib.o)
 .debug_str     0x00004fcd        0x0 c:/program files (x86)/microchip/mplab c32 suite/bin/../lib/gcc/pic32mx/4.5.1/../../../../pic32mx/lib/size\libmchp_peripheral_32MX795F512L.a(port_set_pins_digital_in_lib.o)
 .debug_str     0x00004fcd        0x0 c:/program files (x86)/microchip/mplab c32 suite/bin/../lib/gcc/pic32mx/4.5.1/../../../../pic32mx/lib/size\libmchp_peripheral_32MX795F512L.a(port_set_pins_digital_out_lib.o)
 .debug_str     0x00004fcd        0x0 c:/program files (x86)/microchip/mplab c32 suite/bin/../lib/gcc/pic32mx/4.5.1/../../../../pic32mx/lib/size\libmchp_peripheral_32MX795F512L.a(_ports_tbl_libp.o)
 .debug_str     0x00004fcd        0x0 c:/program files (x86)/microchip/mplab c32 suite/bin/../lib/gcc/pic32mx/4.5.1/../../../../pic32mx/lib/size\libmchp_peripheral_32MX795F512L.a(uart_lib.o)
 .debug_str     0x00004fcd        0x0 c:/program files (x86)/microchip/mplab c32 suite/bin/../lib/gcc/pic32mx/4.5.1/../../../../pic32mx/lib/size\libmchp_peripheral_32MX795F512L.a(int_enable_interrupts_lib.o)

.debug_loc      0x00000000      0xa47
 *(.debug_loc)
 .debug_loc     0x00000000      0xa47 c:/program files (x86)/microchip/mplab c32 suite/bin/../lib/gcc/pic32mx/4.5.1/size\libgcc.a(_udivdi3.o)

.debug_macinfo
 *(.debug_macinfo)

.debug_weaknames
 *(.debug_weaknames)

.debug_funcnames
 *(.debug_funcnames)

.debug_typenames
 *(.debug_typenames)

.debug_varnames
 *(.debug_varnames)

.debug_pubtypes
                0x00000000     0x4f4a
 *(.debug_pubtypes)
 .debug_pubtypes
                0x00000000      0x21e Objects - TCPIP PIC32 ETH Demo App-C32\MainDemo.o
 .debug_pubtypes
                0x0000021e      0x251 Objects - TCPIP PIC32 ETH Demo App-C32\CustomHTTPApp.o
 .debug_pubtypes
                0x0000046f       0xe7 Objects - TCPIP PIC32 ETH Demo App-C32\UDPPerformanceTest.o
 .debug_pubtypes
                0x00000556      0x19a Objects - TCPIP PIC32 ETH Demo App-C32\Announce.o
 .debug_pubtypes
                0x000006f0      0x17e Objects - TCPIP PIC32 ETH Demo App-C32\ARP.o
 .debug_pubtypes
                0x0000086e       0xfa Objects - TCPIP PIC32 ETH Demo App-C32\Delay.o
 .debug_pubtypes
                0x00000968      0x1d8 Objects - TCPIP PIC32 ETH Demo App-C32\DHCP.o
 .debug_pubtypes
                0x00000b40      0x1be Objects - TCPIP PIC32 ETH Demo App-C32\DHCPs.o
 .debug_pubtypes
                0x00000cfe      0x1ad Objects - TCPIP PIC32 ETH Demo App-C32\DNS.o
 .debug_pubtypes
                0x00000eab      0x187 Objects - TCPIP PIC32 ETH Demo App-C32\DynDNS.o
 .debug_pubtypes
                0x00001032       0xe7 Objects - TCPIP PIC32 ETH Demo App-C32\ENC28J60.o
 .debug_pubtypes
                0x00001119       0xe7 Objects - TCPIP PIC32 ETH Demo App-C32\FTP.o
 .debug_pubtypes
                0x00001200      0x11e Objects - TCPIP PIC32 ETH Demo App-C32\Hashes.o
 .debug_pubtypes
                0x0000131e      0x156 Objects - TCPIP PIC32 ETH Demo App-C32\Helpers.o
 .debug_pubtypes
                0x00001474      0x1c4 Objects - TCPIP PIC32 ETH Demo App-C32\HTTP2.o
 .debug_pubtypes
                0x00001638       0xe7 Objects - TCPIP PIC32 ETH Demo App-C32\HTTP.o
 .debug_pubtypes
                0x0000171f      0x16f Objects - TCPIP PIC32 ETH Demo App-C32\ICMP.o
 .debug_pubtypes
                0x0000188e      0x18c Objects - TCPIP PIC32 ETH Demo App-C32\IP.o
 .debug_pubtypes
                0x00001a1a       0xe7 Objects - TCPIP PIC32 ETH Demo App-C32\LCDBlocking.o
 .debug_pubtypes
                0x00001b01      0x168 Objects - TCPIP PIC32 ETH Demo App-C32\MPFS2.o
 .debug_pubtypes
                0x00001c69       0xe7 Objects - TCPIP PIC32 ETH Demo App-C32\MPFS.o
 .debug_pubtypes
                0x00001d50      0x1bb Objects - TCPIP PIC32 ETH Demo App-C32\NBNS.o
 .debug_pubtypes
                0x00001f0b      0x17c Objects - TCPIP PIC32 ETH Demo App-C32\Reboot.o
 .debug_pubtypes
                0x00002087      0x165 Objects - TCPIP PIC32 ETH Demo App-C32\SMTP.o
 .debug_pubtypes
                0x000021ec       0xe7 Objects - TCPIP PIC32 ETH Demo App-C32\SNMP.o
 .debug_pubtypes
                0x000022d3      0x13e Objects - TCPIP PIC32 ETH Demo App-C32\SNTP.o
 .debug_pubtypes
                0x00002411       0xe7 Objects - TCPIP PIC32 ETH Demo App-C32\SPIEEPROM.o
 .debug_pubtypes
                0x000024f8       0xe7 Objects - TCPIP PIC32 ETH Demo App-C32\SPIFlash.o
 .debug_pubtypes
                0x000025df       0xe7 Objects - TCPIP PIC32 ETH Demo App-C32\SPIRAM.o
 .debug_pubtypes
                0x000026c6      0x17c Objects - TCPIP PIC32 ETH Demo App-C32\StackTsk.o
 .debug_pubtypes
                0x00002842      0x224 Objects - TCPIP PIC32 ETH Demo App-C32\TCP.o
 .debug_pubtypes
                0x00002a66      0x137 Objects - TCPIP PIC32 ETH Demo App-C32\TCPPerformanceTest.o
 .debug_pubtypes
                0x00002b9d      0x148 Objects - TCPIP PIC32 ETH Demo App-C32\Telnet.o
 .debug_pubtypes
                0x00002ce5       0xe7 Objects - TCPIP PIC32 ETH Demo App-C32\TFTPc.o
 .debug_pubtypes
                0x00002dcc      0x137 Objects - TCPIP PIC32 ETH Demo App-C32\Tick.o
 .debug_pubtypes
                0x00002f03       0xe7 Objects - TCPIP PIC32 ETH Demo App-C32\UART2TCPBridge.o
 .debug_pubtypes
                0x00002fea      0x1eb Objects - TCPIP PIC32 ETH Demo App-C32\UDP.o
 .debug_pubtypes
                0x000031d5       0xe7 Objects - TCPIP PIC32 ETH Demo App-C32\CustomSNMPApp.o
 .debug_pubtypes
                0x000032bc      0x186 Objects - TCPIP PIC32 ETH Demo App-C32\UARTConfig.o
 .debug_pubtypes
                0x00003442      0x151 Objects - TCPIP PIC32 ETH Demo App-C32\GenericTCPClient.o
 .debug_pubtypes
                0x00003593      0x108 Objects - TCPIP PIC32 ETH Demo App-C32\GenericTCPServer.o
 .debug_pubtypes
                0x0000369b       0xe7 Objects - TCPIP PIC32 ETH Demo App-C32\LegacyHTTPApp.o
 .debug_pubtypes
                0x00003782      0x11f Objects - TCPIP PIC32 ETH Demo App-C32\PingDemo.o
 .debug_pubtypes
                0x000038a1      0x142 Objects - TCPIP PIC32 ETH Demo App-C32\SMTPDemo.o
 .debug_pubtypes
                0x000039e3      0x21b Objects - TCPIP PIC32 ETH Demo App-C32\BerkeleyAPI.o
 .debug_pubtypes
                0x00003bfe      0x174 Objects - TCPIP PIC32 ETH Demo App-C32\BerkeleyUDPClientDemo.o
 .debug_pubtypes
                0x00003d72      0x187 Objects - TCPIP PIC32 ETH Demo App-C32\BerkeleyTCPClientDemo.o
 .debug_pubtypes
                0x00003ef9      0x137 Objects - TCPIP PIC32 ETH Demo App-C32\BerkeleyTCPServerDemo.o
 .debug_pubtypes
                0x00004030       0xe7 Objects - TCPIP PIC32 ETH Demo App-C32\ENCX24J600.o
 .debug_pubtypes
                0x00004117       0xf0 Objects - TCPIP PIC32 ETH Demo App-C32\MPFSImg2.o
 .debug_pubtypes
                0x00004207       0xe7 Objects - TCPIP PIC32 ETH Demo App-C32\Random.o
 .debug_pubtypes
                0x000042ee       0xe7 Objects - TCPIP PIC32 ETH Demo App-C32\RSA.o
 .debug_pubtypes
                0x000043d5       0xe7 Objects - TCPIP PIC32 ETH Demo App-C32\SSL.o
 .debug_pubtypes
                0x000044bc       0xe7 Objects - TCPIP PIC32 ETH Demo App-C32\ARCFOUR.o
 .debug_pubtypes
                0x000045a3       0xe7 Objects - TCPIP PIC32 ETH Demo App-C32\BigInt.o
 .debug_pubtypes
                0x0000468a       0xe7 Objects - TCPIP PIC32 ETH Demo App-C32\CustomSSLCert.o
 .debug_pubtypes
                0x00004771      0x1ae Objects - TCPIP PIC32 ETH Demo App-C32\AutoIP.o
 .debug_pubtypes
                0x0000491f      0x1f6 Objects - TCPIP PIC32 ETH Demo App-C32\ETHPIC32IntMac.o
 .debug_pubtypes
                0x00004b15      0x1ae Objects - TCPIP PIC32 ETH Demo App-C32\ETHPIC32ExtPhy.o
 .debug_pubtypes
                0x00004cc3      0x119 Objects - TCPIP PIC32 ETH Demo App-C32\ETHPIC32ExtPhyDP83848.o
 .debug_pubtypes
                0x00004ddc      0x115 Objects - TCPIP PIC32 ETH Demo App-C32\UART.o
 .debug_pubtypes
                0x00004ef1       0x59 c:/program files (x86)/microchip/mplab c32 suite/bin/../lib/gcc/pic32mx/4.5.1/size\libgcc.a(_udivdi3.o)

.debug_ranges   0x00000000      0x4f0
 *(.debug_ranges)
 .debug_ranges  0x00000000       0x30 Objects - TCPIP PIC32 ETH Demo App-C32\MainDemo.o
 .debug_ranges  0x00000030       0x18 Objects - TCPIP PIC32 ETH Demo App-C32\DHCPs.o
 .debug_ranges  0x00000048       0x18 Objects - TCPIP PIC32 ETH Demo App-C32\TCP.o
 .debug_ranges  0x00000060       0x18 Objects - TCPIP PIC32 ETH Demo App-C32\UDP.o
 .debug_ranges  0x00000078       0xc0 c:/program files (x86)/microchip/mplab c32 suite/bin/../lib/gcc/pic32mx/4.5.1/size\libgcc.a(_udivdi3.o)
 .debug_ranges  0x00000138       0x10 c:/program files (x86)/microchip/mplab c32 suite/bin/../lib/gcc/pic32mx/4.5.1/../../../../pic32mx/lib/size\libc.a(atoi.o)
 .debug_ranges  0x00000148       0x10 c:/program files (x86)/microchip/mplab c32 suite/bin/../lib/gcc/pic32mx/4.5.1/../../../../pic32mx/lib/size\libc.a(atol.o)
 .debug_ranges  0x00000158       0x10 c:/program files (x86)/microchip/mplab c32 suite/bin/../lib/gcc/pic32mx/4.5.1/../../../../pic32mx/lib/size\libc.a(calloc.o)
 .debug_ranges  0x00000168       0x18 c:/program files (x86)/microchip/mplab c32 suite/bin/../lib/gcc/pic32mx/4.5.1/../../../../pic32mx/lib/size\libc.a(ltoa.o)
 .debug_ranges  0x00000180       0x20 c:/program files (x86)/microchip/mplab c32 suite/bin/../lib/gcc/pic32mx/4.5.1/../../../../pic32mx/lib/size\libc.a(malloc.o)
 .debug_ranges  0x000001a0       0x10 c:/program files (x86)/microchip/mplab c32 suite/bin/../lib/gcc/pic32mx/4.5.1/../../../../pic32mx/lib/size\libc.a(strchr.o)
 .debug_ranges  0x000001b0       0x10 c:/program files (x86)/microchip/mplab c32 suite/bin/../lib/gcc/pic32mx/4.5.1/../../../../pic32mx/lib/size\libc.a(strncpy.o)
 .debug_ranges  0x000001c0       0x10 c:/program files (x86)/microchip/mplab c32 suite/bin/../lib/gcc/pic32mx/4.5.1/../../../../pic32mx/lib/size\libc.a(strstr.o)
 .debug_ranges  0x000001d0       0x30 c:/program files (x86)/microchip/mplab c32 suite/bin/../lib/gcc/pic32mx/4.5.1/../../../../pic32mx/lib/size\libc.a(sbrk.o)
 .debug_ranges  0x00000200       0x10 c:/program files (x86)/microchip/mplab c32 suite/bin/../lib/gcc/pic32mx/4.5.1/../../../../pic32mx/lib/size\libc.a(default-bootstrap-exception-handler.o)
 .debug_ranges  0x00000210       0x10 c:/program files (x86)/microchip/mplab c32 suite/bin/../lib/gcc/pic32mx/4.5.1/../../../../pic32mx/lib/size\libc.a(default-on-reset.o)
 .debug_ranges  0x00000220       0x10 c:/program files (x86)/microchip/mplab c32 suite/bin/../lib/gcc/pic32mx/4.5.1/../../../../pic32mx/lib/size\libc.a(default-on-bootstrap.o)
 .debug_ranges  0x00000230       0x10 c:/program files (x86)/microchip/mplab c32 suite/bin/../lib/gcc/pic32mx/4.5.1/../../../../pic32mx/lib/size\libc.a(strncmp.o)
 .debug_ranges  0x00000240       0x10 c:/program files (x86)/microchip/mplab c32 suite/bin/../lib/gcc/pic32mx/4.5.1/../../../../pic32mx/lib/size\libmchp_peripheral.a(read_core_timer_lib.o)
 .debug_ranges  0x00000250       0x38 c:/program files (x86)/microchip/mplab c32 suite/bin/../lib/gcc/pic32mx/4.5.1/../../../../pic32mx/lib/size\libmchp_peripheral_32MX795F512L.a(eth_ack_packet_lib.o)
 .debug_ranges  0x00000288       0x18 c:/program files (x86)/microchip/mplab c32 suite/bin/../lib/gcc/pic32mx/4.5.1/../../../../pic32mx/lib/size\libmchp_peripheral_32MX795F512L.a(eth_descriptors_add_lib.o)
 .debug_ranges  0x000002a0       0x10 c:/program files (x86)/microchip/mplab c32 suite/bin/../lib/gcc/pic32mx/4.5.1/../../../../pic32mx/lib/size\libmchp_peripheral_32MX795F512L.a(eth_init_lib.o)
 .debug_ranges  0x000002b0       0x10 c:/program files (x86)/microchip/mplab c32 suite/bin/../lib/gcc/pic32mx/4.5.1/../../../../pic32mx/lib/size\libmchp_peripheral_32MX795F512L.a(eth_mac_open_lib.o)
 .debug_ranges  0x000002c0       0x20 c:/program files (x86)/microchip/mplab c32 suite/bin/../lib/gcc/pic32mx/4.5.1/../../../../pic32mx/lib/size\libmchp_peripheral_32MX795F512L.a(eth_mac_set_address_max_lib.o)
 .debug_ranges  0x000002e0       0x10 c:/program files (x86)/microchip/mplab c32 suite/bin/../lib/gcc/pic32mx/4.5.1/../../../../pic32mx/lib/size\libmchp_peripheral_32MX795F512L.a(eth_rx_buffers_append_lib.o)
 .debug_ranges  0x000002f0       0x38 c:/program files (x86)/microchip/mplab c32 suite/bin/../lib/gcc/pic32mx/4.5.1/../../../../pic32mx/lib/size\libmchp_peripheral_32MX795F512L.a(eth_rx_filters_lib.o)
 .debug_ranges  0x00000328       0x18 c:/program files (x86)/microchip/mplab c32 suite/bin/../lib/gcc/pic32mx/4.5.1/../../../../pic32mx/lib/size\libmchp_peripheral_32MX795F512L.a(eth_rx_get_packet_lib.o)
 .debug_ranges  0x00000340       0x10 c:/program files (x86)/microchip/mplab c32 suite/bin/../lib/gcc/pic32mx/4.5.1/../../../../pic32mx/lib/size\libmchp_peripheral_32MX795F512L.a(eth_rx_set_buffer_size_lib.o)
 .debug_ranges  0x00000350       0x38 c:/program files (x86)/microchip/mplab c32 suite/bin/../lib/gcc/pic32mx/4.5.1/../../../../pic32mx/lib/size\libmchp_peripheral_32MX795F512L.a(eth_tx_packet_lib.o)
 .debug_ranges  0x00000388       0x10 c:/program files (x86)/microchip/mplab c32 suite/bin/../lib/gcc/pic32mx/4.5.1/../../../../pic32mx/lib/size\libmchp_peripheral_32MX795F512L.a(_eth_append_busy_list_lib.o)
 .debug_ranges  0x00000398       0x38 c:/program files (x86)/microchip/mplab c32 suite/bin/../lib/gcc/pic32mx/4.5.1/../../../../pic32mx/lib/size\libmchp_peripheral_32MX795F512L.a(eth_miim_access.o)
 .debug_ranges  0x000003d0       0x10 c:/program files (x86)/microchip/mplab c32 suite/bin/../lib/gcc/pic32mx/4.5.1/../../../../pic32mx/lib/size\libmchp_peripheral_32MX795F512L.a(soft_reset_lib.o)
 .debug_ranges  0x000003e0       0x18 c:/program files (x86)/microchip/mplab c32 suite/bin/../lib/gcc/pic32mx/4.5.1/../../../../pic32mx/lib/size\libmchp_peripheral_32MX795F512L.a(pcache.o)
 .debug_ranges  0x000003f8       0x10 c:/program files (x86)/microchip/mplab c32 suite/bin/../lib/gcc/pic32mx/4.5.1/../../../../pic32mx/lib/size\libmchp_peripheral_32MX795F512L.a(int_disable_interrupts_lib.o)
 .debug_ranges  0x00000408       0x10 c:/program files (x86)/microchip/mplab c32 suite/bin/../lib/gcc/pic32mx/4.5.1/../../../../pic32mx/lib/size\libmchp_peripheral_32MX795F512L.a(int_restore_interrupts_lib.o)
 .debug_ranges  0x00000418       0x10 c:/program files (x86)/microchip/mplab c32 suite/bin/../lib/gcc/pic32mx/4.5.1/../../../../pic32mx/lib/size\libmchp_peripheral_32MX795F512L.a(int_enable_mv_int_lib.o)
 .debug_ranges  0x00000428       0x50 c:/program files (x86)/microchip/mplab c32 suite/bin/../lib/gcc/pic32mx/4.5.1/../../../../pic32mx/lib/size\libmchp_peripheral_32MX795F512L.a(int_tbl_lib.o)
 .debug_ranges  0x00000478       0x10 c:/program files (x86)/microchip/mplab c32 suite/bin/../lib/gcc/pic32mx/4.5.1/../../../../pic32mx/lib/size\libmchp_peripheral_32MX795F512L.a(port_set_pins_digital_in_lib.o)
 .debug_ranges  0x00000488       0x10 c:/program files (x86)/microchip/mplab c32 suite/bin/../lib/gcc/pic32mx/4.5.1/../../../../pic32mx/lib/size\libmchp_peripheral_32MX795F512L.a(port_set_pins_digital_out_lib.o)
 .debug_ranges  0x00000498       0x48 c:/program files (x86)/microchip/mplab c32 suite/bin/../lib/gcc/pic32mx/4.5.1/../../../../pic32mx/lib/size\libmchp_peripheral_32MX795F512L.a(uart_lib.o)
 .debug_ranges  0x000004e0       0x10 c:/program files (x86)/microchip/mplab c32 suite/bin/../lib/gcc/pic32mx/4.5.1/../../../../pic32mx/lib/size\libmchp_peripheral_32MX795F512L.a(int_enable_interrupts_lib.o)

.gnu.attributes
                0x00000000       0x10
 *(.gnu.attributes)
 .gnu.attributes
                0x00000000       0x10 Objects - TCPIP PIC32 ETH Demo App-C32\MainDemo.o
 .gnu.attributes
                0x00000010       0x10 Objects - TCPIP PIC32 ETH Demo App-C32\CustomHTTPApp.o
 .gnu.attributes
                0x00000020       0x10 Objects - TCPIP PIC32 ETH Demo App-C32\UDPPerformanceTest.o
 .gnu.attributes
                0x00000030       0x10 Objects - TCPIP PIC32 ETH Demo App-C32\Announce.o
 .gnu.attributes
                0x00000040       0x10 Objects - TCPIP PIC32 ETH Demo App-C32\ARP.o
 .gnu.attributes
                0x00000050       0x10 Objects - TCPIP PIC32 ETH Demo App-C32\Delay.o
 .gnu.attributes
                0x00000060       0x10 Objects - TCPIP PIC32 ETH Demo App-C32\DHCP.o
 .gnu.attributes
                0x00000070       0x10 Objects - TCPIP PIC32 ETH Demo App-C32\DHCPs.o
 .gnu.attributes
                0x00000080       0x10 Objects - TCPIP PIC32 ETH Demo App-C32\DNS.o
 .gnu.attributes
                0x00000090       0x10 Objects - TCPIP PIC32 ETH Demo App-C32\DynDNS.o
 .gnu.attributes
                0x000000a0       0x10 Objects - TCPIP PIC32 ETH Demo App-C32\ENC28J60.o
 .gnu.attributes
                0x000000b0       0x10 Objects - TCPIP PIC32 ETH Demo App-C32\FTP.o
 .gnu.attributes
                0x000000c0       0x10 Objects - TCPIP PIC32 ETH Demo App-C32\Hashes.o
 .gnu.attributes
                0x000000d0       0x10 Objects - TCPIP PIC32 ETH Demo App-C32\Helpers.o
 .gnu.attributes
                0x000000e0       0x10 Objects - TCPIP PIC32 ETH Demo App-C32\HTTP2.o
 .gnu.attributes
                0x000000f0       0x10 Objects - TCPIP PIC32 ETH Demo App-C32\HTTP.o
 .gnu.attributes
                0x00000100       0x10 Objects - TCPIP PIC32 ETH Demo App-C32\ICMP.o
 .gnu.attributes
                0x00000110       0x10 Objects - TCPIP PIC32 ETH Demo App-C32\IP.o
 .gnu.attributes
                0x00000120       0x10 Objects - TCPIP PIC32 ETH Demo App-C32\LCDBlocking.o
 .gnu.attributes
                0x00000130       0x10 Objects - TCPIP PIC32 ETH Demo App-C32\MPFS2.o
 .gnu.attributes
                0x00000140       0x10 Objects - TCPIP PIC32 ETH Demo App-C32\MPFS.o
 .gnu.attributes
                0x00000150       0x10 Objects - TCPIP PIC32 ETH Demo App-C32\NBNS.o
 .gnu.attributes
                0x00000160       0x10 Objects - TCPIP PIC32 ETH Demo App-C32\Reboot.o
 .gnu.attributes
                0x00000170       0x10 Objects - TCPIP PIC32 ETH Demo App-C32\SMTP.o
 .gnu.attributes
                0x00000180       0x10 Objects - TCPIP PIC32 ETH Demo App-C32\SNMP.o
 .gnu.attributes
                0x00000190       0x10 Objects - TCPIP PIC32 ETH Demo App-C32\SNTP.o
 .gnu.attributes
                0x000001a0       0x10 Objects - TCPIP PIC32 ETH Demo App-C32\SPIEEPROM.o
 .gnu.attributes
                0x000001b0       0x10 Objects - TCPIP PIC32 ETH Demo App-C32\SPIFlash.o
 .gnu.attributes
                0x000001c0       0x10 Objects - TCPIP PIC32 ETH Demo App-C32\SPIRAM.o
 .gnu.attributes
                0x000001d0       0x10 Objects - TCPIP PIC32 ETH Demo App-C32\StackTsk.o
 .gnu.attributes
                0x000001e0       0x10 Objects - TCPIP PIC32 ETH Demo App-C32\TCP.o
 .gnu.attributes
                0x000001f0       0x10 Objects - TCPIP PIC32 ETH Demo App-C32\TCPPerformanceTest.o
 .gnu.attributes
                0x00000200       0x10 Objects - TCPIP PIC32 ETH Demo App-C32\Telnet.o
 .gnu.attributes
                0x00000210       0x10 Objects - TCPIP PIC32 ETH Demo App-C32\TFTPc.o
 .gnu.attributes
                0x00000220       0x10 Objects - TCPIP PIC32 ETH Demo App-C32\Tick.o
 .gnu.attributes
                0x00000230       0x10 Objects - TCPIP PIC32 ETH Demo App-C32\UART2TCPBridge.o
 .gnu.attributes
                0x00000240       0x10 Objects - TCPIP PIC32 ETH Demo App-C32\UDP.o
 .gnu.attributes
                0x00000250       0x10 Objects - TCPIP PIC32 ETH Demo App-C32\CustomSNMPApp.o
 .gnu.attributes
                0x00000260       0x10 Objects - TCPIP PIC32 ETH Demo App-C32\UARTConfig.o
 .gnu.attributes
                0x00000270       0x10 Objects - TCPIP PIC32 ETH Demo App-C32\GenericTCPClient.o
 .gnu.attributes
                0x00000280       0x10 Objects - TCPIP PIC32 ETH Demo App-C32\GenericTCPServer.o
 .gnu.attributes
                0x00000290       0x10 Objects - TCPIP PIC32 ETH Demo App-C32\LegacyHTTPApp.o
 .gnu.attributes
                0x000002a0       0x10 Objects - TCPIP PIC32 ETH Demo App-C32\PingDemo.o
 .gnu.attributes
                0x000002b0       0x10 Objects - TCPIP PIC32 ETH Demo App-C32\SMTPDemo.o
 .gnu.attributes
                0x000002c0       0x10 Objects - TCPIP PIC32 ETH Demo App-C32\BerkeleyAPI.o
 .gnu.attributes
                0x000002d0       0x10 Objects - TCPIP PIC32 ETH Demo App-C32\BerkeleyUDPClientDemo.o
 .gnu.attributes
                0x000002e0       0x10 Objects - TCPIP PIC32 ETH Demo App-C32\BerkeleyTCPClientDemo.o
 .gnu.attributes
                0x000002f0       0x10 Objects - TCPIP PIC32 ETH Demo App-C32\BerkeleyTCPServerDemo.o
 .gnu.attributes
                0x00000300       0x10 Objects - TCPIP PIC32 ETH Demo App-C32\ENCX24J600.o
 .gnu.attributes
                0x00000310       0x10 Objects - TCPIP PIC32 ETH Demo App-C32\MPFSImg2.o
 .gnu.attributes
                0x00000320       0x10 Objects - TCPIP PIC32 ETH Demo App-C32\Random.o
 .gnu.attributes
                0x00000330       0x10 Objects - TCPIP PIC32 ETH Demo App-C32\RSA.o
 .gnu.attributes
                0x00000340       0x10 Objects - TCPIP PIC32 ETH Demo App-C32\SSL.o
 .gnu.attributes
                0x00000350       0x10 Objects - TCPIP PIC32 ETH Demo App-C32\ARCFOUR.o
 .gnu.attributes
                0x00000360       0x10 Objects - TCPIP PIC32 ETH Demo App-C32\BigInt.o
 .gnu.attributes
                0x00000370       0x10 Objects - TCPIP PIC32 ETH Demo App-C32\CustomSSLCert.o
 .gnu.attributes
                0x00000380       0x10 Objects - TCPIP PIC32 ETH Demo App-C32\AutoIP.o
 .gnu.attributes
                0x00000390       0x10 Objects - TCPIP PIC32 ETH Demo App-C32\ETHPIC32IntMac.o
 .gnu.attributes
                0x000003a0       0x10 Objects - TCPIP PIC32 ETH Demo App-C32\ETHPIC32ExtPhy.o
 .gnu.attributes
                0x000003b0       0x10 Objects - TCPIP PIC32 ETH Demo App-C32\ETHPIC32ExtPhyDP83848.o
 .gnu.attributes
                0x000003c0       0x10 Objects - TCPIP PIC32 ETH Demo App-C32\UART.o
 .gnu.attributes
                0x000003d0       0x10 c:/program files (x86)/microchip/mplab c32 suite/bin/../lib/gcc/pic32mx/4.5.1/size\libgcc.a(_udivdi3.o)
 .gnu.attributes
                0x000003e0       0x10 c:/program files (x86)/microchip/mplab c32 suite/bin/../lib/gcc/pic32mx/4.5.1/../../../../pic32mx/lib/size\libc.a(atoi.o)
 .gnu.attributes
                0x000003f0       0x10 c:/program files (x86)/microchip/mplab c32 suite/bin/../lib/gcc/pic32mx/4.5.1/../../../../pic32mx/lib/size\libc.a(atol.o)
 .gnu.attributes
                0x00000400       0x10 c:/program files (x86)/microchip/mplab c32 suite/bin/../lib/gcc/pic32mx/4.5.1/../../../../pic32mx/lib/size\libc.a(calloc.o)
 .gnu.attributes
                0x00000410       0x10 c:/program files (x86)/microchip/mplab c32 suite/bin/../lib/gcc/pic32mx/4.5.1/../../../../pic32mx/lib/size\libc.a(ctype.o)
 .gnu.attributes
                0x00000420       0x10 c:/program files (x86)/microchip/mplab c32 suite/bin/../lib/gcc/pic32mx/4.5.1/../../../../pic32mx/lib/size\libc.a(ltoa.o)
 .gnu.attributes
                0x00000430       0x10 c:/program files (x86)/microchip/mplab c32 suite/bin/../lib/gcc/pic32mx/4.5.1/../../../../pic32mx/lib/size\libc.a(malloc.o)
 .gnu.attributes
                0x00000440       0x10 c:/program files (x86)/microchip/mplab c32 suite/bin/../lib/gcc/pic32mx/4.5.1/../../../../pic32mx/lib/size\libc.a(strchr.o)
 .gnu.attributes
                0x00000450       0x10 c:/program files (x86)/microchip/mplab c32 suite/bin/../lib/gcc/pic32mx/4.5.1/../../../../pic32mx/lib/size\libc.a(strncpy.o)
 .gnu.attributes
                0x00000460       0x10 c:/program files (x86)/microchip/mplab c32 suite/bin/../lib/gcc/pic32mx/4.5.1/../../../../pic32mx/lib/size\libc.a(strstr.o)
 .gnu.attributes
                0x00000470       0x10 c:/program files (x86)/microchip/mplab c32 suite/bin/../lib/gcc/pic32mx/4.5.1/../../../../pic32mx/lib/size\libc.a(sbrk.o)
 .gnu.attributes
                0x00000480       0x10 c:/program files (x86)/microchip/mplab c32 suite/bin/../lib/gcc/pic32mx/4.5.1/../../../../pic32mx/lib/size\libc.a(default-bootstrap-exception-handler.o)
 .gnu.attributes
                0x00000490       0x10 c:/program files (x86)/microchip/mplab c32 suite/bin/../lib/gcc/pic32mx/4.5.1/../../../../pic32mx/lib/size\libc.a(default-on-reset.o)
 .gnu.attributes
                0x000004a0       0x10 c:/program files (x86)/microchip/mplab c32 suite/bin/../lib/gcc/pic32mx/4.5.1/../../../../pic32mx/lib/size\libc.a(default-on-bootstrap.o)
 .gnu.attributes
                0x000004b0       0x10 c:/program files (x86)/microchip/mplab c32 suite/bin/../lib/gcc/pic32mx/4.5.1/../../../../pic32mx/lib/size\libc.a(errno.o)
 .gnu.attributes
                0x000004c0       0x10 c:/program files (x86)/microchip/mplab c32 suite/bin/../lib/gcc/pic32mx/4.5.1/../../../../pic32mx/lib/size\libc.a(strncmp.o)
 .gnu.attributes
                0x000004d0       0x10 c:/program files (x86)/microchip/mplab c32 suite/bin/../lib/gcc/pic32mx/4.5.1/../../../../pic32mx/lib/size\libmchp_peripheral.a(read_core_timer_lib.o)
 .gnu.attributes
                0x000004e0       0x10 c:/program files (x86)/microchip/mplab c32 suite/bin/../lib/gcc/pic32mx/4.5.1/../../../../pic32mx/lib/size\libmchp_peripheral_32MX795F512L.a(eth_ack_packet_lib.o)
 .gnu.attributes
                0x000004f0       0x10 c:/program files (x86)/microchip/mplab c32 suite/bin/../lib/gcc/pic32mx/4.5.1/../../../../pic32mx/lib/size\libmchp_peripheral_32MX795F512L.a(eth_descriptors_add_lib.o)
 .gnu.attributes
                0x00000500       0x10 c:/program files (x86)/microchip/mplab c32 suite/bin/../lib/gcc/pic32mx/4.5.1/../../../../pic32mx/lib/size\libmchp_peripheral_32MX795F512L.a(eth_init_lib.o)
 .gnu.attributes
                0x00000510       0x10 c:/program files (x86)/microchip/mplab c32 suite/bin/../lib/gcc/pic32mx/4.5.1/../../../../pic32mx/lib/size\libmchp_peripheral_32MX795F512L.a(eth_mac_open_lib.o)
 .gnu.attributes
                0x00000520       0x10 c:/program files (x86)/microchip/mplab c32 suite/bin/../lib/gcc/pic32mx/4.5.1/../../../../pic32mx/lib/size\libmchp_peripheral_32MX795F512L.a(eth_mac_set_address_max_lib.o)
 .gnu.attributes
                0x00000530       0x10 c:/program files (x86)/microchip/mplab c32 suite/bin/../lib/gcc/pic32mx/4.5.1/../../../../pic32mx/lib/size\libmchp_peripheral_32MX795F512L.a(eth_rx_buffers_append_lib.o)
 .gnu.attributes
                0x00000540       0x10 c:/program files (x86)/microchip/mplab c32 suite/bin/../lib/gcc/pic32mx/4.5.1/../../../../pic32mx/lib/size\libmchp_peripheral_32MX795F512L.a(eth_rx_filters_lib.o)
 .gnu.attributes
                0x00000550       0x10 c:/program files (x86)/microchip/mplab c32 suite/bin/../lib/gcc/pic32mx/4.5.1/../../../../pic32mx/lib/size\libmchp_peripheral_32MX795F512L.a(eth_rx_get_packet_lib.o)
 .gnu.attributes
                0x00000560       0x10 c:/program files (x86)/microchip/mplab c32 suite/bin/../lib/gcc/pic32mx/4.5.1/../../../../pic32mx/lib/size\libmchp_peripheral_32MX795F512L.a(eth_rx_set_buffer_size_lib.o)
 .gnu.attributes
                0x00000570       0x10 c:/program files (x86)/microchip/mplab c32 suite/bin/../lib/gcc/pic32mx/4.5.1/../../../../pic32mx/lib/size\libmchp_peripheral_32MX795F512L.a(eth_tx_packet_lib.o)
 .gnu.attributes
                0x00000580       0x10 c:/program files (x86)/microchip/mplab c32 suite/bin/../lib/gcc/pic32mx/4.5.1/../../../../pic32mx/lib/size\libmchp_peripheral_32MX795F512L.a(_eth_append_busy_list_lib.o)
 .gnu.attributes
                0x00000590       0x10 c:/program files (x86)/microchip/mplab c32 suite/bin/../lib/gcc/pic32mx/4.5.1/../../../../pic32mx/lib/size\libmchp_peripheral_32MX795F512L.a(eth_miim_access.o)
 .gnu.attributes
                0x000005a0       0x10 c:/program files (x86)/microchip/mplab c32 suite/bin/../lib/gcc/pic32mx/4.5.1/../../../../pic32mx/lib/size\libmchp_peripheral_32MX795F512L.a(soft_reset_lib.o)
 .gnu.attributes
                0x000005b0       0x10 c:/program files (x86)/microchip/mplab c32 suite/bin/../lib/gcc/pic32mx/4.5.1/../../../../pic32mx/lib/size\libmchp_peripheral_32MX795F512L.a(pcache.o)
 .gnu.attributes
                0x000005c0       0x10 c:/program files (x86)/microchip/mplab c32 suite/bin/../lib/gcc/pic32mx/4.5.1/../../../../pic32mx/lib/size\libmchp_peripheral_32MX795F512L.a(int_disable_interrupts_lib.o)
 .gnu.attributes
                0x000005d0       0x10 c:/program files (x86)/microchip/mplab c32 suite/bin/../lib/gcc/pic32mx/4.5.1/../../../../pic32mx/lib/size\libmchp_peripheral_32MX795F512L.a(int_restore_interrupts_lib.o)
 .gnu.attributes
                0x000005e0       0x10 c:/program files (x86)/microchip/mplab c32 suite/bin/../lib/gcc/pic32mx/4.5.1/../../../../pic32mx/lib/size\libmchp_peripheral_32MX795F512L.a(int_enable_mv_int_lib.o)
 .gnu.attributes
                0x000005f0       0x10 c:/program files (x86)/microchip/mplab c32 suite/bin/../lib/gcc/pic32mx/4.5.1/../../../../pic32mx/lib/size\libmchp_peripheral_32MX795F512L.a(int_tbl_lib.o)
 .gnu.attributes
                0x00000600       0x10 c:/program files (x86)/microchip/mplab c32 suite/bin/../lib/gcc/pic32mx/4.5.1/../../../../pic32mx/lib/size\libmchp_peripheral_32MX795F512L.a(port_set_pins_digital_in_lib.o)
 .gnu.attributes
                0x00000610       0x10 c:/program files (x86)/microchip/mplab c32 suite/bin/../lib/gcc/pic32mx/4.5.1/../../../../pic32mx/lib/size\libmchp_peripheral_32MX795F512L.a(port_set_pins_digital_out_lib.o)
 .gnu.attributes
                0x00000620       0x10 c:/program files (x86)/microchip/mplab c32 suite/bin/../lib/gcc/pic32mx/4.5.1/../../../../pic32mx/lib/size\libmchp_peripheral_32MX795F512L.a(_ports_tbl_libp.o)
 .gnu.attributes
                0x00000630       0x10 c:/program files (x86)/microchip/mplab c32 suite/bin/../lib/gcc/pic32mx/4.5.1/../../../../pic32mx/lib/size\libmchp_peripheral_32MX795F512L.a(uart_lib.o)
 .gnu.attributes
                0x00000640       0x10 c:/program files (x86)/microchip/mplab c32 suite/bin/../lib/gcc/pic32mx/4.5.1/../../../../pic32mx/lib/size\libmchp_peripheral_32MX795F512L.a(int_enable_interrupts_lib.o)
OUTPUT(TCPIP PIC32 ETH Demo App-C32.elf elf32-tradlittlemips)
LOAD stack
LOAD data_init

.stack          0xa000b590      0x800
 .stack         0xa000b590      0x800 stack

.bss            0xa00004bc     0x7024
 .bss           0xa00004bc     0x3cf8 Objects - TCPIP PIC32 ETH Demo App-C32\ETHPIC32IntMac.o
 .bss           0xa00041b4     0x3168 Objects - TCPIP PIC32 ETH Demo App-C32\TCP.o
 .bss           0xa000731c       0xc0 Objects - TCPIP PIC32 ETH Demo App-C32\CustomHTTPApp.o
 .bss           0xa00073dc       0x8c Objects - TCPIP PIC32 ETH Demo App-C32\BerkeleyAPI.o
 .bss           0xa0007468       0x78 Objects - TCPIP PIC32 ETH Demo App-C32\MPFS2.o

.data           0xa00074e0       0xec
 .data          0xa00074e0       0x70 Objects - TCPIP PIC32 ETH Demo App-C32\BerkeleyTCPClientDemo.o
 .data          0xa0007550       0x48 Objects - TCPIP PIC32 ETH Demo App-C32\SMTPDemo.o
 .data          0xa0007598       0x34 Objects - TCPIP PIC32 ETH Demo App-C32\DynDNS.o

.bss            0xa00075cc       0xc8
 .bss           0xa00075cc       0x34 Objects - TCPIP PIC32 ETH Demo App-C32\AutoIP.o
 .bss           0xa0007600       0x30 Objects - TCPIP PIC32 ETH Demo App-C32\DHCP.o
 .bss           0xa0007630       0x20 c:/program files (x86)/microchip/mplab c32 suite/bin/../lib/gcc/pic32mx/4.5.1/../../../../pic32mx/lib/size\libc.a(malloc.o)
 .bss           0xa0007650       0x1c c:/program files (x86)/microchip/mplab c32 suite/bin/../lib/gcc/pic32mx/4.5.1/../../../../pic32mx/lib/size\libc.a(sbrk.o)
 .bss           0xa000766c       0x18 Objects - TCPIP PIC32 ETH Demo App-C32\ARP.o
 .bss           0xa0007684       0x10 Objects - TCPIP PIC32 ETH Demo App-C32\DynDNS.o

.data           0xa0007694       0x10
 .data          0xa0007694       0x10 Objects - TCPIP PIC32 ETH Demo App-C32\GenericTCPClient.o

.bss            0xa00076a4       0x44
 .bss           0xa00076a4       0x10 Objects - TCPIP PIC32 ETH Demo App-C32\BerkeleyUDPClientDemo.o
 .bss           0xa00076b4       0x10 Objects - TCPIP PIC32 ETH Demo App-C32\BerkeleyTCPClientDemo.o
 .bss           0xa00076c4        0xc Objects - TCPIP PIC32 ETH Demo App-C32\DNS.o
 .bss           0xa00076d0        0xc Objects - TCPIP PIC32 ETH Demo App-C32\ICMP.o
 .bss           0xa00076dc        0xc Objects - TCPIP PIC32 ETH Demo App-C32\TCPPerformanceTest.o

.pbss           0xa00076e8        0x8
 .pbss          0xa00076e8        0x4 Objects - TCPIP PIC32 ETH Demo App-C32\DNS.o
 .pbss          0xa00076ec        0x2 Objects - TCPIP PIC32 ETH Demo App-C32\TCP.o
 .pbss          0xa00076ee        0x2 Objects - TCPIP PIC32 ETH Demo App-C32\UDP.o

.bss%z1         0x00000000        0x0
 .bss           0x00000000        0x0 c:/program files (x86)/microchip/mplab c32 suite/bin/../lib/gcc/pic32mx/4.5.1/../../../../pic32mx/lib/./proc/32MX795F512L\processor.o

.data%z2        0x00000000        0x0
 .data          0x00000000        0x0 c:/program files (x86)/microchip/mplab c32 suite/bin/../lib/gcc/pic32mx/4.5.1/../../../../pic32mx/lib/./proc/32MX795F512L\processor.o

.mdebug.abi32%z3
                0x00000000        0x0
 .mdebug.abi32  0x00000000        0x0 c:/program files (x86)/microchip/mplab c32 suite/bin/../lib/gcc/pic32mx/4.5.1/../../../../pic32mx/lib/size\libmchp_peripheral_32MX795F512L.a(int_enable_interrupts_lib.o)

.bss%z4         0x00000000        0x0
 .bss           0x00000000        0x0 c:/program files (x86)/microchip/mplab c32 suite/bin/../lib/gcc/pic32mx/4.5.1/../../../../pic32mx/lib/size\libmchp_peripheral_32MX795F512L.a(int_enable_interrupts_lib.o)

.data%z5        0x00000000        0x0
 .data          0x00000000        0x0 c:/program files (x86)/microchip/mplab c32 suite/bin/../lib/gcc/pic32mx/4.5.1/../../../../pic32mx/lib/size\libmchp_peripheral_32MX795F512L.a(int_enable_interrupts_lib.o)

.mdebug.abi32%z6
                0x00000000        0x0
 .mdebug.abi32  0x00000000        0x0 c:/program files (x86)/microchip/mplab c32 suite/bin/../lib/gcc/pic32mx/4.5.1/../../../../pic32mx/lib/size\libmchp_peripheral_32MX795F512L.a(uart_lib.o)

.bss%z7         0x00000000        0x0
 .bss           0x00000000        0x0 c:/program files (x86)/microchip/mplab c32 suite/bin/../lib/gcc/pic32mx/4.5.1/../../../../pic32mx/lib/size\libmchp_peripheral_32MX795F512L.a(uart_lib.o)

.data%z8        0x00000000        0x0
 .data          0x00000000        0x0 c:/program files (x86)/microchip/mplab c32 suite/bin/../lib/gcc/pic32mx/4.5.1/../../../../pic32mx/lib/size\libmchp_peripheral_32MX795F512L.a(uart_lib.o)

.mdebug.abi32%z9
                0x00000000        0x0
 .mdebug.abi32  0x00000000        0x0 c:/program files (x86)/microchip/mplab c32 suite/bin/../lib/gcc/pic32mx/4.5.1/../../../../pic32mx/lib/size\libmchp_peripheral_32MX795F512L.a(_ports_tbl_libp.o)

.bss%z10        0x00000000        0x0
 .bss           0x00000000        0x0 c:/program files (x86)/microchip/mplab c32 suite/bin/../lib/gcc/pic32mx/4.5.1/../../../../pic32mx/lib/size\libmchp_peripheral_32MX795F512L.a(_ports_tbl_libp.o)

.data%z11       0x00000000        0x0
 .data          0x00000000        0x0 c:/program files (x86)/microchip/mplab c32 suite/bin/../lib/gcc/pic32mx/4.5.1/../../../../pic32mx/lib/size\libmchp_peripheral_32MX795F512L.a(_ports_tbl_libp.o)

.mdebug.abi32%z12
                0x00000000        0x0
 .mdebug.abi32  0x00000000        0x0 c:/program files (x86)/microchip/mplab c32 suite/bin/../lib/gcc/pic32mx/4.5.1/../../../../pic32mx/lib/size\libmchp_peripheral_32MX795F512L.a(port_set_pins_digital_out_lib.o)

.bss%z13        0x00000000        0x0
 .bss           0x00000000        0x0 c:/program files (x86)/microchip/mplab c32 suite/bin/../lib/gcc/pic32mx/4.5.1/../../../../pic32mx/lib/size\libmchp_peripheral_32MX795F512L.a(port_set_pins_digital_out_lib.o)

.data%z14       0x00000000        0x0
 .data          0x00000000        0x0 c:/program files (x86)/microchip/mplab c32 suite/bin/../lib/gcc/pic32mx/4.5.1/../../../../pic32mx/lib/size\libmchp_peripheral_32MX795F512L.a(port_set_pins_digital_out_lib.o)

.mdebug.abi32%z15
                0x00000000        0x0
 .mdebug.abi32  0x00000000        0x0 c:/program files (x86)/microchip/mplab c32 suite/bin/../lib/gcc/pic32mx/4.5.1/../../../../pic32mx/lib/size\libmchp_peripheral_32MX795F512L.a(port_set_pins_digital_in_lib.o)

.bss%z16        0x00000000        0x0
 .bss           0x00000000        0x0 c:/program files (x86)/microchip/mplab c32 suite/bin/../lib/gcc/pic32mx/4.5.1/../../../../pic32mx/lib/size\libmchp_peripheral_32MX795F512L.a(port_set_pins_digital_in_lib.o)

.data%z17       0x00000000        0x0
 .data          0x00000000        0x0 c:/program files (x86)/microchip/mplab c32 suite/bin/../lib/gcc/pic32mx/4.5.1/../../../../pic32mx/lib/size\libmchp_peripheral_32MX795F512L.a(port_set_pins_digital_in_lib.o)

.mdebug.abi32%z18
                0x00000000        0x0
 .mdebug.abi32  0x00000000        0x0 c:/program files (x86)/microchip/mplab c32 suite/bin/../lib/gcc/pic32mx/4.5.1/../../../../pic32mx/lib/size\libmchp_peripheral_32MX795F512L.a(int_tbl_lib.o)

.bss%z19        0x00000000        0x0
 .bss           0x00000000        0x0 c:/program files (x86)/microchip/mplab c32 suite/bin/../lib/gcc/pic32mx/4.5.1/../../../../pic32mx/lib/size\libmchp_peripheral_32MX795F512L.a(int_tbl_lib.o)

.data%z20       0x00000000        0x0
 .data          0x00000000        0x0 c:/program files (x86)/microchip/mplab c32 suite/bin/../lib/gcc/pic32mx/4.5.1/../../../../pic32mx/lib/size\libmchp_peripheral_32MX795F512L.a(int_tbl_lib.o)

.mdebug.abi32%z21
                0x00000000        0x0
 .mdebug.abi32  0x00000000        0x0 c:/program files (x86)/microchip/mplab c32 suite/bin/../lib/gcc/pic32mx/4.5.1/../../../../pic32mx/lib/size\libmchp_peripheral_32MX795F512L.a(int_enable_mv_int_lib.o)

.bss%z22        0x00000000        0x0
 .bss           0x00000000        0x0 c:/program files (x86)/microchip/mplab c32 suite/bin/../lib/gcc/pic32mx/4.5.1/../../../../pic32mx/lib/size\libmchp_peripheral_32MX795F512L.a(int_enable_mv_int_lib.o)

.data%z23       0x00000000        0x0
 .data          0x00000000        0x0 c:/program files (x86)/microchip/mplab c32 suite/bin/../lib/gcc/pic32mx/4.5.1/../../../../pic32mx/lib/size\libmchp_peripheral_32MX795F512L.a(int_enable_mv_int_lib.o)

.mdebug.abi32%z24
                0x00000000        0x0
 .mdebug.abi32  0x00000000        0x0 c:/program files (x86)/microchip/mplab c32 suite/bin/../lib/gcc/pic32mx/4.5.1/../../../../pic32mx/lib/size\libmchp_peripheral_32MX795F512L.a(int_restore_interrupts_lib.o)

.bss%z25        0x00000000        0x0
 .bss           0x00000000        0x0 c:/program files (x86)/microchip/mplab c32 suite/bin/../lib/gcc/pic32mx/4.5.1/../../../../pic32mx/lib/size\libmchp_peripheral_32MX795F512L.a(int_restore_interrupts_lib.o)

.data%z26       0x00000000        0x0
 .data          0x00000000        0x0 c:/program files (x86)/microchip/mplab c32 suite/bin/../lib/gcc/pic32mx/4.5.1/../../../../pic32mx/lib/size\libmchp_peripheral_32MX795F512L.a(int_restore_interrupts_lib.o)

.mdebug.abi32%z27
                0x00000000        0x0
 .mdebug.abi32  0x00000000        0x0 c:/program files (x86)/microchip/mplab c32 suite/bin/../lib/gcc/pic32mx/4.5.1/../../../../pic32mx/lib/size\libmchp_peripheral_32MX795F512L.a(int_disable_interrupts_lib.o)

.bss%z28        0x00000000        0x0
 .bss           0x00000000        0x0 c:/program files (x86)/microchip/mplab c32 suite/bin/../lib/gcc/pic32mx/4.5.1/../../../../pic32mx/lib/size\libmchp_peripheral_32MX795F512L.a(int_disable_interrupts_lib.o)

.data%z29       0x00000000        0x0
 .data          0x00000000        0x0 c:/program files (x86)/microchip/mplab c32 suite/bin/../lib/gcc/pic32mx/4.5.1/../../../../pic32mx/lib/size\libmchp_peripheral_32MX795F512L.a(int_disable_interrupts_lib.o)

.mdebug.abi32%z30
                0x00000000        0x0
 .mdebug.abi32  0x00000000        0x0 c:/program files (x86)/microchip/mplab c32 suite/bin/../lib/gcc/pic32mx/4.5.1/../../../../pic32mx/lib/size\libmchp_peripheral_32MX795F512L.a(pcache.o)

.bss%z31        0x00000000        0x0
 .bss           0x00000000        0x0 c:/program files (x86)/microchip/mplab c32 suite/bin/../lib/gcc/pic32mx/4.5.1/../../../../pic32mx/lib/size\libmchp_peripheral_32MX795F512L.a(pcache.o)

.data%z32       0x00000000        0x0
 .data          0x00000000        0x0 c:/program files (x86)/microchip/mplab c32 suite/bin/../lib/gcc/pic32mx/4.5.1/../../../../pic32mx/lib/size\libmchp_peripheral_32MX795F512L.a(pcache.o)

.mdebug.abi32%z33
                0x00000000        0x0
 .mdebug.abi32  0x00000000        0x0 c:/program files (x86)/microchip/mplab c32 suite/bin/../lib/gcc/pic32mx/4.5.1/../../../../pic32mx/lib/size\libmchp_peripheral_32MX795F512L.a(soft_reset_lib.o)

.bss%z34        0x00000000        0x0
 .bss           0x00000000        0x0 c:/program files (x86)/microchip/mplab c32 suite/bin/../lib/gcc/pic32mx/4.5.1/../../../../pic32mx/lib/size\libmchp_peripheral_32MX795F512L.a(soft_reset_lib.o)

.data%z35       0x00000000        0x0
 .data          0x00000000        0x0 c:/program files (x86)/microchip/mplab c32 suite/bin/../lib/gcc/pic32mx/4.5.1/../../../../pic32mx/lib/size\libmchp_peripheral_32MX795F512L.a(soft_reset_lib.o)

.mdebug.abi32%z36
                0x00000000        0x0
 .mdebug.abi32  0x00000000        0x0 c:/program files (x86)/microchip/mplab c32 suite/bin/../lib/gcc/pic32mx/4.5.1/../../../../pic32mx/lib/size\libmchp_peripheral_32MX795F512L.a(eth_miim_access.o)

.bss%z37        0x00000000        0x0
 .bss           0x00000000        0x0 c:/program files (x86)/microchip/mplab c32 suite/bin/../lib/gcc/pic32mx/4.5.1/../../../../pic32mx/lib/size\libmchp_peripheral_32MX795F512L.a(eth_miim_access.o)

.data%z38       0x00000000        0x0
 .data          0x00000000        0x0 c:/program files (x86)/microchip/mplab c32 suite/bin/../lib/gcc/pic32mx/4.5.1/../../../../pic32mx/lib/size\libmchp_peripheral_32MX795F512L.a(eth_miim_access.o)

.mdebug.abi32%z39
                0x00000000        0x0
 .mdebug.abi32  0x00000000        0x0 c:/program files (x86)/microchip/mplab c32 suite/bin/../lib/gcc/pic32mx/4.5.1/../../../../pic32mx/lib/size\libmchp_peripheral_32MX795F512L.a(_eth_append_busy_list_lib.o)

.bss%z40        0x00000000        0x0
 .bss           0x00000000        0x0 c:/program files (x86)/microchip/mplab c32 suite/bin/../lib/gcc/pic32mx/4.5.1/../../../../pic32mx/lib/size\libmchp_peripheral_32MX795F512L.a(_eth_append_busy_list_lib.o)

.data%z41       0x00000000        0x0
 .data          0x00000000        0x0 c:/program files (x86)/microchip/mplab c32 suite/bin/../lib/gcc/pic32mx/4.5.1/../../../../pic32mx/lib/size\libmchp_peripheral_32MX795F512L.a(_eth_append_busy_list_lib.o)

.mdebug.abi32%z42
                0x00000000        0x0
 .mdebug.abi32  0x00000000        0x0 c:/program files (x86)/microchip/mplab c32 suite/bin/../lib/gcc/pic32mx/4.5.1/../../../../pic32mx/lib/size\libmchp_peripheral_32MX795F512L.a(eth_tx_packet_lib.o)

.bss%z43        0x00000000        0x0
 .bss           0x00000000        0x0 c:/program files (x86)/microchip/mplab c32 suite/bin/../lib/gcc/pic32mx/4.5.1/../../../../pic32mx/lib/size\libmchp_peripheral_32MX795F512L.a(eth_tx_packet_lib.o)

.data%z44       0x00000000        0x0
 .data          0x00000000        0x0 c:/program files (x86)/microchip/mplab c32 suite/bin/../lib/gcc/pic32mx/4.5.1/../../../../pic32mx/lib/size\libmchp_peripheral_32MX795F512L.a(eth_tx_packet_lib.o)

.mdebug.abi32%z45
                0x00000000        0x0
 .mdebug.abi32  0x00000000        0x0 c:/program files (x86)/microchip/mplab c32 suite/bin/../lib/gcc/pic32mx/4.5.1/../../../../pic32mx/lib/size\libmchp_peripheral_32MX795F512L.a(eth_rx_set_buffer_size_lib.o)

.bss%z46        0x00000000        0x0
 .bss           0x00000000        0x0 c:/program files (x86)/microchip/mplab c32 suite/bin/../lib/gcc/pic32mx/4.5.1/../../../../pic32mx/lib/size\libmchp_peripheral_32MX795F512L.a(eth_rx_set_buffer_size_lib.o)

.data%z47       0x00000000        0x0
 .data          0x00000000        0x0 c:/program files (x86)/microchip/mplab c32 suite/bin/../lib/gcc/pic32mx/4.5.1/../../../../pic32mx/lib/size\libmchp_peripheral_32MX795F512L.a(eth_rx_set_buffer_size_lib.o)

.mdebug.abi32%z48
                0x00000000        0x0
 .mdebug.abi32  0x00000000        0x0 c:/program files (x86)/microchip/mplab c32 suite/bin/../lib/gcc/pic32mx/4.5.1/../../../../pic32mx/lib/size\libmchp_peripheral_32MX795F512L.a(eth_rx_get_packet_lib.o)

.bss%z49        0x00000000        0x0
 .bss           0x00000000        0x0 c:/program files (x86)/microchip/mplab c32 suite/bin/../lib/gcc/pic32mx/4.5.1/../../../../pic32mx/lib/size\libmchp_peripheral_32MX795F512L.a(eth_rx_get_packet_lib.o)

.data%z50       0x00000000        0x0
 .data          0x00000000        0x0 c:/program files (x86)/microchip/mplab c32 suite/bin/../lib/gcc/pic32mx/4.5.1/../../../../pic32mx/lib/size\libmchp_peripheral_32MX795F512L.a(eth_rx_get_packet_lib.o)

.mdebug.abi32%z51
                0x00000000        0x0
 .mdebug.abi32  0x00000000        0x0 c:/program files (x86)/microchip/mplab c32 suite/bin/../lib/gcc/pic32mx/4.5.1/../../../../pic32mx/lib/size\libmchp_peripheral_32MX795F512L.a(eth_rx_filters_lib.o)

.bss%z52        0x00000000        0x0
 .bss           0x00000000        0x0 c:/program files (x86)/microchip/mplab c32 suite/bin/../lib/gcc/pic32mx/4.5.1/../../../../pic32mx/lib/size\libmchp_peripheral_32MX795F512L.a(eth_rx_filters_lib.o)

.data%z53       0x00000000        0x0
 .data          0x00000000        0x0 c:/program files (x86)/microchip/mplab c32 suite/bin/../lib/gcc/pic32mx/4.5.1/../../../../pic32mx/lib/size\libmchp_peripheral_32MX795F512L.a(eth_rx_filters_lib.o)

.mdebug.abi32%z54
                0x00000000        0x0
 .mdebug.abi32  0x00000000        0x0 c:/program files (x86)/microchip/mplab c32 suite/bin/../lib/gcc/pic32mx/4.5.1/../../../../pic32mx/lib/size\libmchp_peripheral_32MX795F512L.a(eth_rx_buffers_append_lib.o)

.bss%z55        0x00000000        0x0
 .bss           0x00000000        0x0 c:/program files (x86)/microchip/mplab c32 suite/bin/../lib/gcc/pic32mx/4.5.1/../../../../pic32mx/lib/size\libmchp_peripheral_32MX795F512L.a(eth_rx_buffers_append_lib.o)

.data%z56       0x00000000        0x0
 .data          0x00000000        0x0 c:/program files (x86)/microchip/mplab c32 suite/bin/../lib/gcc/pic32mx/4.5.1/../../../../pic32mx/lib/size\libmchp_peripheral_32MX795F512L.a(eth_rx_buffers_append_lib.o)

.mdebug.abi32%z57
                0x00000000        0x0
 .mdebug.abi32  0x00000000        0x0 c:/program files (x86)/microchip/mplab c32 suite/bin/../lib/gcc/pic32mx/4.5.1/../../../../pic32mx/lib/size\libmchp_peripheral_32MX795F512L.a(eth_mac_set_address_max_lib.o)

.bss%z58        0x00000000        0x0
 .bss           0x00000000        0x0 c:/program files (x86)/microchip/mplab c32 suite/bin/../lib/gcc/pic32mx/4.5.1/../../../../pic32mx/lib/size\libmchp_peripheral_32MX795F512L.a(eth_mac_set_address_max_lib.o)

.data%z59       0x00000000        0x0
 .data          0x00000000        0x0 c:/program files (x86)/microchip/mplab c32 suite/bin/../lib/gcc/pic32mx/4.5.1/../../../../pic32mx/lib/size\libmchp_peripheral_32MX795F512L.a(eth_mac_set_address_max_lib.o)

.mdebug.abi32%z60
                0x00000000        0x0
 .mdebug.abi32  0x00000000        0x0 c:/program files (x86)/microchip/mplab c32 suite/bin/../lib/gcc/pic32mx/4.5.1/../../../../pic32mx/lib/size\libmchp_peripheral_32MX795F512L.a(eth_mac_open_lib.o)

.bss%z61        0x00000000        0x0
 .bss           0x00000000        0x0 c:/program files (x86)/microchip/mplab c32 suite/bin/../lib/gcc/pic32mx/4.5.1/../../../../pic32mx/lib/size\libmchp_peripheral_32MX795F512L.a(eth_mac_open_lib.o)

.data%z62       0x00000000        0x0
 .data          0x00000000        0x0 c:/program files (x86)/microchip/mplab c32 suite/bin/../lib/gcc/pic32mx/4.5.1/../../../../pic32mx/lib/size\libmchp_peripheral_32MX795F512L.a(eth_mac_open_lib.o)

.mdebug.abi32%z63
                0x00000000        0x0
 .mdebug.abi32  0x00000000        0x0 c:/program files (x86)/microchip/mplab c32 suite/bin/../lib/gcc/pic32mx/4.5.1/../../../../pic32mx/lib/size\libmchp_peripheral_32MX795F512L.a(eth_init_lib.o)

.bss%z64        0x00000000        0x0
 .bss           0x00000000        0x0 c:/program files (x86)/microchip/mplab c32 suite/bin/../lib/gcc/pic32mx/4.5.1/../../../../pic32mx/lib/size\libmchp_peripheral_32MX795F512L.a(eth_init_lib.o)

.data%z65       0x00000000        0x0
 .data          0x00000000        0x0 c:/program files (x86)/microchip/mplab c32 suite/bin/../lib/gcc/pic32mx/4.5.1/../../../../pic32mx/lib/size\libmchp_peripheral_32MX795F512L.a(eth_init_lib.o)

.mdebug.abi32%z66
                0x00000000        0x0
 .mdebug.abi32  0x00000000        0x0 c:/program files (x86)/microchip/mplab c32 suite/bin/../lib/gcc/pic32mx/4.5.1/../../../../pic32mx/lib/size\libmchp_peripheral_32MX795F512L.a(eth_descriptors_add_lib.o)

.bss%z67        0x00000000        0x0
 .bss           0x00000000        0x0 c:/program files (x86)/microchip/mplab c32 suite/bin/../lib/gcc/pic32mx/4.5.1/../../../../pic32mx/lib/size\libmchp_peripheral_32MX795F512L.a(eth_descriptors_add_lib.o)

.data%z68       0x00000000        0x0
 .data          0x00000000        0x0 c:/program files (x86)/microchip/mplab c32 suite/bin/../lib/gcc/pic32mx/4.5.1/../../../../pic32mx/lib/size\libmchp_peripheral_32MX795F512L.a(eth_descriptors_add_lib.o)

.mdebug.abi32%z69
                0x00000000        0x0
 .mdebug.abi32  0x00000000        0x0 c:/program files (x86)/microchip/mplab c32 suite/bin/../lib/gcc/pic32mx/4.5.1/../../../../pic32mx/lib/size\libmchp_peripheral_32MX795F512L.a(eth_ack_packet_lib.o)

.bss%z70        0x00000000        0x0
 .bss           0x00000000        0x0 c:/program files (x86)/microchip/mplab c32 suite/bin/../lib/gcc/pic32mx/4.5.1/../../../../pic32mx/lib/size\libmchp_peripheral_32MX795F512L.a(eth_ack_packet_lib.o)

.data%z71       0x00000000        0x0
 .data          0x00000000        0x0 c:/program files (x86)/microchip/mplab c32 suite/bin/../lib/gcc/pic32mx/4.5.1/../../../../pic32mx/lib/size\libmchp_peripheral_32MX795F512L.a(eth_ack_packet_lib.o)

.mdebug.abi32%z72
                0x00000000        0x0
 .mdebug.abi32  0x00000000        0x0 c:/program files (x86)/microchip/mplab c32 suite/bin/../lib/gcc/pic32mx/4.5.1/../../../../pic32mx/lib/size\libmchp_peripheral.a(read_core_timer_lib.o)

.bss%z73        0x00000000        0x0
 .bss           0x00000000        0x0 c:/program files (x86)/microchip/mplab c32 suite/bin/../lib/gcc/pic32mx/4.5.1/../../../../pic32mx/lib/size\libmchp_peripheral.a(read_core_timer_lib.o)

.data%z74       0x00000000        0x0
 .data          0x00000000        0x0 c:/program files (x86)/microchip/mplab c32 suite/bin/../lib/gcc/pic32mx/4.5.1/../../../../pic32mx/lib/size\libmchp_peripheral.a(read_core_timer_lib.o)

.mdebug.abi32%z75
                0x00000000        0x0
 .mdebug.abi32  0x00000000        0x0 c:/program files (x86)/microchip/mplab c32 suite/bin/../lib/gcc/pic32mx/4.5.1/../../../../pic32mx/lib/size\libc.a(strncmp.o)

.bss%z76        0x00000000        0x0
 .bss           0x00000000        0x0 c:/program files (x86)/microchip/mplab c32 suite/bin/../lib/gcc/pic32mx/4.5.1/../../../../pic32mx/lib/size\libc.a(strncmp.o)

.data%z77       0x00000000        0x0
 .data          0x00000000        0x0 c:/program files (x86)/microchip/mplab c32 suite/bin/../lib/gcc/pic32mx/4.5.1/../../../../pic32mx/lib/size\libc.a(strncmp.o)

.mdebug.abi32%z78
                0x00000000        0x0
 .mdebug.abi32  0x00000000        0x0 c:/program files (x86)/microchip/mplab c32 suite/bin/../lib/gcc/pic32mx/4.5.1/../../../../pic32mx/lib/size\libc.a(errno.o)

.bss%z79        0x00000000        0x0
 .bss           0x00000000        0x0 c:/program files (x86)/microchip/mplab c32 suite/bin/../lib/gcc/pic32mx/4.5.1/../../../../pic32mx/lib/size\libc.a(errno.o)

.data%z80       0x00000000        0x0
 .data          0x00000000        0x0 c:/program files (x86)/microchip/mplab c32 suite/bin/../lib/gcc/pic32mx/4.5.1/../../../../pic32mx/lib/size\libc.a(errno.o)

.bss%z81        0x00000000        0x0
 .bss           0x00000000        0x0 c:/program files (x86)/microchip/mplab c32 suite/bin/../lib/gcc/pic32mx/4.5.1/../../../../pic32mx/lib/size\libc.a(default-nmi-handler.o)

.data%z82       0x00000000        0x0
 .data          0x00000000        0x0 c:/program files (x86)/microchip/mplab c32 suite/bin/../lib/gcc/pic32mx/4.5.1/../../../../pic32mx/lib/size\libc.a(default-nmi-handler.o)

.mdebug.abi32%z83
                0x00000000        0x0
 .mdebug.abi32  0x00000000        0x0 c:/program files (x86)/microchip/mplab c32 suite/bin/../lib/gcc/pic32mx/4.5.1/../../../../pic32mx/lib/size\libc.a(default-on-bootstrap.o)

.bss%z84        0x00000000        0x0
 .bss           0x00000000        0x0 c:/program files (x86)/microchip/mplab c32 suite/bin/../lib/gcc/pic32mx/4.5.1/../../../../pic32mx/lib/size\libc.a(default-on-bootstrap.o)

.data%z85       0x00000000        0x0
 .data          0x00000000        0x0 c:/program files (x86)/microchip/mplab c32 suite/bin/../lib/gcc/pic32mx/4.5.1/../../../../pic32mx/lib/size\libc.a(default-on-bootstrap.o)

.mdebug.abi32%z86
                0x00000000        0x0
 .mdebug.abi32  0x00000000        0x0 c:/program files (x86)/microchip/mplab c32 suite/bin/../lib/gcc/pic32mx/4.5.1/../../../../pic32mx/lib/size\libc.a(default-on-reset.o)

.bss%z87        0x00000000        0x0
 .bss           0x00000000        0x0 c:/program files (x86)/microchip/mplab c32 suite/bin/../lib/gcc/pic32mx/4.5.1/../../../../pic32mx/lib/size\libc.a(default-on-reset.o)

.data%z88       0x00000000        0x0
 .data          0x00000000        0x0 c:/program files (x86)/microchip/mplab c32 suite/bin/../lib/gcc/pic32mx/4.5.1/../../../../pic32mx/lib/size\libc.a(default-on-reset.o)

.mdebug.abi32%z89
                0x00000000        0x0
 .mdebug.abi32  0x00000000        0x0 c:/program files (x86)/microchip/mplab c32 suite/bin/../lib/gcc/pic32mx/4.5.1/../../../../pic32mx/lib/size\libc.a(default-bootstrap-exception-handler.o)

.bss%z90        0x00000000        0x0
 .bss           0x00000000        0x0 c:/program files (x86)/microchip/mplab c32 suite/bin/../lib/gcc/pic32mx/4.5.1/../../../../pic32mx/lib/size\libc.a(default-bootstrap-exception-handler.o)

.data%z91       0x00000000        0x0
 .data          0x00000000        0x0 c:/program files (x86)/microchip/mplab c32 suite/bin/../lib/gcc/pic32mx/4.5.1/../../../../pic32mx/lib/size\libc.a(default-bootstrap-exception-handler.o)

.mdebug.abi32%z92
                0x00000000        0x0
 .mdebug.abi32  0x00000000        0x0 c:/program files (x86)/microchip/mplab c32 suite/bin/../lib/gcc/pic32mx/4.5.1/../../../../pic32mx/lib/size\libc.a(sbrk.o)

.data%z93       0x00000000        0x0
 .data          0x00000000        0x0 c:/program files (x86)/microchip/mplab c32 suite/bin/../lib/gcc/pic32mx/4.5.1/../../../../pic32mx/lib/size\libc.a(sbrk.o)

.mdebug.abi32%z94
                0x00000000        0x0
 .mdebug.abi32  0x00000000        0x0 c:/program files (x86)/microchip/mplab c32 suite/bin/../lib/gcc/pic32mx/4.5.1/../../../../pic32mx/lib/size\libc.a(strstr.o)

.bss%z95        0x00000000        0x0
 .bss           0x00000000        0x0 c:/program files (x86)/microchip/mplab c32 suite/bin/../lib/gcc/pic32mx/4.5.1/../../../../pic32mx/lib/size\libc.a(strstr.o)

.data%z96       0x00000000        0x0
 .data          0x00000000        0x0 c:/program files (x86)/microchip/mplab c32 suite/bin/../lib/gcc/pic32mx/4.5.1/../../../../pic32mx/lib/size\libc.a(strstr.o)

.mdebug.abi32%z97
                0x00000000        0x0
 .mdebug.abi32  0x00000000        0x0 c:/program files (x86)/microchip/mplab c32 suite/bin/../lib/gcc/pic32mx/4.5.1/../../../../pic32mx/lib/size\libc.a(strncpy.o)

.bss%z98        0x00000000        0x0
 .bss           0x00000000        0x0 c:/program files (x86)/microchip/mplab c32 suite/bin/../lib/gcc/pic32mx/4.5.1/../../../../pic32mx/lib/size\libc.a(strncpy.o)

.data%z99       0x00000000        0x0
 .data          0x00000000        0x0 c:/program files (x86)/microchip/mplab c32 suite/bin/../lib/gcc/pic32mx/4.5.1/../../../../pic32mx/lib/size\libc.a(strncpy.o)

.mdebug.abi32%z100
                0x00000000        0x0
 .mdebug.abi32  0x00000000        0x0 c:/program files (x86)/microchip/mplab c32 suite/bin/../lib/gcc/pic32mx/4.5.1/../../../../pic32mx/lib/size\libc.a(strchr.o)

.bss%z101       0x00000000        0x0
 .bss           0x00000000        0x0 c:/program files (x86)/microchip/mplab c32 suite/bin/../lib/gcc/pic32mx/4.5.1/../../../../pic32mx/lib/size\libc.a(strchr.o)

.data%z102      0x00000000        0x0
 .data          0x00000000        0x0 c:/program files (x86)/microchip/mplab c32 suite/bin/../lib/gcc/pic32mx/4.5.1/../../../../pic32mx/lib/size\libc.a(strchr.o)

.mdebug.abi32%z103
                0x00000000        0x0
 .mdebug.abi32  0x00000000        0x0 c:/program files (x86)/microchip/mplab c32 suite/bin/../lib/gcc/pic32mx/4.5.1/../../../../pic32mx/lib/size\libc.a(malloc.o)

.data%z104      0x00000000        0x0
 .data          0x00000000        0x0 c:/program files (x86)/microchip/mplab c32 suite/bin/../lib/gcc/pic32mx/4.5.1/../../../../pic32mx/lib/size\libc.a(malloc.o)

.mdebug.abi32%z105
                0x00000000        0x0
 .mdebug.abi32  0x00000000        0x0 c:/program files (x86)/microchip/mplab c32 suite/bin/../lib/gcc/pic32mx/4.5.1/../../../../pic32mx/lib/size\libc.a(ltoa.o)

.bss%z106       0x00000000        0x0
 .bss           0x00000000        0x0 c:/program files (x86)/microchip/mplab c32 suite/bin/../lib/gcc/pic32mx/4.5.1/../../../../pic32mx/lib/size\libc.a(ltoa.o)

.data%z107      0x00000000        0x0
 .data          0x00000000        0x0 c:/program files (x86)/microchip/mplab c32 suite/bin/../lib/gcc/pic32mx/4.5.1/../../../../pic32mx/lib/size\libc.a(ltoa.o)

.mdebug.abi32%z108
                0x00000000        0x0
 .mdebug.abi32  0x00000000        0x0 c:/program files (x86)/microchip/mplab c32 suite/bin/../lib/gcc/pic32mx/4.5.1/../../../../pic32mx/lib/size\libc.a(ctype.o)

.bss%z109       0x00000000        0x0
 .bss           0x00000000        0x0 c:/program files (x86)/microchip/mplab c32 suite/bin/../lib/gcc/pic32mx/4.5.1/../../../../pic32mx/lib/size\libc.a(ctype.o)

.data%z110      0x00000000        0x0
 .data          0x00000000        0x0 c:/program files (x86)/microchip/mplab c32 suite/bin/../lib/gcc/pic32mx/4.5.1/../../../../pic32mx/lib/size\libc.a(ctype.o)

.mdebug.abi32%z111
                0x00000000        0x0
 .mdebug.abi32  0x00000000        0x0 c:/program files (x86)/microchip/mplab c32 suite/bin/../lib/gcc/pic32mx/4.5.1/../../../../pic32mx/lib/size\libc.a(calloc.o)

.bss%z112       0x00000000        0x0
 .bss           0x00000000        0x0 c:/program files (x86)/microchip/mplab c32 suite/bin/../lib/gcc/pic32mx/4.5.1/../../../../pic32mx/lib/size\libc.a(calloc.o)

.data%z113      0x00000000        0x0
 .data          0x00000000        0x0 c:/program files (x86)/microchip/mplab c32 suite/bin/../lib/gcc/pic32mx/4.5.1/../../../../pic32mx/lib/size\libc.a(calloc.o)

.mdebug.abi32%z114
                0x00000000        0x0
 .mdebug.abi32  0x00000000        0x0 c:/program files (x86)/microchip/mplab c32 suite/bin/../lib/gcc/pic32mx/4.5.1/../../../../pic32mx/lib/size\libc.a(atol.o)

.bss%z115       0x00000000        0x0
 .bss           0x00000000        0x0 c:/program files (x86)/microchip/mplab c32 suite/bin/../lib/gcc/pic32mx/4.5.1/../../../../pic32mx/lib/size\libc.a(atol.o)

.data%z116      0x00000000        0x0
 .data          0x00000000        0x0 c:/program files (x86)/microchip/mplab c32 suite/bin/../lib/gcc/pic32mx/4.5.1/../../../../pic32mx/lib/size\libc.a(atol.o)

.mdebug.abi32%z117
                0x00000000        0x0
 .mdebug.abi32  0x00000000        0x0 c:/program files (x86)/microchip/mplab c32 suite/bin/../lib/gcc/pic32mx/4.5.1/../../../../pic32mx/lib/size\libc.a(atoi.o)

.bss%z118       0x00000000        0x0
 .bss           0x00000000        0x0 c:/program files (x86)/microchip/mplab c32 suite/bin/../lib/gcc/pic32mx/4.5.1/../../../../pic32mx/lib/size\libc.a(atoi.o)

.data%z119      0x00000000        0x0
 .data          0x00000000        0x0 c:/program files (x86)/microchip/mplab c32 suite/bin/../lib/gcc/pic32mx/4.5.1/../../../../pic32mx/lib/size\libc.a(atoi.o)

.bss%z120       0x00000000        0x0
 .bss           0x00000000        0x0 c:/program files (x86)/microchip/mplab c32 suite/bin/../lib/gcc/pic32mx/4.5.1/../../../../pic32mx/lib/size\libc.a(general-exception.o)

.data%z121      0x00000000        0x0
 .data          0x00000000        0x0 c:/program files (x86)/microchip/mplab c32 suite/bin/../lib/gcc/pic32mx/4.5.1/../../../../pic32mx/lib/size\libc.a(general-exception.o)

.bss%z122       0x00000000        0x0
 .bss           0x00000000        0x0 c:/program files (x86)/microchip/mplab c32 suite/bin/../lib/gcc/pic32mx/4.5.1/../../../../pic32mx/lib/size\libc.a(strlen.o)

.data%z123      0x00000000        0x0
 .data          0x00000000        0x0 c:/program files (x86)/microchip/mplab c32 suite/bin/../lib/gcc/pic32mx/4.5.1/../../../../pic32mx/lib/size\libc.a(strlen.o)

.bss%z124       0x00000000        0x0
 .bss           0x00000000        0x0 c:/program files (x86)/microchip/mplab c32 suite/bin/../lib/gcc/pic32mx/4.5.1/../../../../pic32mx/lib/size\libc.a(strcmp.o)

.data%z125      0x00000000        0x0
 .data          0x00000000        0x0 c:/program files (x86)/microchip/mplab c32 suite/bin/../lib/gcc/pic32mx/4.5.1/../../../../pic32mx/lib/size\libc.a(strcmp.o)

.bss%z126       0x00000000        0x0
 .bss           0x00000000        0x0 c:/program files (x86)/microchip/mplab c32 suite/bin/../lib/gcc/pic32mx/4.5.1/../../../../pic32mx/lib/size\libc.a(memset.o)

.data%z127      0x00000000        0x0
 .data          0x00000000        0x0 c:/program files (x86)/microchip/mplab c32 suite/bin/../lib/gcc/pic32mx/4.5.1/../../../../pic32mx/lib/size\libc.a(memset.o)

.bss%z128       0x00000000        0x0
 .bss           0x00000000        0x0 c:/program files (x86)/microchip/mplab c32 suite/bin/../lib/gcc/pic32mx/4.5.1/../../../../pic32mx/lib/size\libc.a(memcpy.o)

.data%z129      0x00000000        0x0
 .data          0x00000000        0x0 c:/program files (x86)/microchip/mplab c32 suite/bin/../lib/gcc/pic32mx/4.5.1/../../../../pic32mx/lib/size\libc.a(memcpy.o)

.bss%z130       0x00000000        0x0
 .bss           0x00000000        0x0 c:/program files (x86)/microchip/mplab c32 suite/bin/../lib/gcc/pic32mx/4.5.1/../../../../pic32mx/lib/size\libc.a(memcmp.o)

.data%z131      0x00000000        0x0
 .data          0x00000000        0x0 c:/program files (x86)/microchip/mplab c32 suite/bin/../lib/gcc/pic32mx/4.5.1/../../../../pic32mx/lib/size\libc.a(memcmp.o)

.mdebug.abi32%z132
                0x00000000        0x0
 .mdebug.abi32  0x00000000        0x0 c:/program files (x86)/microchip/mplab c32 suite/bin/../lib/gcc/pic32mx/4.5.1/size\libgcc.a(_udivdi3.o)

.bss%z133       0x00000000        0x0
 .bss           0x00000000        0x0 c:/program files (x86)/microchip/mplab c32 suite/bin/../lib/gcc/pic32mx/4.5.1/size\libgcc.a(_udivdi3.o)

.data%z134      0x00000000        0x0
 .data          0x00000000        0x0 c:/program files (x86)/microchip/mplab c32 suite/bin/../lib/gcc/pic32mx/4.5.1/size\libgcc.a(_udivdi3.o)

.mdebug.abi32%z135
                0x00000000        0x0
 .mdebug.abi32  0x00000000        0x0 Objects - TCPIP PIC32 ETH Demo App-C32\UART.o

.bss%z136       0x00000000        0x0
 .bss           0x00000000        0x0 Objects - TCPIP PIC32 ETH Demo App-C32\UART.o

.data%z137      0x00000000        0x0
 .data          0x00000000        0x0 Objects - TCPIP PIC32 ETH Demo App-C32\UART.o

.mdebug.abi32%z138
                0x00000000        0x0
 .mdebug.abi32  0x00000000        0x0 Objects - TCPIP PIC32 ETH Demo App-C32\ETHPIC32ExtPhyDP83848.o

.bss%z139       0x00000000        0x0
 .bss           0x00000000        0x0 Objects - TCPIP PIC32 ETH Demo App-C32\ETHPIC32ExtPhyDP83848.o

.data%z140      0x00000000        0x0
 .data          0x00000000        0x0 Objects - TCPIP PIC32 ETH Demo App-C32\ETHPIC32ExtPhyDP83848.o

.mdebug.abi32%z141
                0x00000000        0x0
 .mdebug.abi32  0x00000000        0x0 Objects - TCPIP PIC32 ETH Demo App-C32\ETHPIC32ExtPhy.o

.bss%z142       0x00000000        0x0
 .bss           0x00000000        0x0 Objects - TCPIP PIC32 ETH Demo App-C32\ETHPIC32ExtPhy.o

.data%z143      0x00000000        0x0
 .data          0x00000000        0x0 Objects - TCPIP PIC32 ETH Demo App-C32\ETHPIC32ExtPhy.o

.mdebug.abi32%z144
                0x00000000        0x0
 .mdebug.abi32  0x00000000        0x0 Objects - TCPIP PIC32 ETH Demo App-C32\ETHPIC32IntMac.o

.data%z145      0x00000000        0x0
 .data          0x00000000        0x0 Objects - TCPIP PIC32 ETH Demo App-C32\ETHPIC32IntMac.o

.mdebug.abi32%z146
                0x00000000        0x0
 .mdebug.abi32  0x00000000        0x0 Objects - TCPIP PIC32 ETH Demo App-C32\AutoIP.o

.data%z147      0x00000000        0x0
 .data          0x00000000        0x0 Objects - TCPIP PIC32 ETH Demo App-C32\AutoIP.o

.mdebug.abi32%z148
                0x00000000        0x0
 .mdebug.abi32  0x00000000        0x0 Objects - TCPIP PIC32 ETH Demo App-C32\CustomSSLCert.o

.bss%z149       0x00000000        0x0
 .bss           0x00000000        0x0 Objects - TCPIP PIC32 ETH Demo App-C32\CustomSSLCert.o

.data%z150      0x00000000        0x0
 .data          0x00000000        0x0 Objects - TCPIP PIC32 ETH Demo App-C32\CustomSSLCert.o

.bss%z151       0x00000000        0x0
 .bss           0x00000000        0x0 Objects - TCPIP PIC32 ETH Demo App-C32\BigInt_helper_C32.o

.data%z152      0x00000000        0x0
 .data          0x00000000        0x0 Objects - TCPIP PIC32 ETH Demo App-C32\BigInt_helper_C32.o

.mdebug.abi32%z153
                0x00000000        0x0
 .mdebug.abi32  0x00000000        0x0 Objects - TCPIP PIC32 ETH Demo App-C32\BigInt.o

.bss%z154       0x00000000        0x0
 .bss           0x00000000        0x0 Objects - TCPIP PIC32 ETH Demo App-C32\BigInt.o

.data%z155      0x00000000        0x0
 .data          0x00000000        0x0 Objects - TCPIP PIC32 ETH Demo App-C32\BigInt.o

.mdebug.abi32%z156
                0x00000000        0x0
 .mdebug.abi32  0x00000000        0x0 Objects - TCPIP PIC32 ETH Demo App-C32\ARCFOUR.o

.bss%z157       0x00000000        0x0
 .bss           0x00000000        0x0 Objects - TCPIP PIC32 ETH Demo App-C32\ARCFOUR.o

.data%z158      0x00000000        0x0
 .data          0x00000000        0x0 Objects - TCPIP PIC32 ETH Demo App-C32\ARCFOUR.o

.mdebug.abi32%z159
                0x00000000        0x0
 .mdebug.abi32  0x00000000        0x0 Objects - TCPIP PIC32 ETH Demo App-C32\SSL.o

.bss%z160       0x00000000        0x0
 .bss           0x00000000        0x0 Objects - TCPIP PIC32 ETH Demo App-C32\SSL.o

.data%z161      0x00000000        0x0
 .data          0x00000000        0x0 Objects - TCPIP PIC32 ETH Demo App-C32\SSL.o

.mdebug.abi32%z162
                0x00000000        0x0
 .mdebug.abi32  0x00000000        0x0 Objects - TCPIP PIC32 ETH Demo App-C32\RSA.o

.bss%z163       0x00000000        0x0
 .bss           0x00000000        0x0 Objects - TCPIP PIC32 ETH Demo App-C32\RSA.o

.data%z164      0x00000000        0x0
 .data          0x00000000        0x0 Objects - TCPIP PIC32 ETH Demo App-C32\RSA.o

.mdebug.abi32%z165
                0x00000000        0x0
 .mdebug.abi32  0x00000000        0x0 Objects - TCPIP PIC32 ETH Demo App-C32\Random.o

.bss%z166       0x00000000        0x0
 .bss           0x00000000        0x0 Objects - TCPIP PIC32 ETH Demo App-C32\Random.o

.data%z167      0x00000000        0x0
 .data          0x00000000        0x0 Objects - TCPIP PIC32 ETH Demo App-C32\Random.o

.mdebug.abi32%z168
                0x00000000        0x0
 .mdebug.abi32  0x00000000        0x0 Objects - TCPIP PIC32 ETH Demo App-C32\MPFSImg2.o

.bss%z169       0x00000000        0x0
 .bss           0x00000000        0x0 Objects - TCPIP PIC32 ETH Demo App-C32\MPFSImg2.o

.data%z170      0x00000000        0x0
 .data          0x00000000        0x0 Objects - TCPIP PIC32 ETH Demo App-C32\MPFSImg2.o

.mdebug.abi32%z171
                0x00000000        0x0
 .mdebug.abi32  0x00000000        0x0 Objects - TCPIP PIC32 ETH Demo App-C32\ENCX24J600.o

.bss%z172       0x00000000        0x0
 .bss           0x00000000        0x0 Objects - TCPIP PIC32 ETH Demo App-C32\ENCX24J600.o

.data%z173      0x00000000        0x0
 .data          0x00000000        0x0 Objects - TCPIP PIC32 ETH Demo App-C32\ENCX24J600.o

.mdebug.abi32%z174
                0x00000000        0x0
 .mdebug.abi32  0x00000000        0x0 Objects - TCPIP PIC32 ETH Demo App-C32\BerkeleyTCPServerDemo.o

.bss%z175       0x00000000        0x0
 .bss           0x00000000        0x0 Objects - TCPIP PIC32 ETH Demo App-C32\BerkeleyTCPServerDemo.o

.data%z176      0x00000000        0x0
 .data          0x00000000        0x0 Objects - TCPIP PIC32 ETH Demo App-C32\BerkeleyTCPServerDemo.o

.mdebug.abi32%z177
                0x00000000        0x0
 .mdebug.abi32  0x00000000        0x0 Objects - TCPIP PIC32 ETH Demo App-C32\BerkeleyTCPClientDemo.o

.mdebug.abi32%z178
                0x00000000        0x0
 .mdebug.abi32  0x00000000        0x0 Objects - TCPIP PIC32 ETH Demo App-C32\BerkeleyUDPClientDemo.o

.data%z179      0x00000000        0x0
 .data          0x00000000        0x0 Objects - TCPIP PIC32 ETH Demo App-C32\BerkeleyUDPClientDemo.o

.mdebug.abi32%z180
                0x00000000        0x0
 .mdebug.abi32  0x00000000        0x0 Objects - TCPIP PIC32 ETH Demo App-C32\BerkeleyAPI.o

.data%z181      0x00000000        0x0
 .data          0x00000000        0x0 Objects - TCPIP PIC32 ETH Demo App-C32\BerkeleyAPI.o

.mdebug.abi32%z182
                0x00000000        0x0
 .mdebug.abi32  0x00000000        0x0 Objects - TCPIP PIC32 ETH Demo App-C32\SMTPDemo.o

.bss%z183       0x00000000        0x0
 .bss           0x00000000        0x0 Objects - TCPIP PIC32 ETH Demo App-C32\SMTPDemo.o

.mdebug.abi32%z184
                0x00000000        0x0
 .mdebug.abi32  0x00000000        0x0 Objects - TCPIP PIC32 ETH Demo App-C32\PingDemo.o

.bss%z185       0x00000000        0x0
 .bss           0x00000000        0x0 Objects - TCPIP PIC32 ETH Demo App-C32\PingDemo.o

.data%z186      0x00000000        0x0
 .data          0x00000000        0x0 Objects - TCPIP PIC32 ETH Demo App-C32\PingDemo.o

.mdebug.abi32%z187
                0x00000000        0x0
 .mdebug.abi32  0x00000000        0x0 Objects - TCPIP PIC32 ETH Demo App-C32\LegacyHTTPApp.o

.bss%z188       0x00000000        0x0
 .bss           0x00000000        0x0 Objects - TCPIP PIC32 ETH Demo App-C32\LegacyHTTPApp.o

.data%z189      0x00000000        0x0
 .data          0x00000000        0x0 Objects - TCPIP PIC32 ETH Demo App-C32\LegacyHTTPApp.o

.mdebug.abi32%z190
                0x00000000        0x0
 .mdebug.abi32  0x00000000        0x0 Objects - TCPIP PIC32 ETH Demo App-C32\GenericTCPServer.o

.bss%z191       0x00000000        0x0
 .bss           0x00000000        0x0 Objects - TCPIP PIC32 ETH Demo App-C32\GenericTCPServer.o

.data%z192      0x00000000        0x0
 .data          0x00000000        0x0 Objects - TCPIP PIC32 ETH Demo App-C32\GenericTCPServer.o

.mdebug.abi32%z193
                0x00000000        0x0
 .mdebug.abi32  0x00000000        0x0 Objects - TCPIP PIC32 ETH Demo App-C32\GenericTCPClient.o

.bss%z194       0x00000000        0x0
 .bss           0x00000000        0x0 Objects - TCPIP PIC32 ETH Demo App-C32\GenericTCPClient.o

.mdebug.abi32%z195
                0x00000000        0x0
 .mdebug.abi32  0x00000000        0x0 Objects - TCPIP PIC32 ETH Demo App-C32\UARTConfig.o

.bss%z196       0x00000000        0x0
 .bss           0x00000000        0x0 Objects - TCPIP PIC32 ETH Demo App-C32\UARTConfig.o

.data%z197      0x00000000        0x0
 .data          0x00000000        0x0 Objects - TCPIP PIC32 ETH Demo App-C32\UARTConfig.o

.mdebug.abi32%z198
                0x00000000        0x0
 .mdebug.abi32  0x00000000        0x0 Objects - TCPIP PIC32 ETH Demo App-C32\CustomSNMPApp.o

.bss%z199       0x00000000        0x0
 .bss           0x00000000        0x0 Objects - TCPIP PIC32 ETH Demo App-C32\CustomSNMPApp.o

.data%z200      0x00000000        0x0
 .data          0x00000000        0x0 Objects - TCPIP PIC32 ETH Demo App-C32\CustomSNMPApp.o

.mdebug.abi32%z201
                0x00000000        0x0
 .mdebug.abi32  0x00000000        0x0 Objects - TCPIP PIC32 ETH Demo App-C32\UDP.o

.bss%z202       0x00000000        0x0
 .bss           0x00000000        0x0 Objects - TCPIP PIC32 ETH Demo App-C32\UDP.o

.data%z203      0x00000000        0x0
 .data          0x00000000        0x0 Objects - TCPIP PIC32 ETH Demo App-C32\UDP.o

.mdebug.abi32%z204
                0x00000000        0x0
 .mdebug.abi32  0x00000000        0x0 Objects - TCPIP PIC32 ETH Demo App-C32\UART2TCPBridge.o

.bss%z205       0x00000000        0x0
 .bss           0x00000000        0x0 Objects - TCPIP PIC32 ETH Demo App-C32\UART2TCPBridge.o

.data%z206      0x00000000        0x0
 .data          0x00000000        0x0 Objects - TCPIP PIC32 ETH Demo App-C32\UART2TCPBridge.o

.mdebug.abi32%z207
                0x00000000        0x0
 .mdebug.abi32  0x00000000        0x0 Objects - TCPIP PIC32 ETH Demo App-C32\Tick.o

.bss%z208       0x00000000        0x0
 .bss           0x00000000        0x0 Objects - TCPIP PIC32 ETH Demo App-C32\Tick.o

.data%z209      0x00000000        0x0
 .data          0x00000000        0x0 Objects - TCPIP PIC32 ETH Demo App-C32\Tick.o

.mdebug.abi32%z210
                0x00000000        0x0
 .mdebug.abi32  0x00000000        0x0 Objects - TCPIP PIC32 ETH Demo App-C32\TFTPc.o

.bss%z211       0x00000000        0x0
 .bss           0x00000000        0x0 Objects - TCPIP PIC32 ETH Demo App-C32\TFTPc.o

.data%z212      0x00000000        0x0
 .data          0x00000000        0x0 Objects - TCPIP PIC32 ETH Demo App-C32\TFTPc.o

.mdebug.abi32%z213
                0x00000000        0x0
 .mdebug.abi32  0x00000000        0x0 Objects - TCPIP PIC32 ETH Demo App-C32\Telnet.o

.bss%z214       0x00000000        0x0
 .bss           0x00000000        0x0 Objects - TCPIP PIC32 ETH Demo App-C32\Telnet.o

.data%z215      0x00000000        0x0
 .data          0x00000000        0x0 Objects - TCPIP PIC32 ETH Demo App-C32\Telnet.o

.mdebug.abi32%z216
                0x00000000        0x0
 .mdebug.abi32  0x00000000        0x0 Objects - TCPIP PIC32 ETH Demo App-C32\TCPPerformanceTest.o

.data%z217      0x00000000        0x0
 .data          0x00000000        0x0 Objects - TCPIP PIC32 ETH Demo App-C32\TCPPerformanceTest.o

.mdebug.abi32%z218
                0x00000000        0x0
 .mdebug.abi32  0x00000000        0x0 Objects - TCPIP PIC32 ETH Demo App-C32\TCP.o

.data%z219      0x00000000        0x0
 .data          0x00000000        0x0 Objects - TCPIP PIC32 ETH Demo App-C32\TCP.o

.mdebug.abi32%z220
                0x00000000        0x0
 .mdebug.abi32  0x00000000        0x0 Objects - TCPIP PIC32 ETH Demo App-C32\StackTsk.o

.bss%z221       0x00000000        0x0
 .bss           0x00000000        0x0 Objects - TCPIP PIC32 ETH Demo App-C32\StackTsk.o

.data%z222      0x00000000        0x0
 .data          0x00000000        0x0 Objects - TCPIP PIC32 ETH Demo App-C32\StackTsk.o

.mdebug.abi32%z223
                0x00000000        0x0
 .mdebug.abi32  0x00000000        0x0 Objects - TCPIP PIC32 ETH Demo App-C32\SPIRAM.o

.bss%z224       0x00000000        0x0
 .bss           0x00000000        0x0 Objects - TCPIP PIC32 ETH Demo App-C32\SPIRAM.o

.data%z225      0x00000000        0x0
 .data          0x00000000        0x0 Objects - TCPIP PIC32 ETH Demo App-C32\SPIRAM.o

.mdebug.abi32%z226
                0x00000000        0x0
 .mdebug.abi32  0x00000000        0x0 Objects - TCPIP PIC32 ETH Demo App-C32\SPIFlash.o

.bss%z227       0x00000000        0x0
 .bss           0x00000000        0x0 Objects - TCPIP PIC32 ETH Demo App-C32\SPIFlash.o

.data%z228      0x00000000        0x0
 .data          0x00000000        0x0 Objects - TCPIP PIC32 ETH Demo App-C32\SPIFlash.o

.mdebug.abi32%z229
                0x00000000        0x0
 .mdebug.abi32  0x00000000        0x0 Objects - TCPIP PIC32 ETH Demo App-C32\SPIEEPROM.o

.bss%z230       0x00000000        0x0
 .bss           0x00000000        0x0 Objects - TCPIP PIC32 ETH Demo App-C32\SPIEEPROM.o

.data%z231      0x00000000        0x0
 .data          0x00000000        0x0 Objects - TCPIP PIC32 ETH Demo App-C32\SPIEEPROM.o

.mdebug.abi32%z232
                0x00000000        0x0
 .mdebug.abi32  0x00000000        0x0 Objects - TCPIP PIC32 ETH Demo App-C32\SNTP.o

.bss%z233       0x00000000        0x0
 .bss           0x00000000        0x0 Objects - TCPIP PIC32 ETH Demo App-C32\SNTP.o

.data%z234      0x00000000        0x0
 .data          0x00000000        0x0 Objects - TCPIP PIC32 ETH Demo App-C32\SNTP.o

.mdebug.abi32%z235
                0x00000000        0x0
 .mdebug.abi32  0x00000000        0x0 Objects - TCPIP PIC32 ETH Demo App-C32\SNMP.o

.bss%z236       0x00000000        0x0
 .bss           0x00000000        0x0 Objects - TCPIP PIC32 ETH Demo App-C32\SNMP.o

.data%z237      0x00000000        0x0
 .data          0x00000000        0x0 Objects - TCPIP PIC32 ETH Demo App-C32\SNMP.o

.mdebug.abi32%z238
                0x00000000        0x0
 .mdebug.abi32  0x00000000        0x0 Objects - TCPIP PIC32 ETH Demo App-C32\SMTP.o

.bss%z239       0x00000000        0x0
 .bss           0x00000000        0x0 Objects - TCPIP PIC32 ETH Demo App-C32\SMTP.o

.data%z240      0x00000000        0x0
 .data          0x00000000        0x0 Objects - TCPIP PIC32 ETH Demo App-C32\SMTP.o

.mdebug.abi32%z241
                0x00000000        0x0
 .mdebug.abi32  0x00000000        0x0 Objects - TCPIP PIC32 ETH Demo App-C32\Reboot.o

.bss%z242       0x00000000        0x0
 .bss           0x00000000        0x0 Objects - TCPIP PIC32 ETH Demo App-C32\Reboot.o

.data%z243      0x00000000        0x0
 .data          0x00000000        0x0 Objects - TCPIP PIC32 ETH Demo App-C32\Reboot.o

.mdebug.abi32%z244
                0x00000000        0x0
 .mdebug.abi32  0x00000000        0x0 Objects - TCPIP PIC32 ETH Demo App-C32\NBNS.o

.bss%z245       0x00000000        0x0
 .bss           0x00000000        0x0 Objects - TCPIP PIC32 ETH Demo App-C32\NBNS.o

.data%z246      0x00000000        0x0
 .data          0x00000000        0x0 Objects - TCPIP PIC32 ETH Demo App-C32\NBNS.o

.mdebug.abi32%z247
                0x00000000        0x0
 .mdebug.abi32  0x00000000        0x0 Objects - TCPIP PIC32 ETH Demo App-C32\MPFS.o

.bss%z248       0x00000000        0x0
 .bss           0x00000000        0x0 Objects - TCPIP PIC32 ETH Demo App-C32\MPFS.o

.data%z249      0x00000000        0x0
 .data          0x00000000        0x0 Objects - TCPIP PIC32 ETH Demo App-C32\MPFS.o

.mdebug.abi32%z250
                0x00000000        0x0
 .mdebug.abi32  0x00000000        0x0 Objects - TCPIP PIC32 ETH Demo App-C32\MPFS2.o

.data%z251      0x00000000        0x0
 .data          0x00000000        0x0 Objects - TCPIP PIC32 ETH Demo App-C32\MPFS2.o

.mdebug.abi32%z252
                0x00000000        0x0
 .mdebug.abi32  0x00000000        0x0 Objects - TCPIP PIC32 ETH Demo App-C32\LCDBlocking.o

.bss%z253       0x00000000        0x0
 .bss           0x00000000        0x0 Objects - TCPIP PIC32 ETH Demo App-C32\LCDBlocking.o

.data%z254      0x00000000        0x0
 .data          0x00000000        0x0 Objects - TCPIP PIC32 ETH Demo App-C32\LCDBlocking.o

.mdebug.abi32%z255
                0x00000000        0x0
 .mdebug.abi32  0x00000000        0x0 Objects - TCPIP PIC32 ETH Demo App-C32\IP.o

.bss%z256       0x00000000        0x0
 .bss           0x00000000        0x0 Objects - TCPIP PIC32 ETH Demo App-C32\IP.o

.data%z257      0x00000000        0x0
 .data          0x00000000        0x0 Objects - TCPIP PIC32 ETH Demo App-C32\IP.o

.mdebug.abi32%z258
                0x00000000        0x0
 .mdebug.abi32  0x00000000        0x0 Objects - TCPIP PIC32 ETH Demo App-C32\ICMP.o

.data%z259      0x00000000        0x0
 .data          0x00000000        0x0 Objects - TCPIP PIC32 ETH Demo App-C32\ICMP.o

.mdebug.abi32%z260
                0x00000000        0x0
 .mdebug.abi32  0x00000000        0x0 Objects - TCPIP PIC32 ETH Demo App-C32\HTTP.o

.bss%z261       0x00000000        0x0
 .bss           0x00000000        0x0 Objects - TCPIP PIC32 ETH Demo App-C32\HTTP.o

.data%z262      0x00000000        0x0
 .data          0x00000000        0x0 Objects - TCPIP PIC32 ETH Demo App-C32\HTTP.o

.mdebug.abi32%z263
                0x00000000        0x0
 .mdebug.abi32  0x00000000        0x0 Objects - TCPIP PIC32 ETH Demo App-C32\HTTP2.o

.bss%z264       0x00000000        0x0
 .bss           0x00000000        0x0 Objects - TCPIP PIC32 ETH Demo App-C32\HTTP2.o

.data%z265      0x00000000        0x0
 .data          0x00000000        0x0 Objects - TCPIP PIC32 ETH Demo App-C32\HTTP2.o

.mdebug.abi32%z266
                0x00000000        0x0
 .mdebug.abi32  0x00000000        0x0 Objects - TCPIP PIC32 ETH Demo App-C32\Helpers.o

.bss%z267       0x00000000        0x0
 .bss           0x00000000        0x0 Objects - TCPIP PIC32 ETH Demo App-C32\Helpers.o

.data%z268      0x00000000        0x0
 .data          0x00000000        0x0 Objects - TCPIP PIC32 ETH Demo App-C32\Helpers.o

.mdebug.abi32%z269
                0x00000000        0x0
 .mdebug.abi32  0x00000000        0x0 Objects - TCPIP PIC32 ETH Demo App-C32\Hashes.o

.bss%z270       0x00000000        0x0
 .bss           0x00000000        0x0 Objects - TCPIP PIC32 ETH Demo App-C32\Hashes.o

.data%z271      0x00000000        0x0
 .data          0x00000000        0x0 Objects - TCPIP PIC32 ETH Demo App-C32\Hashes.o

.mdebug.abi32%z272
                0x00000000        0x0
 .mdebug.abi32  0x00000000        0x0 Objects - TCPIP PIC32 ETH Demo App-C32\FTP.o

.bss%z273       0x00000000        0x0
 .bss           0x00000000        0x0 Objects - TCPIP PIC32 ETH Demo App-C32\FTP.o

.data%z274      0x00000000        0x0
 .data          0x00000000        0x0 Objects - TCPIP PIC32 ETH Demo App-C32\FTP.o

.mdebug.abi32%z275
                0x00000000        0x0
 .mdebug.abi32  0x00000000        0x0 Objects - TCPIP PIC32 ETH Demo App-C32\ENC28J60.o

.bss%z276       0x00000000        0x0
 .bss           0x00000000        0x0 Objects - TCPIP PIC32 ETH Demo App-C32\ENC28J60.o

.data%z277      0x00000000        0x0
 .data          0x00000000        0x0 Objects - TCPIP PIC32 ETH Demo App-C32\ENC28J60.o

.mdebug.abi32%z278
                0x00000000        0x0
 .mdebug.abi32  0x00000000        0x0 Objects - TCPIP PIC32 ETH Demo App-C32\DynDNS.o

.mdebug.abi32%z279
                0x00000000        0x0
 .mdebug.abi32  0x00000000        0x0 Objects - TCPIP PIC32 ETH Demo App-C32\DNS.o

.data%z280      0x00000000        0x0
 .data          0x00000000        0x0 Objects - TCPIP PIC32 ETH Demo App-C32\DNS.o

.mdebug.abi32%z281
                0x00000000        0x0
 .mdebug.abi32  0x00000000        0x0 Objects - TCPIP PIC32 ETH Demo App-C32\DHCPs.o

.bss%z282       0x00000000        0x0
 .bss           0x00000000        0x0 Objects - TCPIP PIC32 ETH Demo App-C32\DHCPs.o

.data%z283      0x00000000        0x0
 .data          0x00000000        0x0 Objects - TCPIP PIC32 ETH Demo App-C32\DHCPs.o

.mdebug.abi32%z284
                0x00000000        0x0
 .mdebug.abi32  0x00000000        0x0 Objects - TCPIP PIC32 ETH Demo App-C32\DHCP.o

.data%z285      0x00000000        0x0
 .data          0x00000000        0x0 Objects - TCPIP PIC32 ETH Demo App-C32\DHCP.o

.mdebug.abi32%z286
                0x00000000        0x0
 .mdebug.abi32  0x00000000        0x0 Objects - TCPIP PIC32 ETH Demo App-C32\Delay.o

.bss%z287       0x00000000        0x0
 .bss           0x00000000        0x0 Objects - TCPIP PIC32 ETH Demo App-C32\Delay.o

.data%z288      0x00000000        0x0
 .data          0x00000000        0x0 Objects - TCPIP PIC32 ETH Demo App-C32\Delay.o

.mdebug.abi32%z289
                0x00000000        0x0
 .mdebug.abi32  0x00000000        0x0 Objects - TCPIP PIC32 ETH Demo App-C32\ARP.o

.data%z290      0x00000000        0x0
 .data          0x00000000        0x0 Objects - TCPIP PIC32 ETH Demo App-C32\ARP.o

.mdebug.abi32%z291
                0x00000000        0x0
 .mdebug.abi32  0x00000000        0x0 Objects - TCPIP PIC32 ETH Demo App-C32\Announce.o

.bss%z292       0x00000000        0x0
 .bss           0x00000000        0x0 Objects - TCPIP PIC32 ETH Demo App-C32\Announce.o

.data%z293      0x00000000        0x0
 .data          0x00000000        0x0 Objects - TCPIP PIC32 ETH Demo App-C32\Announce.o

.mdebug.abi32%z294
                0x00000000        0x0
 .mdebug.abi32  0x00000000        0x0 Objects - TCPIP PIC32 ETH Demo App-C32\UDPPerformanceTest.o

.bss%z295       0x00000000        0x0
 .bss           0x00000000        0x0 Objects - TCPIP PIC32 ETH Demo App-C32\UDPPerformanceTest.o

.data%z296      0x00000000        0x0
 .data          0x00000000        0x0 Objects - TCPIP PIC32 ETH Demo App-C32\UDPPerformanceTest.o

.mdebug.abi32%z297
                0x00000000        0x0
 .mdebug.abi32  0x00000000        0x0 Objects - TCPIP PIC32 ETH Demo App-C32\CustomHTTPApp.o

.data%z298      0x00000000        0x0
 .data          0x00000000        0x0 Objects - TCPIP PIC32 ETH Demo App-C32\CustomHTTPApp.o

.mdebug.abi32%z299
                0x00000000        0x0
 .mdebug.abi32  0x00000000        0x0 Objects - TCPIP PIC32 ETH Demo App-C32\MainDemo.o

.bss%z300       0x00000000        0x0
 .bss           0x00000000        0x0 Objects - TCPIP PIC32 ETH Demo App-C32\MainDemo.o

.data%z301      0x00000000        0x0
 .data          0x00000000        0x0 Objects - TCPIP PIC32 ETH Demo App-C32\MainDemo.o

.bss%z302       0x00000000        0x0
 .bss           0x00000000        0x0 c:/program files (x86)/microchip/mplab c32 suite/bin/../lib/gcc/pic32mx/4.5.1/../../../../pic32mx/lib/size/crt0.o

.data%z303      0x00000000        0x0
 .data          0x00000000        0x0 c:/program files (x86)/microchip/mplab c32 suite/bin/../lib/gcc/pic32mx/4.5.1/../../../../pic32mx/lib/size/crt0.o

.text           0x9d000008     0x8674
 .text          0x9d000008     0x8674 Objects - TCPIP PIC32 ETH Demo App-C32\TCP.o
                0x9d000134                TCPInit
                0x9d000438                TCPOpen
                0x9d0008c8                TCPWasReset
                0x9d00097c                TCPIsConnected
                0x9d0009f0                TCPDisconnect
                0x9d000ca0                TCPClose
                0x9d000d2c                TCPGetRemoteInfo
                0x9d000dc4                TCPFlush
                0x9d000e64                TCPIsPutReady
                0x9d00105c                TCPPut
                0x9d0013d0                TCPPutArray
                0x9d001858                TCPPutString
                0x9d0018c8                TCPGetTxFIFOFull
                0x9d001998                TCPDiscard
                0x9d001a40                TCPIsGetReady
                0x9d001be0                TCPGet
                0x9d001e70                TCPGetArray
                0x9d002238                TCPGetRxFIFOFree
                0x9d002300                TCPPeekArray
                0x9d0025ac                TCPPeek
                0x9d00260c                TCPFindArrayEx
                0x9d002c34                TCPFindEx
                0x9d002cac                TCPTick
                0x9d003d9c                TCPProcess
                0x9d007da0                TCPAdjustFIFOSize

.rodata         0x9d00867c     0x7f60
 .rodata        0x9d00867c     0x7f60 Objects - TCPIP PIC32 ETH Demo App-C32\MPFSImg2.o
                0x9d00867c                MPFS_Start

.text           0x9d0105dc    0x1a6fc
 .text          0x9d0105dc     0x3b5c Objects - TCPIP PIC32 ETH Demo App-C32\HTTP2.o
                0x9d0105dc                HTTPPrint
                0x9d010be8                HTTPPrint_
                0x9d010c3c                HTTPInit
                0x9d010d6c                HTTPServer
                0x9d0137b0                HTTPURLDecode
                0x9d01398c                HTTPGetArg
                0x9d013a5c                HTTPReadPostName
                0x9d013ad8                HTTPReadPostValue
                0x9d013f20                HTTPIncFile
 .text          0x9d014138     0x3b3c Objects - TCPIP PIC32 ETH Demo App-C32\CustomHTTPApp.o
                0x9d014138                HTTPNeedsAuth
                0x9d0141c0                HTTPCheckAuth
                0x9d014240                HTTPExecuteGet
                0x9d014654                HTTPExecutePost
                0x9d0162a0                HTTPPrint_builddate
                0x9d01635c                HTTPPrint_version
                0x9d0163bc                HTTPPrint_btn
                0x9d016500                HTTPPrint_led
                0x9d0166ac                HTTPPrint_ledSelected
                0x9d01687c                HTTPPrint_pot
                0x9d0168fc                HTTPPrint_lcdtext
                0x9d016988                HTTPPrint_hellomsg
                0x9d016a40                HTTPPrint_cookiename
                0x9d016b00                HTTPPrint_uploadedmd5
                0x9d016d34                HTTPPrintIP
                0x9d016e1c                HTTPPrint_config_hostname
                0x9d016e74                HTTPPrint_config_dhcpchecked
                0x9d016ef0                HTTPPrint_config_ip
                0x9d016f3c                HTTPPrint_config_gw
                0x9d016f88                HTTPPrint_config_subnet
                0x9d016fd4                HTTPPrint_config_dns1
                0x9d017020                HTTPPrint_config_dns2
                0x9d01706c                HTTPPrint_config_mac
                0x9d0171f8                HTTPPrint_read_comm
                0x9d017220                HTTPPrint_write_comm
                0x9d017248                HTTPPrint_reboot
                0x9d017260                HTTPPrint_rebootaddr
                0x9d0172b8                HTTPPrint_ddns_user
                0x9d0173c4                HTTPPrint_ddns_pass
                0x9d0174d0                HTTPPrint_ddns_host
                0x9d0175dc                HTTPPrint_ddns_service
                0x9d0176b8                HTTPPrint_ddns_status
                0x9d0177e0                HTTPPrint_ddns_status_msg
                0x9d017a54                HTTPPrint_smtps_en
                0x9d017ab4                HTTPPrint_snmp_en
                0x9d017b14                HTTPPrint_status_ok
                0x9d017bc4                HTTPPrint_status_fail
 .text          0x9d017c74     0x29a0 Objects - TCPIP PIC32 ETH Demo App-C32\SMTP.o
                0x9d017c74                SMTPBeginUsage
                0x9d017d0c                SMTPEndUsage
                0x9d017dc8                SMTPTask
                0x9d019e90                SMTPSendMail
                0x9d019ec0                SMTPIsBusy
                0x9d019ee8                SMTPIsPutReady
                0x9d019f3c                SMTPPut
                0x9d01a0e4                SMTPPutArray
                0x9d01a198                SMTPPutString
                0x9d01a234                SMTPFlush
                0x9d01a26c                SMTPPutDone
 .text          0x9d01a614     0x1978 Objects - TCPIP PIC32 ETH Demo App-C32\BerkeleyAPI.o
                0x9d01a614                BerkeleySocketInit
                0x9d01a690                socket
                0x9d01a808                bind
                0x9d01a988                listen
                0x9d01ac44                accept
                0x9d01af14                connect
                0x9d01b240                send
                0x9d01b2a0                sendto
                0x9d01b64c                recv
                0x9d01b7c4                recvfrom
                0x9d01ba20                gethostname
                0x9d01bb14                closesocket
 .text          0x9d01bf8c     0x18cc Objects - TCPIP PIC32 ETH Demo App-C32\UARTConfig.o
                0x9d01bf8c                DoUARTConfig
 .text          0x9d01d858     0x18ac Objects - TCPIP PIC32 ETH Demo App-C32\DynDNS.o
                0x9d01d858                DDNSInit
                0x9d01d8fc                DDNSTask
                0x9d01efe8                DDNSForceUpdate
                0x9d01f02c                DDNSSetService
                0x9d01f0b4                DDNSGetLastIP
                0x9d01f0e0                DDNSGetLastStatus
 .text          0x9d01f104     0x175c Objects - TCPIP PIC32 ETH Demo App-C32\DHCP.o
                0x9d01f104                DHCPInit
                0x9d01f1f8                DHCPDisable
                0x9d01f268                DHCPEnable
                0x9d01f2c8                DHCPIsEnabled
                0x9d01f300                DHCPIsBound
                0x9d01f33c                DHCPStateChanged
                0x9d01f3a0                DHCPIsServerDetected
                0x9d01f3dc                DHCPTask
 .text          0x9d020860     0x16c8 Objects - TCPIP PIC32 ETH Demo App-C32\MPFS2.o
                0x9d020860                MPFSInit
                0x9d0208e4                MPFSOpen
                0x9d020c00                MPFSOpenID
                0x9d020d70                MPFSClose
                0x9d020dd8                MPFSGet
                0x9d020ffc                MPFSGetArray
                0x9d021288                MPFSGetLong
                0x9d0212e0                MPFSSeek
                0x9d0217b4                MPFSGetTimestamp
                0x9d021870                MPFSGetMicrotime
                0x9d02192c                MPFSGetFlags
                0x9d0219e8                MPFSGetSize
                0x9d021aa4                MPFSGetBytesRem
                0x9d021b40                MPFSGetStartAddr
                0x9d021bfc                MPFSGetEndAddr
                0x9d021cc8                MPFSGetFilename
                0x9d021dc8                MPFSGetPosition
                0x9d021e34                MPFSGetID
 .text          0x9d021f28     0x1448 Objects - TCPIP PIC32 ETH Demo App-C32\Helpers.o
                0x9d021f28                LFSRSeedRand
                0x9d021fac                LFSRRand
                0x9d022024                GenerateRandomDWORD
                0x9d022048                StringToIPAddress
                0x9d0223f8                Base64Decode
                0x9d022724                Base64Encode
                0x9d0229dc                uitoa
                0x9d022b08                hexatob
                0x9d022bfc                btohexa_high
                0x9d022c60                btohexa_low
                0x9d022cc4                stricmppgm2ram
                0x9d022e30                swaps
                0x9d022e7c                swapl
                0x9d022f64                CalcIPChecksum
                0x9d02304c                strupr
                0x9d0230e8                FormatNetBIOSName
                0x9d0231b0                strnchr
                0x9d023264                strncpy_m
 .text          0x9d023370     0x1318 Objects - TCPIP PIC32 ETH Demo App-C32\UDP.o
                0x9d023370                UDPInit
                0x9d0233e0                UDPOpenEx
                0x9d023634                UDPTask
                0x9d023b78                UDPIsOpened
                0x9d023bc8                UDPClose
                0x9d023c70                UDPSetTxBuffer
                0x9d023cd0                UDPSetRxBuffer
                0x9d023d20                UDPIsPutReady
                0x9d023dac                UDPPut
                0x9d023e38                UDPPutArray
                0x9d023ee0                UDPPutString
                0x9d023f38                UDPFlush
                0x9d02411c                UDPIsGetReady
                0x9d0241ac                UDPGet
                0x9d024230                UDPGetArray
                0x9d0242f0                UDPDiscard
                0x9d024350                UDPProcess
 .text          0x9d024688     0x1304 Objects - TCPIP PIC32 ETH Demo App-C32\ETHPIC32ExtPhy.o
                0x9d024688                EthPhyRestartNegotiation
                0x9d02471c                EthPhyGetHwConfigFlags
                0x9d02478c                EthPhyInit
                0x9d024c6c                EthPhyNegotiationComplete
                0x9d024ecc                EthPhyGetNegotiationResult
                0x9d025210                EthPhyGetLinkStatus
                0x9d0252e8                EthPhyReset
                0x9d0253f4                EthPhyScanLinkStart
                0x9d025430                EthPhyScanLinkRead
                0x9d02549c                EthPhyScanLinkStop
 .text          0x9d02598c      0xf64 Objects - TCPIP PIC32 ETH Demo App-C32\ETHPIC32IntMac.o
                0x9d02598c                MACInit
                0x9d025d9c                MACIsLinked
                0x9d025dc4                MACGetTxBaseAddr
                0x9d025e04                MACGetHttpBaseAddr
                0x9d025e2c                MACGetSslBaseAddr
                0x9d025e54                MACSetWritePtr
                0x9d025e8c                MACIsTxReady
                0x9d026048                MACPut
                0x9d026084                MACPutArray
                0x9d0260e4                MACPutHeader
                0x9d0261c8                MACFlush
                0x9d026238                MACDiscardRx
                0x9d026298                MACGetHeader
                0x9d0264c4                MACSetReadPtrInRx
                0x9d026500                MACSetReadPtr
                0x9d026538                MACGet
                0x9d02656c                MACGetArray
                0x9d0265dc                MACGetFreeRxSize
                0x9d026630                MACMemCopyAsync
                0x9d0266d4                MACIsMemCopyDone
                0x9d0266f8                CalcIPBufferChecksum
                0x9d026740                MACCalcRxChecksum
 .text          0x9d0268f0      0xf48 Objects - TCPIP PIC32 ETH Demo App-C32\DNS.o
                0x9d0268f0                DNSBeginUsage
                0x9d026944                DNSEndUsage
                0x9d0269b4                DNSResolve
                0x9d026a48                DNSIsResolved
 .text          0x9d027838      0xebc Objects - TCPIP PIC32 ETH Demo App-C32\MainDemo.o
                0x9d027838                _general_exception_handler
                0x9d027864                main
                0x9d027dbc                DisplayIPValue
 .text          0x9d0286f4      0xe68 Objects - TCPIP PIC32 ETH Demo App-C32\AutoIP.o
                0x9d0286f4                AutoIPInit
                0x9d02878c                AutoIPIsConfigured
                0x9d0287c4                AutoIPConfigIsInProgress
                0x9d028800                AutoIPTasks
                0x9d029220                AutoIPConflict
                0x9d029398                AutoIPDisable
                0x9d029438                AutoIPEnable
                0x9d029480                AutoIPIsDisabled
                0x9d0294b4                AutoIPRandSeed
                0x9d0294f0                AutoIPRand
 .text          0x9d02955c      0xc08 Objects - TCPIP PIC32 ETH Demo App-C32\DHCPs.o
                0x9d02955c                DHCPServerTask
 .text          0x9d02a164      0xb74 Objects - TCPIP PIC32 ETH Demo App-C32\Telnet.o
                0x9d02a164                TelnetTask

.rodata         0x9d02acd8      0x7d4
 .rodata        0x9d02acd8      0x7d4 c:/program files (x86)/microchip/mplab c32 suite/bin/../lib/gcc/pic32mx/4.5.1/../../../../pic32mx/lib/size\libmchp_peripheral_32MX795F512L.a(int_tbl_lib.o)
                0x9d02acd8                __IntSrcTbl
                0x9d02b1f4                __IntVectorTbl

.text           0x9d02b4ac     0x2984
 .text          0x9d02b4ac      0x7ac Objects - TCPIP PIC32 ETH Demo App-C32\Hashes.o
                0x9d02b4ac                HashAddData
                0x9d02b50c                MD5Initialize
                0x9d02b580                MD5AddData
                0x9d02b958                MD5Calculate
 .text          0x9d02bc58      0x72c Objects - TCPIP PIC32 ETH Demo App-C32\ARP.o
                0x9d02bc58                ARPSendPkt
                0x9d02be00                ARPInit
                0x9d02be88                ARPProcess
                0x9d02c134                ARPResolve
                0x9d02c218                ARPIsResolved
                0x9d02c2f8                SwapARPPacket
 .text          0x9d02c384      0x724 Objects - TCPIP PIC32 ETH Demo App-C32\NBNS.o
                0x9d02c384                NBNSTask
 .text          0x9d02caa8      0x6d0 Objects - TCPIP PIC32 ETH Demo App-C32\TCPPerformanceTest.o
                0x9d02caa8                TCPPerformanceTask
                0x9d02cae0                TCPTXPerformanceTask
                0x9d02cebc                TCPRXPerformanceTask
 .text          0x9d02d178      0x668 Objects - TCPIP PIC32 ETH Demo App-C32\BerkeleyTCPClientDemo.o
                0x9d02d178                BerkeleyTCPClientDemo
 .text          0x9d02d7e0      0x650 Objects - TCPIP PIC32 ETH Demo App-C32\ICMP.o
                0x9d02d7e0                ICMPProcess
                0x9d02da0c                ICMPSendPing
                0x9d02da64                ICMPSendPingToHost
                0x9d02dac8                ICMPGetReply
                0x9d02ddb0                ICMPBeginUsage
                0x9d02de04                ICMPEndUsage

.rodata         0x9d02de30      0x548
 .rodata        0x9d02de30      0x548 Objects - TCPIP PIC32 ETH Demo App-C32\HTTP2.o

.text           0x9d02e378      0x524
 .text          0x9d02e378      0x524 Objects - TCPIP PIC32 ETH Demo App-C32\GenericTCPClient.o
                0x9d02e378                GenericTCPClient

.rodata         0x9d02e89c      0x4f0
 .rodata        0x9d02e89c      0x4f0 Objects - TCPIP PIC32 ETH Demo App-C32\CustomHTTPApp.o
                0x9d02ebc4                HTML_UP_ARROW
                0x9d02ebc8                HTML_DOWN_ARROW

.dinit          0x9d02ed8c      0x4c8
 .dinit         0x9d02ed8c      0x4c8 data_init

.text           0x9d02f254     0x21b4
 .text          0x9d02f254      0x4b4 Objects - TCPIP PIC32 ETH Demo App-C32\BerkeleyUDPClientDemo.o
                0x9d02f254                BerkeleyUDPClientDemo
                0x9d02f670                BerkeleySNTPGetUTCSeconds
 .text          0x9d02f708      0x454 Objects - TCPIP PIC32 ETH Demo App-C32\StackTsk.o
                0x9d02f708                StackInit
                0x9d02f7ec                StackTask
                0x9d02fae4                StackApplications
 .text          0x9d02fb5c      0x448 c:/program files (x86)/microchip/mplab c32 suite/bin/../lib/gcc/pic32mx/4.5.1/size\libgcc.a(_udivdi3.o)
                0x9d02fb5c                __udivdi3
 .text          0x9d02ffa4      0x3f8 Objects - TCPIP PIC32 ETH Demo App-C32\SNTP.o
                0x9d02ffa4                SNTPClient
                0x9d030304                SNTPGetUTCSeconds
 .text          0x9d03039c      0x3c0 Objects - TCPIP PIC32 ETH Demo App-C32\Announce.o
                0x9d03039c                AnnounceIP
                0x9d030518                DiscoveryTask
 .text          0x9d03075c      0x348 Objects - TCPIP PIC32 ETH Demo App-C32\IP.o
                0x9d03075c                IPGetHeader
                0x9d03089c                IPPutHeader
                0x9d0309c8                IPSetRxBuffer
 .text          0x9d030aa4      0x348 Objects - TCPIP PIC32 ETH Demo App-C32\Tick.o
                0x9d030aa4                TickInit
                0x9d030bec                TickGet
                0x9d030c24                TickGetDiv256
                0x9d030c94                TickGetDiv64K
                0x9d030d04                TickConvertToMilliseconds
                0x9d030d6c                _T2Interrupt
 .text          0x9d030dec      0x330 Objects - TCPIP PIC32 ETH Demo App-C32\SMTPDemo.o
                0x9d030dec                SMTPDemo
 .text          0x9d03111c      0x2ec Objects - TCPIP PIC32 ETH Demo App-C32\BerkeleyTCPServerDemo.o
                0x9d03111c                BerkeleyTCPServerDemo

.text.malloc    0x9d031408      0x254
 .text.malloc   0x9d031408      0x254 c:/program files (x86)/microchip/mplab c32 suite/bin/../lib/gcc/pic32mx/4.5.1/../../../../pic32mx/lib/size\libc.a(malloc.o)
                0x9d031408                malloc

.rodata         0x9d03165c      0x250
 .rodata        0x9d03165c      0x250 Objects - TCPIP PIC32 ETH Demo App-C32\UARTConfig.o

.text.EthRxBuffersAppend
                0x9d0318ac      0x224
 .text.EthRxBuffersAppend
                0x9d0318ac      0x224 c:/program files (x86)/microchip/mplab c32 suite/bin/../lib/gcc/pic32mx/4.5.1/../../../../pic32mx/lib/size\libmchp_peripheral_32MX795F512L.a(eth_rx_buffers_append_lib.o)
                0x9d0318ac                EthRxBuffersAppend

.text           0x9d031ad0      0x214
 .text          0x9d031ad0      0x214 Objects - TCPIP PIC32 ETH Demo App-C32\GenericTCPServer.o
                0x9d031ad0                GenericTCPServer

.text.realloc   0x9d031ce4      0x200
 .text.realloc  0x9d031ce4      0x200 c:/program files (x86)/microchip/mplab c32 suite/bin/../lib/gcc/pic32mx/4.5.1/../../../../pic32mx/lib/size\libc.a(malloc.o)
                0x9d031ce4                realloc

.rodata         0x9d031ee4      0x3bc
 .rodata        0x9d031ee4      0x1e4 Objects - TCPIP PIC32 ETH Demo App-C32\Telnet.o
 .rodata        0x9d0320c8      0x1d8 Objects - TCPIP PIC32 ETH Demo App-C32\DynDNS.o
                0x9d032180                ddnsServiceHosts

.text           0x9d0322a0      0x1c4
 .text          0x9d0322a0      0x1c4 Objects - TCPIP PIC32 ETH Demo App-C32\ETHPIC32ExtPhyDP83848.o
                0x9d0322a0                EthPhyConfigureMII
                0x9d03234c                EthPhyConfigureMdix
                0x9d032418                EthPhyMIIMAddress
                0x9d03243c                EthPhyMIIMClock

.text._EthAckPacket
                0x9d032464      0x1bc
 .text._EthAckPacket
                0x9d032464      0x1bc c:/program files (x86)/microchip/mplab c32 suite/bin/../lib/gcc/pic32mx/4.5.1/../../../../pic32mx/lib/size\libmchp_peripheral_32MX795F512L.a(eth_ack_packet_lib.o)
                0x9d032464                _EthAckPacket

.text._EthRxAckBuffer
                0x9d032620      0x188
 .text._EthRxAckBuffer
                0x9d032620      0x188 c:/program files (x86)/microchip/mplab c32 suite/bin/../lib/gcc/pic32mx/4.5.1/../../../../pic32mx/lib/size\libmchp_peripheral_32MX795F512L.a(eth_ack_packet_lib.o)

.text           0x9d0327a8      0x2d0
 .text          0x9d0327a8      0x168 c:/program files (x86)/microchip/mplab c32 suite/bin/../lib/gcc/pic32mx/4.5.1/../../../../pic32mx/lib/size\libc.a(memcpy.o)
                0x9d0327a8                memcpy
 .text          0x9d032910      0x168 c:/program files (x86)/microchip/mplab c32 suite/bin/../lib/gcc/pic32mx/4.5.1/../../../../pic32mx/lib/size\libc.a(strlen.o)
                0x9d032910                strlen

.text._EthAppendBusyList
                0x9d032a78      0x160
 .text._EthAppendBusyList
                0x9d032a78      0x160 c:/program files (x86)/microchip/mplab c32 suite/bin/../lib/gcc/pic32mx/4.5.1/../../../../pic32mx/lib/size\libmchp_peripheral_32MX795F512L.a(_eth_append_busy_list_lib.o)
                0x9d032a78                _EthAppendBusyList

.text           0x9d032bd8      0x2b0
 .text          0x9d032bd8      0x158 Objects - TCPIP PIC32 ETH Demo App-C32\Reboot.o
                0x9d032bd8                RebootTask
 .text          0x9d032d30      0x158 Objects - TCPIP PIC32 ETH Demo App-C32\PingDemo.o
                0x9d032d30                PingDemo

.text.EthRxGetPacket
                0x9d032e88      0x150
 .text.EthRxGetPacket
                0x9d032e88      0x150 c:/program files (x86)/microchip/mplab c32 suite/bin/../lib/gcc/pic32mx/4.5.1/../../../../pic32mx/lib/size\libmchp_peripheral_32MX795F512L.a(eth_rx_get_packet_lib.o)
                0x9d032e88                EthRxGetPacket

.text._sbrk_init
                0x9d032fd8      0x14c
 .text._sbrk_init
                0x9d032fd8      0x14c c:/program files (x86)/microchip/mplab c32 suite/bin/../lib/gcc/pic32mx/4.5.1/../../../../pic32mx/lib/size\libc.a(sbrk.o)
                0x9d032fd8                _sbrk_init

.rodata         0x9d033124      0x270
 .rodata        0x9d033124      0x140 Objects - TCPIP PIC32 ETH Demo App-C32\Hashes.o
 .rodata        0x9d033264      0x130 Objects - TCPIP PIC32 ETH Demo App-C32\BerkeleyTCPClientDemo.o

.text.EthDescriptorsPoolAdd
                0x9d033394      0x130
 .text.EthDescriptorsPoolAdd
                0x9d033394      0x130 c:/program files (x86)/microchip/mplab c32 suite/bin/../lib/gcc/pic32mx/4.5.1/../../../../pic32mx/lib/size\libmchp_peripheral_32MX795F512L.a(eth_descriptors_add_lib.o)
                0x9d033394                EthDescriptorsPoolAdd

.text           0x9d0334c4      0x120
 .text          0x9d0334c4      0x120 c:/program files (x86)/microchip/mplab c32 suite/bin/../lib/gcc/pic32mx/4.5.1/../../../../pic32mx/lib/size\libc.a(strcmp.o)
                0x9d0334c4                strcmp

.text.EthDescriptorsAdd
                0x9d0335e4      0x120
 .text.EthDescriptorsAdd
                0x9d0335e4      0x120 c:/program files (x86)/microchip/mplab c32 suite/bin/../lib/gcc/pic32mx/4.5.1/../../../../pic32mx/lib/size\libmchp_peripheral_32MX795F512L.a(eth_descriptors_add_lib.o)
                0x9d0335e4                EthDescriptorsAdd

.text.EthTxSendPacket
                0x9d033704      0x10c
 .text.EthTxSendPacket
                0x9d033704      0x10c c:/program files (x86)/microchip/mplab c32 suite/bin/../lib/gcc/pic32mx/4.5.1/../../../../pic32mx/lib/size\libmchp_peripheral_32MX795F512L.a(eth_tx_packet_lib.o)
                0x9d033704                EthTxSendPacket

.text           0x9d033810      0x104
 .text          0x9d033810      0x104 Objects - TCPIP PIC32 ETH Demo App-C32\UART.o
                0x9d033810                ReadStringUART

.rodata         0x9d033914      0x104
 .rodata        0x9d033914      0x104 c:/program files (x86)/microchip/mplab c32 suite/bin/../lib/gcc/pic32mx/4.5.1/../../../../pic32mx/lib/size\libc.a(ctype.o)
                0x9d033914                _ctype

.text           0x9d033a18       0xf0
 .text          0x9d033a18       0xf0 Objects - TCPIP PIC32 ETH Demo App-C32\Delay.o
                0x9d033a18                DelayMs
                0x9d033aac                Delay10us

.text.general_exception
                0x9d033b08       0xd0
 .text.general_exception
                0x9d033b08       0xd0 c:/program files (x86)/microchip/mplab c32 suite/bin/../lib/gcc/pic32mx/4.5.1/../../../../pic32mx/lib/size\libc.a(general-exception.o)
                0x9d033b08                _general_exception_context

.text.EthMACOpen
                0x9d033bd8       0xb8
 .text.EthMACOpen
                0x9d033bd8       0xb8 c:/program files (x86)/microchip/mplab c32 suite/bin/../lib/gcc/pic32mx/4.5.1/../../../../pic32mx/lib/size\libmchp_peripheral_32MX795F512L.a(eth_mac_open_lib.o)
                0x9d033bd8                EthMACOpen

.text.EthTxSendBuffer
                0x9d033c90       0xb0
 .text.EthTxSendBuffer
                0x9d033c90       0xb0 c:/program files (x86)/microchip/mplab c32 suite/bin/../lib/gcc/pic32mx/4.5.1/../../../../pic32mx/lib/size\libmchp_peripheral_32MX795F512L.a(eth_tx_packet_lib.o)
                0x9d033c90                EthTxSendBuffer

.text.EthInit   0x9d033d40       0xac
 .text.EthInit  0x9d033d40       0xac c:/program files (x86)/microchip/mplab c32 suite/bin/../lib/gcc/pic32mx/4.5.1/../../../../pic32mx/lib/size\libmchp_peripheral_32MX795F512L.a(eth_init_lib.o)
                0x9d033d40                EthInit

.text           0x9d033dec       0xa8
 .text          0x9d033dec       0xa8 c:/program files (x86)/microchip/mplab c32 suite/bin/../lib/gcc/pic32mx/4.5.1/../../../../pic32mx/lib/size\libc.a(memset.o)
                0x9d033dec                memset

.text._sbrk     0x9d033e94       0xa4
 .text._sbrk    0x9d033e94       0xa4 c:/program files (x86)/microchip/mplab c32 suite/bin/../lib/gcc/pic32mx/4.5.1/../../../../pic32mx/lib/size\libc.a(sbrk.o)
                0x9d033e94                _sbrk

.text._EthTxSchedBuffer
                0x9d033f38       0xa0
 .text._EthTxSchedBuffer
                0x9d033f38       0xa0 c:/program files (x86)/microchip/mplab c32 suite/bin/../lib/gcc/pic32mx/4.5.1/../../../../pic32mx/lib/size\libmchp_peripheral_32MX795F512L.a(eth_tx_packet_lib.o)

.rodata         0x9d033fd8       0x98
 .rodata        0x9d033fd8       0x98 Objects - TCPIP PIC32 ETH Demo App-C32\SMTP.o

.text           0x9d034070       0x98
 .text          0x9d034070       0x98 c:/program files (x86)/microchip/mplab c32 suite/bin/../lib/gcc/pic32mx/4.5.1/../../../../pic32mx/lib/size\libc.a(memcmp.o)
                0x9d034070                memcmp

.rodata         0x9d034108       0x94
 .rodata        0x9d034108       0x94 Objects - TCPIP PIC32 ETH Demo App-C32\GenericTCPClient.o

.text.atol      0x9d03419c       0x90
 .text.atol     0x9d03419c       0x90 c:/program files (x86)/microchip/mplab c32 suite/bin/../lib/gcc/pic32mx/4.5.1/../../../../pic32mx/lib/size\libc.a(atol.o)
                0x9d03419c                atol

.text.atoi      0x9d03422c       0x84
 .text.atoi     0x9d03422c       0x84 c:/program files (x86)/microchip/mplab c32 suite/bin/../lib/gcc/pic32mx/4.5.1/../../../../pic32mx/lib/size\libc.a(atoi.o)
                0x9d03422c                atoi

.text._EthTxSchedList
                0x9d0342b0       0x84
 .text._EthTxSchedList
                0x9d0342b0       0x84 c:/program files (x86)/microchip/mplab c32 suite/bin/../lib/gcc/pic32mx/4.5.1/../../../../pic32mx/lib/size\libmchp_peripheral_32MX795F512L.a(eth_tx_packet_lib.o)

.text.strstr    0x9d034334       0x78
 .text.strstr   0x9d034334       0x78 c:/program files (x86)/microchip/mplab c32 suite/bin/../lib/gcc/pic32mx/4.5.1/../../../../pic32mx/lib/size\libc.a(strstr.o)
                0x9d034334                strstr

.text.SoftReset
                0x9d0343ac       0x78
 .text.SoftReset
                0x9d0343ac       0x78 c:/program files (x86)/microchip/mplab c32 suite/bin/../lib/gcc/pic32mx/4.5.1/../../../../pic32mx/lib/size\libmchp_peripheral_32MX795F512L.a(soft_reset_lib.o)
                0x9d0343ac                SoftReset

.text.UARTEnable
                0x9d034424       0x78
 .text.UARTEnable
                0x9d034424       0x78 c:/program files (x86)/microchip/mplab c32 suite/bin/../lib/gcc/pic32mx/4.5.1/../../../../pic32mx/lib/size\libmchp_peripheral_32MX795F512L.a(uart_lib.o)
                0x9d034424                UARTEnable

.text.ultoa     0x9d03449c       0x68
 .text.ultoa    0x9d03449c       0x68 c:/program files (x86)/microchip/mplab c32 suite/bin/../lib/gcc/pic32mx/4.5.1/../../../../pic32mx/lib/size\libc.a(ltoa.o)
                0x9d03449c                ultoa

.text.EthRxFiltersPMSet
                0x9d034504       0x64
 .text.EthRxFiltersPMSet
                0x9d034504       0x64 c:/program files (x86)/microchip/mplab c32 suite/bin/../lib/gcc/pic32mx/4.5.1/../../../../pic32mx/lib/size\libmchp_peripheral_32MX795F512L.a(eth_rx_filters_lib.o)
                0x9d034504                EthRxFiltersPMSet

.text.EthTxGetBufferStatus
                0x9d034568       0x60
 .text.EthTxGetBufferStatus
                0x9d034568       0x60 c:/program files (x86)/microchip/mplab c32 suite/bin/../lib/gcc/pic32mx/4.5.1/../../../../pic32mx/lib/size\libmchp_peripheral_32MX795F512L.a(eth_tx_packet_lib.o)
                0x9d034568                EthTxGetBufferStatus

.text.EthMIIMConfig
                0x9d0345c8       0x60
 .text.EthMIIMConfig
                0x9d0345c8       0x60 c:/program files (x86)/microchip/mplab c32 suite/bin/../lib/gcc/pic32mx/4.5.1/../../../../pic32mx/lib/size\libmchp_peripheral_32MX795F512L.a(eth_miim_access.o)
                0x9d0345c8                EthMIIMConfig

.rodata         0x9d034628       0x5c
 .rodata        0x9d034628       0x5c Objects - TCPIP PIC32 ETH Demo App-C32\TCPPerformanceTest.o

.text.UARTSetDataRate
                0x9d034684       0x5c
 .text.UARTSetDataRate
                0x9d034684       0x5c c:/program files (x86)/microchip/mplab c32 suite/bin/../lib/gcc/pic32mx/4.5.1/../../../../pic32mx/lib/size\libmchp_peripheral_32MX795F512L.a(uart_lib.o)
                0x9d034684                UARTSetDataRate

.rodata         0x9d0346e0       0xa4
 .rodata        0x9d0346e0       0x54 c:/program files (x86)/microchip/mplab c32 suite/bin/../lib/gcc/pic32mx/4.5.1/../../../../pic32mx/lib/size\libmchp_peripheral_32MX795F512L.a(_ports_tbl_libp.o)
                0x9d0346e0                PortRegTbl
 .rodata        0x9d034734       0x50 Objects - TCPIP PIC32 ETH Demo App-C32\SMTPDemo.o

.text.calloc    0x9d034784       0x50
 .text.calloc   0x9d034784       0x50 c:/program files (x86)/microchip/mplab c32 suite/bin/../lib/gcc/pic32mx/4.5.1/../../../../pic32mx/lib/size\libc.a(calloc.o)
                0x9d034784                calloc

.text.EthMACSetAddress
                0x9d0347d4       0x4c
 .text.EthMACSetAddress
                0x9d0347d4       0x4c c:/program files (x86)/microchip/mplab c32 suite/bin/../lib/gcc/pic32mx/4.5.1/../../../../pic32mx/lib/size\libmchp_peripheral_32MX795F512L.a(eth_mac_set_address_max_lib.o)
                0x9d0347d4                EthMACSetAddress

.text.INTEnable
                0x9d034820       0x4c
 .text.INTEnable
                0x9d034820       0x4c c:/program files (x86)/microchip/mplab c32 suite/bin/../lib/gcc/pic32mx/4.5.1/../../../../pic32mx/lib/size\libmchp_peripheral_32MX795F512L.a(int_tbl_lib.o)
                0x9d034820                INTEnable

.text.strncpy   0x9d03486c       0x48
 .text.strncpy  0x9d03486c       0x48 c:/program files (x86)/microchip/mplab c32 suite/bin/../lib/gcc/pic32mx/4.5.1/../../../../pic32mx/lib/size\libc.a(strncpy.o)
                0x9d03486c                strncpy

.text.sbrk      0x9d0348b4       0x48
 .text.sbrk     0x9d0348b4       0x48 c:/program files (x86)/microchip/mplab c32 suite/bin/../lib/gcc/pic32mx/4.5.1/../../../../pic32mx/lib/size\libc.a(sbrk.o)
                0x9d0348b4                sbrk

.rodata         0x9d0348fc       0x44
 .rodata        0x9d0348fc       0x44 Objects - TCPIP PIC32 ETH Demo App-C32\MainDemo.o

.text.strncmp   0x9d034940       0x44
 .text.strncmp  0x9d034940       0x44 c:/program files (x86)/microchip/mplab c32 suite/bin/../lib/gcc/pic32mx/4.5.1/../../../../pic32mx/lib/size\libc.a(strncmp.o)
                0x9d034940                strncmp

.text.EthMACGetAddress
                0x9d034984       0x44
 .text.EthMACGetAddress
                0x9d034984       0x44 c:/program files (x86)/microchip/mplab c32 suite/bin/../lib/gcc/pic32mx/4.5.1/../../../../pic32mx/lib/size\libmchp_peripheral_32MX795F512L.a(eth_mac_set_address_max_lib.o)
                0x9d034984                EthMACGetAddress

.text.EthMIIMReadStart
                0x9d0349c8       0x44
 .text.EthMIIMReadStart
                0x9d0349c8       0x44 c:/program files (x86)/microchip/mplab c32 suite/bin/../lib/gcc/pic32mx/4.5.1/../../../../pic32mx/lib/size\libmchp_peripheral_32MX795F512L.a(eth_miim_access.o)
                0x9d0349c8                EthMIIMReadStart

.text.ltoa      0x9d034a0c       0x40
 .text.ltoa     0x9d034a0c       0x40 c:/program files (x86)/microchip/mplab c32 suite/bin/../lib/gcc/pic32mx/4.5.1/../../../../pic32mx/lib/size\libc.a(ltoa.o)
                0x9d034a0c                ltoa

.text.UARTGetDataRate
                0x9d034a4c       0x40
 .text.UARTGetDataRate
                0x9d034a4c       0x40 c:/program files (x86)/microchip/mplab c32 suite/bin/../lib/gcc/pic32mx/4.5.1/../../../../pic32mx/lib/size\libmchp_peripheral_32MX795F512L.a(uart_lib.o)
                0x9d034a4c                UARTGetDataRate

.text.EthRxGetBuffer
                0x9d034a8c       0x3c
 .text.EthRxGetBuffer
                0x9d034a8c       0x3c c:/program files (x86)/microchip/mplab c32 suite/bin/../lib/gcc/pic32mx/4.5.1/../../../../pic32mx/lib/size\libmchp_peripheral_32MX795F512L.a(eth_rx_get_packet_lib.o)
                0x9d034a8c                EthRxGetBuffer

.text.EthMIIMWriteStart
                0x9d034ac8       0x3c
 .text.EthMIIMWriteStart
                0x9d034ac8       0x3c c:/program files (x86)/microchip/mplab c32 suite/bin/../lib/gcc/pic32mx/4.5.1/../../../../pic32mx/lib/size\libmchp_peripheral_32MX795F512L.a(eth_miim_access.o)
                0x9d034ac8                EthMIIMWriteStart

.text.PORTSetPinsDigitalIn
                0x9d034b04       0x3c
 .text.PORTSetPinsDigitalIn
                0x9d034b04       0x3c c:/program files (x86)/microchip/mplab c32 suite/bin/../lib/gcc/pic32mx/4.5.1/../../../../pic32mx/lib/size\libmchp_peripheral_32MX795F512L.a(port_set_pins_digital_in_lib.o)
                0x9d034b04                PORTSetPinsDigitalIn

.text.PORTSetPinsDigitalOut
                0x9d034b40       0x3c
 .text.PORTSetPinsDigitalOut
                0x9d034b40       0x3c c:/program files (x86)/microchip/mplab c32 suite/bin/../lib/gcc/pic32mx/4.5.1/../../../../pic32mx/lib/size\libmchp_peripheral_32MX795F512L.a(port_set_pins_digital_out_lib.o)
                0x9d034b40                PORTSetPinsDigitalOut

.text.UARTConfigure
                0x9d034b7c       0x3c
 .text.UARTConfigure
                0x9d034b7c       0x3c c:/program files (x86)/microchip/mplab c32 suite/bin/../lib/gcc/pic32mx/4.5.1/../../../../pic32mx/lib/size\libmchp_peripheral_32MX795F512L.a(uart_lib.o)
                0x9d034b7c                UARTConfigure

.text.UARTSetAddress
                0x9d034bb8       0x3c
 .text.UARTSetAddress
                0x9d034bb8       0x3c c:/program files (x86)/microchip/mplab c32 suite/bin/../lib/gcc/pic32mx/4.5.1/../../../../pic32mx/lib/size\libmchp_peripheral_32MX795F512L.a(uart_lib.o)
                0x9d034bb8                UARTSetAddress

.text._EthFindPacket
                0x9d034bf4       0x38
 .text._EthFindPacket
                0x9d034bf4       0x38 c:/program files (x86)/microchip/mplab c32 suite/bin/../lib/gcc/pic32mx/4.5.1/../../../../pic32mx/lib/size\libmchp_peripheral_32MX795F512L.a(eth_tx_packet_lib.o)
                0x9d034bf4                _EthFindPacket

.text.EthMIIMScanStart
                0x9d034c2c       0x38
 .text.EthMIIMScanStart
                0x9d034c2c       0x38 c:/program files (x86)/microchip/mplab c32 suite/bin/../lib/gcc/pic32mx/4.5.1/../../../../pic32mx/lib/size\libmchp_peripheral_32MX795F512L.a(eth_miim_access.o)
                0x9d034c2c                EthMIIMScanStart

.text.INTSetVectorPriority
                0x9d034c64       0x38
 .text.INTSetVectorPriority
                0x9d034c64       0x38 c:/program files (x86)/microchip/mplab c32 suite/bin/../lib/gcc/pic32mx/4.5.1/../../../../pic32mx/lib/size\libmchp_peripheral_32MX795F512L.a(int_tbl_lib.o)
                0x9d034c64                INTSetVectorPriority

.text.INTSetVectorSubPriority
                0x9d034c9c       0x38
 .text.INTSetVectorSubPriority
                0x9d034c9c       0x38 c:/program files (x86)/microchip/mplab c32 suite/bin/../lib/gcc/pic32mx/4.5.1/../../../../pic32mx/lib/size\libmchp_peripheral_32MX795F512L.a(int_tbl_lib.o)
                0x9d034c9c                INTSetVectorSubPriority

.text.UARTWatchForAddress
                0x9d034cd4       0x38
 .text.UARTWatchForAddress
                0x9d034cd4       0x38 c:/program files (x86)/microchip/mplab c32 suite/bin/../lib/gcc/pic32mx/4.5.1/../../../../pic32mx/lib/size\libmchp_peripheral_32MX795F512L.a(uart_lib.o)
                0x9d034cd4                UARTWatchForAddress

.text.INTEnableSystemMultiVectoredInt
                0x9d034d0c       0x34
 .text.INTEnableSystemMultiVectoredInt
                0x9d034d0c       0x34 c:/program files (x86)/microchip/mplab c32 suite/bin/../lib/gcc/pic32mx/4.5.1/../../../../pic32mx/lib/size\libmchp_peripheral_32MX795F512L.a(int_enable_mv_int_lib.o)
                0x9d034d0c                INTEnableSystemMultiVectoredInt

.rodata         0x9d034d40       0x30
 .rodata        0x9d034d40       0x30 Objects - TCPIP PIC32 ETH Demo App-C32\TCP.o
                0x9d034d40                TCPSocketInitializer

.text.EthTxAcknowledgeBuffer
                0x9d034d70       0x30
 .text.EthTxAcknowledgeBuffer
                0x9d034d70       0x30 c:/program files (x86)/microchip/mplab c32 suite/bin/../lib/gcc/pic32mx/4.5.1/../../../../pic32mx/lib/size\libmchp_peripheral_32MX795F512L.a(eth_ack_packet_lib.o)
                0x9d034d70                EthTxAcknowledgeBuffer

.text.EthTxAckBuffer
                0x9d034da0       0x30
 .text.EthTxAckBuffer
                0x9d034da0       0x30 c:/program files (x86)/microchip/mplab c32 suite/bin/../lib/gcc/pic32mx/4.5.1/../../../../pic32mx/lib/size\libmchp_peripheral_32MX795F512L.a(eth_ack_packet_lib.o)
                0x9d034da0                EthTxAckBuffer

.text.EthRxSetBufferSize
                0x9d034dd0       0x30
 .text.EthRxSetBufferSize
                0x9d034dd0       0x30 c:/program files (x86)/microchip/mplab c32 suite/bin/../lib/gcc/pic32mx/4.5.1/../../../../pic32mx/lib/size\libmchp_peripheral_32MX795F512L.a(eth_rx_set_buffer_size_lib.o)
                0x9d034dd0                EthRxSetBufferSize

.text.strchr    0x9d034e00       0x2c
 .text.strchr   0x9d034e00       0x2c c:/program files (x86)/microchip/mplab c32 suite/bin/../lib/gcc/pic32mx/4.5.1/../../../../pic32mx/lib/size\libc.a(strchr.o)
                0x9d034e00                strchr

.text._stub_sbd_memlayout
                0x9d034e2c       0x2c
 .text._stub_sbd_memlayout
                0x9d034e2c       0x2c c:/program files (x86)/microchip/mplab c32 suite/bin/../lib/gcc/pic32mx/4.5.1/../../../../pic32mx/lib/size\libc.a(sbrk.o)
                0x9d034e2c                _stub_sbd_memlayout
                0x9d034e2c                _sbd_memlayout

.text.EthMIIMReadResult
                0x9d034e58       0x2c
 .text.EthMIIMReadResult
                0x9d034e58       0x2c c:/program files (x86)/microchip/mplab c32 suite/bin/../lib/gcc/pic32mx/4.5.1/../../../../pic32mx/lib/size\libmchp_peripheral_32MX795F512L.a(eth_miim_access.o)
                0x9d034e58                EthMIIMReadResult

.text.INTGetVectorPriority
                0x9d034e84       0x2c
 .text.INTGetVectorPriority
                0x9d034e84       0x2c c:/program files (x86)/microchip/mplab c32 suite/bin/../lib/gcc/pic32mx/4.5.1/../../../../pic32mx/lib/size\libmchp_peripheral_32MX795F512L.a(int_tbl_lib.o)
                0x9d034e84                INTGetVectorPriority

.text.INTGetVectorSubPriority
                0x9d034eb0       0x2c
 .text.INTGetVectorSubPriority
                0x9d034eb0       0x2c c:/program files (x86)/microchip/mplab c32 suite/bin/../lib/gcc/pic32mx/4.5.1/../../../../pic32mx/lib/size\libmchp_peripheral_32MX795F512L.a(int_tbl_lib.o)
                0x9d034eb0                INTGetVectorSubPriority

.text.INTClearFlag
                0x9d034edc       0x28
 .text.INTClearFlag
                0x9d034edc       0x28 c:/program files (x86)/microchip/mplab c32 suite/bin/../lib/gcc/pic32mx/4.5.1/../../../../pic32mx/lib/size\libmchp_peripheral_32MX795F512L.a(int_tbl_lib.o)
                0x9d034edc                INTClearFlag

.text.INTSetFlag
                0x9d034f04       0x28
 .text.INTSetFlag
                0x9d034f04       0x28 c:/program files (x86)/microchip/mplab c32 suite/bin/../lib/gcc/pic32mx/4.5.1/../../../../pic32mx/lib/size\libmchp_peripheral_32MX795F512L.a(int_tbl_lib.o)
                0x9d034f04                INTSetFlag

.text.INTGetFlag
                0x9d034f2c       0x28
 .text.INTGetFlag
                0x9d034f2c       0x28 c:/program files (x86)/microchip/mplab c32 suite/bin/../lib/gcc/pic32mx/4.5.1/../../../../pic32mx/lib/size\libmchp_peripheral_32MX795F512L.a(int_tbl_lib.o)
                0x9d034f2c                INTGetFlag

.text.INTGetEnable
                0x9d034f54       0x28
 .text.INTGetEnable
                0x9d034f54       0x28 c:/program files (x86)/microchip/mplab c32 suite/bin/../lib/gcc/pic32mx/4.5.1/../../../../pic32mx/lib/size\libmchp_peripheral_32MX795F512L.a(int_tbl_lib.o)
                0x9d034f54                INTGetEnable

.text.UARTSetFifoMode
                0x9d034f7c       0x28
 .text.UARTSetFifoMode
                0x9d034f7c       0x28 c:/program files (x86)/microchip/mplab c32 suite/bin/../lib/gcc/pic32mx/4.5.1/../../../../pic32mx/lib/size\libmchp_peripheral_32MX795F512L.a(uart_lib.o)
                0x9d034f7c                UARTSetFifoMode

.text.UARTSetLineControl
                0x9d034fa4       0x28
 .text.UARTSetLineControl
                0x9d034fa4       0x28 c:/program files (x86)/microchip/mplab c32 suite/bin/../lib/gcc/pic32mx/4.5.1/../../../../pic32mx/lib/size\libmchp_peripheral_32MX795F512L.a(uart_lib.o)
                0x9d034fa4                UARTSetLineControl

.text.free      0x9d034fcc       0x24
 .text.free     0x9d034fcc       0x24 c:/program files (x86)/microchip/mplab c32 suite/bin/../lib/gcc/pic32mx/4.5.1/../../../../pic32mx/lib/size\libc.a(malloc.o)
                0x9d034fcc                free

.text.EthMIIMScanResult
                0x9d034ff0       0x24
 .text.EthMIIMScanResult
                0x9d034ff0       0x24 c:/program files (x86)/microchip/mplab c32 suite/bin/../lib/gcc/pic32mx/4.5.1/../../../../pic32mx/lib/size\libmchp_peripheral_32MX795F512L.a(eth_miim_access.o)
                0x9d034ff0                EthMIIMScanResult

.rodata         0x9d035014       0x1c
 .rodata        0x9d035014       0x1c Objects - TCPIP PIC32 ETH Demo App-C32\Announce.o

.text.EthRxAcknowledgeBuffer
                0x9d035030       0x1c
 .text.EthRxAcknowledgeBuffer
                0x9d035030       0x1c c:/program files (x86)/microchip/mplab c32 suite/bin/../lib/gcc/pic32mx/4.5.1/../../../../pic32mx/lib/size\libmchp_peripheral_32MX795F512L.a(eth_ack_packet_lib.o)
                0x9d035030                EthRxAcknowledgeBuffer

.text.EthRxAckBuffer
                0x9d03504c       0x1c
 .text.EthRxAckBuffer
                0x9d03504c       0x1c c:/program files (x86)/microchip/mplab c32 suite/bin/../lib/gcc/pic32mx/4.5.1/../../../../pic32mx/lib/size\libmchp_peripheral_32MX795F512L.a(eth_ack_packet_lib.o)
                0x9d03504c                EthRxAckBuffer

.text.INTRestoreInterrupts
                0x9d035068       0x1c
 .text.INTRestoreInterrupts
                0x9d035068       0x1c c:/program files (x86)/microchip/mplab c32 suite/bin/../lib/gcc/pic32mx/4.5.1/../../../../pic32mx/lib/size\libmchp_peripheral_32MX795F512L.a(int_restore_interrupts_lib.o)
                0x9d035068                INTRestoreInterrupts

.text           0x9d035084       0x18
 .text          0x9d035084       0x18 c:/program files (x86)/microchip/mplab c32 suite/bin/../lib/gcc/pic32mx/4.5.1/../../../../pic32mx/lib/size\libc.a(default-nmi-handler.o)
                0x9d035084                _nmi_handler

.text.EthRxFiltersHTSet
                0x9d03509c       0x18
 .text.EthRxFiltersHTSet
                0x9d03509c       0x18 c:/program files (x86)/microchip/mplab c32 suite/bin/../lib/gcc/pic32mx/4.5.1/../../../../pic32mx/lib/size\libmchp_peripheral_32MX795F512L.a(eth_rx_filters_lib.o)
                0x9d03509c                EthRxFiltersHTSet

.text.CheKseg0CacheOff
                0x9d0350b4       0x18
 .text.CheKseg0CacheOff
                0x9d0350b4       0x18 c:/program files (x86)/microchip/mplab c32 suite/bin/../lib/gcc/pic32mx/4.5.1/../../../../pic32mx/lib/size\libmchp_peripheral_32MX795F512L.a(pcache.o)
                0x9d0350b4                CheKseg0CacheOff

.text.CheKseg0CacheOn
                0x9d0350cc       0x18
 .text.CheKseg0CacheOn
                0x9d0350cc       0x18 c:/program files (x86)/microchip/mplab c32 suite/bin/../lib/gcc/pic32mx/4.5.1/../../../../pic32mx/lib/size\libmchp_peripheral_32MX795F512L.a(pcache.o)
                0x9d0350cc                CheKseg0CacheOn

.rodata         0x9d0350e4       0x2c
 .rodata        0x9d0350e4       0x18 c:/program files (x86)/microchip/mplab c32 suite/bin/../lib/gcc/pic32mx/4.5.1/../../../../pic32mx/lib/size\libmchp_peripheral_32MX795F512L.a(uart_lib.o)
                0x9d0350e4                uartReg
 .rodata        0x9d0350fc       0x14 Objects - TCPIP PIC32 ETH Demo App-C32\PingDemo.o

.text.EthMACSetMaxFrame
                0x9d035110       0x14
 .text.EthMACSetMaxFrame
                0x9d035110       0x14 c:/program files (x86)/microchip/mplab c32 suite/bin/../lib/gcc/pic32mx/4.5.1/../../../../pic32mx/lib/size\libmchp_peripheral_32MX795F512L.a(eth_mac_set_address_max_lib.o)
                0x9d035110                EthMACSetMaxFrame

.text.EthRxFiltersPMClr
                0x9d035124       0x14
 .text.EthRxFiltersPMClr
                0x9d035124       0x14 c:/program files (x86)/microchip/mplab c32 suite/bin/../lib/gcc/pic32mx/4.5.1/../../../../pic32mx/lib/size\libmchp_peripheral_32MX795F512L.a(eth_rx_filters_lib.o)
                0x9d035124                EthRxFiltersPMClr

.text           0x9d035138       0x10
 .text          0x9d035138       0x10 c:/program files (x86)/microchip/mplab c32 suite/bin/../lib/gcc/pic32mx/4.5.1/../../../../pic32mx/lib/size/crt0.o
                0x9d035140                __crt0_exit

.rodata         0x9d035148       0x20
 .rodata        0x9d035148       0x10 Objects - TCPIP PIC32 ETH Demo App-C32\SNTP.o
 .rodata        0x9d035158       0x10 Objects - TCPIP PIC32 ETH Demo App-C32\BerkeleyUDPClientDemo.o

.text.EthRxFiltersSet
                0x9d035168       0x10
 .text.EthRxFiltersSet
                0x9d035168       0x10 c:/program files (x86)/microchip/mplab c32 suite/bin/../lib/gcc/pic32mx/4.5.1/../../../../pic32mx/lib/size\libmchp_peripheral_32MX795F512L.a(eth_rx_filters_lib.o)
                0x9d035168                EthRxFiltersSet

.text.EthRxFiltersClr
                0x9d035178       0x10
 .text.EthRxFiltersClr
                0x9d035178       0x10 c:/program files (x86)/microchip/mplab c32 suite/bin/../lib/gcc/pic32mx/4.5.1/../../../../pic32mx/lib/size\libmchp_peripheral_32MX795F512L.a(eth_rx_filters_lib.o)
                0x9d035178                EthRxFiltersClr

.text.EthRxFiltersWrite
                0x9d035188       0x10
 .text.EthRxFiltersWrite
                0x9d035188       0x10 c:/program files (x86)/microchip/mplab c32 suite/bin/../lib/gcc/pic32mx/4.5.1/../../../../pic32mx/lib/size\libmchp_peripheral_32MX795F512L.a(eth_rx_filters_lib.o)
                0x9d035188                EthRxFiltersWrite

.rodata         0x9d035198       0x10
 .rodata        0x9d035198       0x10 c:/program files (x86)/microchip/mplab c32 suite/bin/../lib/gcc/pic32mx/4.5.1/../../../../pic32mx/lib/size\libmchp_peripheral_32MX795F512L.a(eth_miim_access.o)

.text._bootstrap_exception_handler
                0x9d0351a8        0xc
 .text._bootstrap_exception_handler
                0x9d0351a8        0xc c:/program files (x86)/microchip/mplab c32 suite/bin/../lib/gcc/pic32mx/4.5.1/../../../../pic32mx/lib/size\libc.a(default-bootstrap-exception-handler.o)
                0x9d0351a8                _bootstrap_exception_handler

.rodata         0x9d0351b4       0x10
 .rodata        0x9d0351b4        0x8 Objects - TCPIP PIC32 ETH Demo App-C32\MPFS2.o
 .rodata        0x9d0351bc        0x8 Objects - TCPIP PIC32 ETH Demo App-C32\ETHPIC32IntMac.o

.text.getpagesize
                0x9d0351c4        0x8
 .text.getpagesize
                0x9d0351c4        0x8 c:/program files (x86)/microchip/mplab c32 suite/bin/../lib/gcc/pic32mx/4.5.1/../../../../pic32mx/lib/size\libc.a(sbrk.o)
                0x9d0351c4                getpagesize

.text._on_reset
                0x9d0351cc        0x8
 .text._on_reset
                0x9d0351cc        0x8 c:/program files (x86)/microchip/mplab c32 suite/bin/../lib/gcc/pic32mx/4.5.1/../../../../pic32mx/lib/size\libc.a(default-on-reset.o)
                0x9d0351cc                _on_reset

.text._on_bootstrap
                0x9d0351d4        0x8
 .text._on_bootstrap
                0x9d0351d4        0x8 c:/program files (x86)/microchip/mplab c32 suite/bin/../lib/gcc/pic32mx/4.5.1/../../../../pic32mx/lib/size\libc.a(default-on-bootstrap.o)
                0x9d0351d4                _on_bootstrap

.text.ReadCoreTimer
                0x9d0351dc        0x8
 .text.ReadCoreTimer
                0x9d0351dc        0x8 c:/program files (x86)/microchip/mplab c32 suite/bin/../lib/gcc/pic32mx/4.5.1/../../../../pic32mx/lib/size\libmchp_peripheral.a(read_core_timer_lib.o)
                0x9d0351dc                ReadCoreTimer

.text.INTDisableInterrupts
                0x9d0351e4        0x8
 .text.INTDisableInterrupts
                0x9d0351e4        0x8 c:/program files (x86)/microchip/mplab c32 suite/bin/../lib/gcc/pic32mx/4.5.1/../../../../pic32mx/lib/size\libmchp_peripheral_32MX795F512L.a(int_disable_interrupts_lib.o)
                0x9d0351e4                INTDisableInterrupts

.text.INTEnableInterrupts
                0x9d0351ec        0x8
 .text.INTEnableInterrupts
                0x9d0351ec        0x8 c:/program files (x86)/microchip/mplab c32 suite/bin/../lib/gcc/pic32mx/4.5.1/../../../../pic32mx/lib/size\libmchp_peripheral_32MX795F512L.a(int_enable_interrupts_lib.o)
                0x9d0351ec                INTEnableInterrupts

.text%z304      0x00000000        0x0
 .text          0x00000000        0x0 c:/program files (x86)/microchip/mplab c32 suite/bin/../lib/gcc/pic32mx/4.5.1/../../../../pic32mx/lib/./proc/32MX795F512L\processor.o

.text%z305      0x00000000        0x0
 .text          0x00000000        0x0 c:/program files (x86)/microchip/mplab c32 suite/bin/../lib/gcc/pic32mx/4.5.1/../../../../pic32mx/lib/size\libmchp_peripheral_32MX795F512L.a(int_enable_interrupts_lib.o)

.text%z306      0x00000000        0x0
 .text          0x00000000        0x0 c:/program files (x86)/microchip/mplab c32 suite/bin/../lib/gcc/pic32mx/4.5.1/../../../../pic32mx/lib/size\libmchp_peripheral_32MX795F512L.a(uart_lib.o)

.text%z307      0x00000000        0x0
 .text          0x00000000        0x0 c:/program files (x86)/microchip/mplab c32 suite/bin/../lib/gcc/pic32mx/4.5.1/../../../../pic32mx/lib/size\libmchp_peripheral_32MX795F512L.a(_ports_tbl_libp.o)

.text%z308      0x00000000        0x0
 .text          0x00000000        0x0 c:/program files (x86)/microchip/mplab c32 suite/bin/../lib/gcc/pic32mx/4.5.1/../../../../pic32mx/lib/size\libmchp_peripheral_32MX795F512L.a(port_set_pins_digital_out_lib.o)

.text%z309      0x00000000        0x0
 .text          0x00000000        0x0 c:/program files (x86)/microchip/mplab c32 suite/bin/../lib/gcc/pic32mx/4.5.1/../../../../pic32mx/lib/size\libmchp_peripheral_32MX795F512L.a(port_set_pins_digital_in_lib.o)

.text%z310      0x00000000        0x0
 .text          0x00000000        0x0 c:/program files (x86)/microchip/mplab c32 suite/bin/../lib/gcc/pic32mx/4.5.1/../../../../pic32mx/lib/size\libmchp_peripheral_32MX795F512L.a(int_tbl_lib.o)

.text%z311      0x00000000        0x0
 .text          0x00000000        0x0 c:/program files (x86)/microchip/mplab c32 suite/bin/../lib/gcc/pic32mx/4.5.1/../../../../pic32mx/lib/size\libmchp_peripheral_32MX795F512L.a(int_enable_mv_int_lib.o)

.text%z312      0x00000000        0x0
 .text          0x00000000        0x0 c:/program files (x86)/microchip/mplab c32 suite/bin/../lib/gcc/pic32mx/4.5.1/../../../../pic32mx/lib/size\libmchp_peripheral_32MX795F512L.a(int_restore_interrupts_lib.o)

.text%z313      0x00000000        0x0
 .text          0x00000000        0x0 c:/program files (x86)/microchip/mplab c32 suite/bin/../lib/gcc/pic32mx/4.5.1/../../../../pic32mx/lib/size\libmchp_peripheral_32MX795F512L.a(int_disable_interrupts_lib.o)

.text%z314      0x00000000        0x0
 .text          0x00000000        0x0 c:/program files (x86)/microchip/mplab c32 suite/bin/../lib/gcc/pic32mx/4.5.1/../../../../pic32mx/lib/size\libmchp_peripheral_32MX795F512L.a(pcache.o)

.text%z315      0x00000000        0x0
 .text          0x00000000        0x0 c:/program files (x86)/microchip/mplab c32 suite/bin/../lib/gcc/pic32mx/4.5.1/../../../../pic32mx/lib/size\libmchp_peripheral_32MX795F512L.a(soft_reset_lib.o)

.text%z316      0x00000000        0x0
 .text          0x00000000        0x0 c:/program files (x86)/microchip/mplab c32 suite/bin/../lib/gcc/pic32mx/4.5.1/../../../../pic32mx/lib/size\libmchp_peripheral_32MX795F512L.a(eth_miim_access.o)

.text%z317      0x00000000        0x0
 .text          0x00000000        0x0 c:/program files (x86)/microchip/mplab c32 suite/bin/../lib/gcc/pic32mx/4.5.1/../../../../pic32mx/lib/size\libmchp_peripheral_32MX795F512L.a(_eth_append_busy_list_lib.o)

.text%z318      0x00000000        0x0
 .text          0x00000000        0x0 c:/program files (x86)/microchip/mplab c32 suite/bin/../lib/gcc/pic32mx/4.5.1/../../../../pic32mx/lib/size\libmchp_peripheral_32MX795F512L.a(eth_tx_packet_lib.o)

.text%z319      0x00000000        0x0
 .text          0x00000000        0x0 c:/program files (x86)/microchip/mplab c32 suite/bin/../lib/gcc/pic32mx/4.5.1/../../../../pic32mx/lib/size\libmchp_peripheral_32MX795F512L.a(eth_rx_set_buffer_size_lib.o)

.text%z320      0x00000000        0x0
 .text          0x00000000        0x0 c:/program files (x86)/microchip/mplab c32 suite/bin/../lib/gcc/pic32mx/4.5.1/../../../../pic32mx/lib/size\libmchp_peripheral_32MX795F512L.a(eth_rx_get_packet_lib.o)

.text%z321      0x00000000        0x0
 .text          0x00000000        0x0 c:/program files (x86)/microchip/mplab c32 suite/bin/../lib/gcc/pic32mx/4.5.1/../../../../pic32mx/lib/size\libmchp_peripheral_32MX795F512L.a(eth_rx_filters_lib.o)

.text%z322      0x00000000        0x0
 .text          0x00000000        0x0 c:/program files (x86)/microchip/mplab c32 suite/bin/../lib/gcc/pic32mx/4.5.1/../../../../pic32mx/lib/size\libmchp_peripheral_32MX795F512L.a(eth_rx_buffers_append_lib.o)

.text%z323      0x00000000        0x0
 .text          0x00000000        0x0 c:/program files (x86)/microchip/mplab c32 suite/bin/../lib/gcc/pic32mx/4.5.1/../../../../pic32mx/lib/size\libmchp_peripheral_32MX795F512L.a(eth_mac_set_address_max_lib.o)

.text%z324      0x00000000        0x0
 .text          0x00000000        0x0 c:/program files (x86)/microchip/mplab c32 suite/bin/../lib/gcc/pic32mx/4.5.1/../../../../pic32mx/lib/size\libmchp_peripheral_32MX795F512L.a(eth_mac_open_lib.o)

.text%z325      0x00000000        0x0
 .text          0x00000000        0x0 c:/program files (x86)/microchip/mplab c32 suite/bin/../lib/gcc/pic32mx/4.5.1/../../../../pic32mx/lib/size\libmchp_peripheral_32MX795F512L.a(eth_init_lib.o)

.text%z326      0x00000000        0x0
 .text          0x00000000        0x0 c:/program files (x86)/microchip/mplab c32 suite/bin/../lib/gcc/pic32mx/4.5.1/../../../../pic32mx/lib/size\libmchp_peripheral_32MX795F512L.a(eth_descriptors_add_lib.o)

.text%z327      0x00000000        0x0
 .text          0x00000000        0x0 c:/program files (x86)/microchip/mplab c32 suite/bin/../lib/gcc/pic32mx/4.5.1/../../../../pic32mx/lib/size\libmchp_peripheral_32MX795F512L.a(eth_ack_packet_lib.o)

.text%z328      0x00000000        0x0
 .text          0x00000000        0x0 c:/program files (x86)/microchip/mplab c32 suite/bin/../lib/gcc/pic32mx/4.5.1/../../../../pic32mx/lib/size\libmchp_peripheral.a(read_core_timer_lib.o)

.text%z329      0x00000000        0x0
 .text          0x00000000        0x0 c:/program files (x86)/microchip/mplab c32 suite/bin/../lib/gcc/pic32mx/4.5.1/../../../../pic32mx/lib/size\libc.a(strncmp.o)

.text%z330      0x00000000        0x0
 .text          0x00000000        0x0 c:/program files (x86)/microchip/mplab c32 suite/bin/../lib/gcc/pic32mx/4.5.1/../../../../pic32mx/lib/size\libc.a(errno.o)

.text%z331      0x00000000        0x0
 .text          0x00000000        0x0 c:/program files (x86)/microchip/mplab c32 suite/bin/../lib/gcc/pic32mx/4.5.1/../../../../pic32mx/lib/size\libc.a(default-on-bootstrap.o)

.text%z332      0x00000000        0x0
 .text          0x00000000        0x0 c:/program files (x86)/microchip/mplab c32 suite/bin/../lib/gcc/pic32mx/4.5.1/../../../../pic32mx/lib/size\libc.a(default-on-reset.o)

.text%z333      0x00000000        0x0
 .text          0x00000000        0x0 c:/program files (x86)/microchip/mplab c32 suite/bin/../lib/gcc/pic32mx/4.5.1/../../../../pic32mx/lib/size\libc.a(default-bootstrap-exception-handler.o)

.text%z334      0x00000000        0x0
 .text          0x00000000        0x0 c:/program files (x86)/microchip/mplab c32 suite/bin/../lib/gcc/pic32mx/4.5.1/../../../../pic32mx/lib/size\libc.a(sbrk.o)

.text%z335      0x00000000        0x0
 .text          0x00000000        0x0 c:/program files (x86)/microchip/mplab c32 suite/bin/../lib/gcc/pic32mx/4.5.1/../../../../pic32mx/lib/size\libc.a(strstr.o)

.text%z336      0x00000000        0x0
 .text          0x00000000        0x0 c:/program files (x86)/microchip/mplab c32 suite/bin/../lib/gcc/pic32mx/4.5.1/../../../../pic32mx/lib/size\libc.a(strncpy.o)

.text%z337      0x00000000        0x0
 .text          0x00000000        0x0 c:/program files (x86)/microchip/mplab c32 suite/bin/../lib/gcc/pic32mx/4.5.1/../../../../pic32mx/lib/size\libc.a(strchr.o)

.text%z338      0x00000000        0x0
 .text          0x00000000        0x0 c:/program files (x86)/microchip/mplab c32 suite/bin/../lib/gcc/pic32mx/4.5.1/../../../../pic32mx/lib/size\libc.a(malloc.o)

.text%z339      0x00000000        0x0
 .text          0x00000000        0x0 c:/program files (x86)/microchip/mplab c32 suite/bin/../lib/gcc/pic32mx/4.5.1/../../../../pic32mx/lib/size\libc.a(ltoa.o)

.text%z340      0x00000000        0x0
 .text          0x00000000        0x0 c:/program files (x86)/microchip/mplab c32 suite/bin/../lib/gcc/pic32mx/4.5.1/../../../../pic32mx/lib/size\libc.a(ctype.o)

.text%z341      0x00000000        0x0
 .text          0x00000000        0x0 c:/program files (x86)/microchip/mplab c32 suite/bin/../lib/gcc/pic32mx/4.5.1/../../../../pic32mx/lib/size\libc.a(calloc.o)

.text%z342      0x00000000        0x0
 .text          0x00000000        0x0 c:/program files (x86)/microchip/mplab c32 suite/bin/../lib/gcc/pic32mx/4.5.1/../../../../pic32mx/lib/size\libc.a(atol.o)

.text%z343      0x00000000        0x0
 .text          0x00000000        0x0 c:/program files (x86)/microchip/mplab c32 suite/bin/../lib/gcc/pic32mx/4.5.1/../../../../pic32mx/lib/size\libc.a(atoi.o)

.text%z344      0x00000000        0x0
 .text          0x00000000        0x0 c:/program files (x86)/microchip/mplab c32 suite/bin/../lib/gcc/pic32mx/4.5.1/../../../../pic32mx/lib/size\libc.a(general-exception.o)

.text%z345      0x00000000        0x0
 .text          0x00000000        0x0 Objects - TCPIP PIC32 ETH Demo App-C32\CustomSSLCert.o

.text%z346      0x00000000        0x0
 .text          0x00000000        0x0 Objects - TCPIP PIC32 ETH Demo App-C32\BigInt_helper_C32.o

.text%z347      0x00000000        0x0
 .text          0x00000000        0x0 Objects - TCPIP PIC32 ETH Demo App-C32\BigInt.o

.text%z348      0x00000000        0x0
 .text          0x00000000        0x0 Objects - TCPIP PIC32 ETH Demo App-C32\ARCFOUR.o

.text%z349      0x00000000        0x0
 .text          0x00000000        0x0 Objects - TCPIP PIC32 ETH Demo App-C32\SSL.o

.text%z350      0x00000000        0x0
 .text          0x00000000        0x0 Objects - TCPIP PIC32 ETH Demo App-C32\RSA.o

.text%z351      0x00000000        0x0
 .text          0x00000000        0x0 Objects - TCPIP PIC32 ETH Demo App-C32\Random.o

.text%z352      0x00000000        0x0
 .text          0x00000000        0x0 Objects - TCPIP PIC32 ETH Demo App-C32\MPFSImg2.o

.text%z353      0x00000000        0x0
 .text          0x00000000        0x0 Objects - TCPIP PIC32 ETH Demo App-C32\ENCX24J600.o

.text%z354      0x00000000        0x0
 .text          0x00000000        0x0 Objects - TCPIP PIC32 ETH Demo App-C32\LegacyHTTPApp.o

.text%z355      0x00000000        0x0
 .text          0x00000000        0x0 Objects - TCPIP PIC32 ETH Demo App-C32\CustomSNMPApp.o

.text%z356      0x00000000        0x0
 .text          0x00000000        0x0 Objects - TCPIP PIC32 ETH Demo App-C32\UART2TCPBridge.o

.text%z357      0x00000000        0x0
 .text          0x00000000        0x0 Objects - TCPIP PIC32 ETH Demo App-C32\TFTPc.o

.text%z358      0x00000000        0x0
 .text          0x00000000        0x0 Objects - TCPIP PIC32 ETH Demo App-C32\SPIRAM.o

.text%z359      0x00000000        0x0
 .text          0x00000000        0x0 Objects - TCPIP PIC32 ETH Demo App-C32\SPIFlash.o

.text%z360      0x00000000        0x0
 .text          0x00000000        0x0 Objects - TCPIP PIC32 ETH Demo App-C32\SPIEEPROM.o

.text%z361      0x00000000        0x0
 .text          0x00000000        0x0 Objects - TCPIP PIC32 ETH Demo App-C32\SNMP.o

.text%z362      0x00000000        0x0
 .text          0x00000000        0x0 Objects - TCPIP PIC32 ETH Demo App-C32\MPFS.o

.text%z363      0x00000000        0x0
 .text          0x00000000        0x0 Objects - TCPIP PIC32 ETH Demo App-C32\LCDBlocking.o

.text%z364      0x00000000        0x0
 .text          0x00000000        0x0 Objects - TCPIP PIC32 ETH Demo App-C32\HTTP.o

.text%z365      0x00000000        0x0
 .text          0x00000000        0x0 Objects - TCPIP PIC32 ETH Demo App-C32\FTP.o

.text%z366      0x00000000        0x0
 .text          0x00000000        0x0 Objects - TCPIP PIC32 ETH Demo App-C32\ENC28J60.o

.text%z367      0x00000000        0x0
 .text          0x00000000        0x0 Objects - TCPIP PIC32 ETH Demo App-C32\UDPPerformanceTest.o
