Archive member included because of file (symbol)

..\..\..\..\..\..\..\..\microchip\harmony\v1_02\bin\framework\peripheral\PIC32MX795F512L_peripherals.a(plib_eth_lib.o)
                              build/default/production/_ext/1986204992/drv_ethmac.o (PLIB_ETH_MACSetAddress)
c:/program files (x86)/microchip/xc32/v1.33/bin/bin/../../lib/gcc/pic32mx/4.5.2\libgcc.a(_udivdi3.o)
                              build/default/production/_ext/2097170832/sys_tmr.o (__udivdi3)
c:/program files (x86)/microchip/xc32/v1.33/bin/bin/../../lib/gcc/pic32mx/4.5.2/../../../../pic32mx/lib\libpic32.a(memcmp.o)
                              build/default/production/_ext/1986204992/drv_ethmac.o (memcmp)
c:/program files (x86)/microchip/xc32/v1.33/bin/bin/../../lib/gcc/pic32mx/4.5.2/../../../../pic32mx/lib\libpic32.a(memcpy.o)
                              build/default/production/_ext/1144052859/tcp.o (memcpy)
c:/program files (x86)/microchip/xc32/v1.33/bin/bin/../../lib/gcc/pic32mx/4.5.2/../../../../pic32mx/lib\libpic32.a(memset.o)
                              build/default/production/_ext/595770632/random.o (memset)
c:/program files (x86)/microchip/xc32/v1.33/bin/bin/../../lib/gcc/pic32mx/4.5.2/../../../../pic32mx/lib\libpic32.a(strcmp.o)
                              build/default/production/_ext/1144052859/dns.o (strcmp)
c:/program files (x86)/microchip/xc32/v1.33/bin/bin/../../lib/gcc/pic32mx/4.5.2/../../../../pic32mx/lib\libpic32.a(strcpy.o)
                              build/default/production/_ext/1144052859/tcpip_commands.o (strcpy)
c:/program files (x86)/microchip/xc32/v1.33/bin/bin/../../lib/gcc/pic32mx/4.5.2/../../../../pic32mx/lib\libpic32.a(strlen.o)
                              build/default/production/_ext/1144052859/tcp.o (strlen)
c:/program files (x86)/microchip/xc32/v1.33/bin/bin/../../lib/gcc/pic32mx/4.5.2/../../../../pic32mx/lib\libpic32.a(default-bootstrap-exception-handler.o)
                              c:/program files (x86)/microchip/xc32/v1.33/bin/bin/../../lib/gcc/pic32mx/4.5.2/../../../../pic32mx/lib/./proc/32MX795F512L/crt0_mips32r2.o (_bootstrap_exception_handler)
c:/program files (x86)/microchip/xc32/v1.33/bin/bin/../../lib/gcc/pic32mx/4.5.2/../../../../pic32mx/lib\libpic32.a(default-on-reset.o)
                              c:/program files (x86)/microchip/xc32/v1.33/bin/bin/../../lib/gcc/pic32mx/4.5.2/../../../../pic32mx/lib/./proc/32MX795F512L/crt0_mips32r2.o (_on_reset)
c:/program files (x86)/microchip/xc32/v1.33/bin/bin/../../lib/gcc/pic32mx/4.5.2/../../../../pic32mx/lib\libpic32.a(default-on-bootstrap.o)
                              c:/program files (x86)/microchip/xc32/v1.33/bin/bin/../../lib/gcc/pic32mx/4.5.2/../../../../pic32mx/lib/./proc/32MX795F512L/crt0_mips32r2.o (_on_bootstrap)
c:/program files (x86)/microchip/xc32/v1.33/bin/bin/../../lib/gcc/pic32mx/4.5.2/../../../../pic32mx/lib\libpic32.a(default-nmi-handler.o)
                              c:/program files (x86)/microchip/xc32/v1.33/bin/bin/../../lib/gcc/pic32mx/4.5.2/../../../../pic32mx/lib/./proc/32MX795F512L/crt0_mips32r2.o (_nmi_handler)
c:/program files (x86)/microchip/xc32/v1.33/bin/bin/../../lib/gcc/pic32mx/4.5.2/../../../../pic32mx/lib\libpic32.a(general-exception.o)
                              c:/program files (x86)/microchip/xc32/v1.33/bin/bin/../../lib/gcc/pic32mx/4.5.2/../../../../pic32mx/lib/./proc/32MX795F512L/crt0_mips32r2.o (_general_exception_context)
c:/program files (x86)/microchip/xc32/v1.33/bin/bin/../../lib/gcc/pic32mx/4.5.2/../../../../pic32mx/lib\libpic32.a(vector0.o)
                              c:/program files (x86)/microchip/xc32/v1.33/bin/bin/../../lib/gcc/pic32mx/4.5.2/../../../../pic32mx/lib/./proc/32MX795F512L\default_isr_vectors.o (__vector_dispatch_0)
c:/program files (x86)/microchip/xc32/v1.33/bin/bin/../../lib/gcc/pic32mx/4.5.2/../../../../pic32mx/lib\libpic32.a(vector1.o)
                              c:/program files (x86)/microchip/xc32/v1.33/bin/bin/../../lib/gcc/pic32mx/4.5.2/../../../../pic32mx/lib/./proc/32MX795F512L\default_isr_vectors.o (__vector_dispatch_1)
c:/program files (x86)/microchip/xc32/v1.33/bin/bin/../../lib/gcc/pic32mx/4.5.2/../../../../pic32mx/lib\libpic32.a(vector2.o)
                              c:/program files (x86)/microchip/xc32/v1.33/bin/bin/../../lib/gcc/pic32mx/4.5.2/../../../../pic32mx/lib/./proc/32MX795F512L\default_isr_vectors.o (__vector_dispatch_2)
c:/program files (x86)/microchip/xc32/v1.33/bin/bin/../../lib/gcc/pic32mx/4.5.2/../../../../pic32mx/lib\libpic32.a(vector3.o)
                              c:/program files (x86)/microchip/xc32/v1.33/bin/bin/../../lib/gcc/pic32mx/4.5.2/../../../../pic32mx/lib/./proc/32MX795F512L\default_isr_vectors.o (__vector_dispatch_3)
c:/program files (x86)/microchip/xc32/v1.33/bin/bin/../../lib/gcc/pic32mx/4.5.2/../../../../pic32mx/lib\libpic32.a(vector5.o)
                              c:/program files (x86)/microchip/xc32/v1.33/bin/bin/../../lib/gcc/pic32mx/4.5.2/../../../../pic32mx/lib/./proc/32MX795F512L\default_isr_vectors.o (__vector_dispatch_5)
c:/program files (x86)/microchip/xc32/v1.33/bin/bin/../../lib/gcc/pic32mx/4.5.2/../../../../pic32mx/lib\libpic32.a(vector6.o)
                              c:/program files (x86)/microchip/xc32/v1.33/bin/bin/../../lib/gcc/pic32mx/4.5.2/../../../../pic32mx/lib/./proc/32MX795F512L\default_isr_vectors.o (__vector_dispatch_6)
c:/program files (x86)/microchip/xc32/v1.33/bin/bin/../../lib/gcc/pic32mx/4.5.2/../../../../pic32mx/lib\libpic32.a(vector7.o)
                              c:/program files (x86)/microchip/xc32/v1.33/bin/bin/../../lib/gcc/pic32mx/4.5.2/../../../../pic32mx/lib/./proc/32MX795F512L\default_isr_vectors.o (__vector_dispatch_7)
c:/program files (x86)/microchip/xc32/v1.33/bin/bin/../../lib/gcc/pic32mx/4.5.2/../../../../pic32mx/lib\libpic32.a(vector8.o)
                              c:/program files (x86)/microchip/xc32/v1.33/bin/bin/../../lib/gcc/pic32mx/4.5.2/../../../../pic32mx/lib/./proc/32MX795F512L\default_isr_vectors.o (__vector_dispatch_8)
c:/program files (x86)/microchip/xc32/v1.33/bin/bin/../../lib/gcc/pic32mx/4.5.2/../../../../pic32mx/lib\libpic32.a(vector9.o)
                              c:/program files (x86)/microchip/xc32/v1.33/bin/bin/../../lib/gcc/pic32mx/4.5.2/../../../../pic32mx/lib/./proc/32MX795F512L\default_isr_vectors.o (__vector_dispatch_9)
c:/program files (x86)/microchip/xc32/v1.33/bin/bin/../../lib/gcc/pic32mx/4.5.2/../../../../pic32mx/lib\libpic32.a(vector10.o)
                              c:/program files (x86)/microchip/xc32/v1.33/bin/bin/../../lib/gcc/pic32mx/4.5.2/../../../../pic32mx/lib/./proc/32MX795F512L\default_isr_vectors.o (__vector_dispatch_10)
c:/program files (x86)/microchip/xc32/v1.33/bin/bin/../../lib/gcc/pic32mx/4.5.2/../../../../pic32mx/lib\libpic32.a(vector11.o)
                              c:/program files (x86)/microchip/xc32/v1.33/bin/bin/../../lib/gcc/pic32mx/4.5.2/../../../../pic32mx/lib/./proc/32MX795F512L\default_isr_vectors.o (__vector_dispatch_11)
c:/program files (x86)/microchip/xc32/v1.33/bin/bin/../../lib/gcc/pic32mx/4.5.2/../../../../pic32mx/lib\libpic32.a(vector12.o)
                              c:/program files (x86)/microchip/xc32/v1.33/bin/bin/../../lib/gcc/pic32mx/4.5.2/../../../../pic32mx/lib/./proc/32MX795F512L\default_isr_vectors.o (__vector_dispatch_12)
c:/program files (x86)/microchip/xc32/v1.33/bin/bin/../../lib/gcc/pic32mx/4.5.2/../../../../pic32mx/lib\libpic32.a(vector13.o)
                              c:/program files (x86)/microchip/xc32/v1.33/bin/bin/../../lib/gcc/pic32mx/4.5.2/../../../../pic32mx/lib/./proc/32MX795F512L\default_isr_vectors.o (__vector_dispatch_13)
c:/program files (x86)/microchip/xc32/v1.33/bin/bin/../../lib/gcc/pic32mx/4.5.2/../../../../pic32mx/lib\libpic32.a(vector14.o)
                              c:/program files (x86)/microchip/xc32/v1.33/bin/bin/../../lib/gcc/pic32mx/4.5.2/../../../../pic32mx/lib/./proc/32MX795F512L\default_isr_vectors.o (__vector_dispatch_14)
c:/program files (x86)/microchip/xc32/v1.33/bin/bin/../../lib/gcc/pic32mx/4.5.2/../../../../pic32mx/lib\libpic32.a(vector15.o)
                              c:/program files (x86)/microchip/xc32/v1.33/bin/bin/../../lib/gcc/pic32mx/4.5.2/../../../../pic32mx/lib/./proc/32MX795F512L\default_isr_vectors.o (__vector_dispatch_15)
c:/program files (x86)/microchip/xc32/v1.33/bin/bin/../../lib/gcc/pic32mx/4.5.2/../../../../pic32mx/lib\libpic32.a(vector16.o)
                              c:/program files (x86)/microchip/xc32/v1.33/bin/bin/../../lib/gcc/pic32mx/4.5.2/../../../../pic32mx/lib/./proc/32MX795F512L\default_isr_vectors.o (__vector_dispatch_16)
c:/program files (x86)/microchip/xc32/v1.33/bin/bin/../../lib/gcc/pic32mx/4.5.2/../../../../pic32mx/lib\libpic32.a(vector17.o)
                              c:/program files (x86)/microchip/xc32/v1.33/bin/bin/../../lib/gcc/pic32mx/4.5.2/../../../../pic32mx/lib/./proc/32MX795F512L\default_isr_vectors.o (__vector_dispatch_17)
c:/program files (x86)/microchip/xc32/v1.33/bin/bin/../../lib/gcc/pic32mx/4.5.2/../../../../pic32mx/lib\libpic32.a(vector18.o)
                              c:/program files (x86)/microchip/xc32/v1.33/bin/bin/../../lib/gcc/pic32mx/4.5.2/../../../../pic32mx/lib/./proc/32MX795F512L\default_isr_vectors.o (__vector_dispatch_18)
c:/program files (x86)/microchip/xc32/v1.33/bin/bin/../../lib/gcc/pic32mx/4.5.2/../../../../pic32mx/lib\libpic32.a(vector19.o)
                              c:/program files (x86)/microchip/xc32/v1.33/bin/bin/../../lib/gcc/pic32mx/4.5.2/../../../../pic32mx/lib/./proc/32MX795F512L\default_isr_vectors.o (__vector_dispatch_19)
c:/program files (x86)/microchip/xc32/v1.33/bin/bin/../../lib/gcc/pic32mx/4.5.2/../../../../pic32mx/lib\libpic32.a(vector20.o)
                              c:/program files (x86)/microchip/xc32/v1.33/bin/bin/../../lib/gcc/pic32mx/4.5.2/../../../../pic32mx/lib/./proc/32MX795F512L\default_isr_vectors.o (__vector_dispatch_20)
c:/program files (x86)/microchip/xc32/v1.33/bin/bin/../../lib/gcc/pic32mx/4.5.2/../../../../pic32mx/lib\libpic32.a(vector21.o)
                              c:/program files (x86)/microchip/xc32/v1.33/bin/bin/../../lib/gcc/pic32mx/4.5.2/../../../../pic32mx/lib/./proc/32MX795F512L\default_isr_vectors.o (__vector_dispatch_21)
c:/program files (x86)/microchip/xc32/v1.33/bin/bin/../../lib/gcc/pic32mx/4.5.2/../../../../pic32mx/lib\libpic32.a(vector22.o)
                              c:/program files (x86)/microchip/xc32/v1.33/bin/bin/../../lib/gcc/pic32mx/4.5.2/../../../../pic32mx/lib/./proc/32MX795F512L\default_isr_vectors.o (__vector_dispatch_22)
c:/program files (x86)/microchip/xc32/v1.33/bin/bin/../../lib/gcc/pic32mx/4.5.2/../../../../pic32mx/lib\libpic32.a(vector23.o)
                              c:/program files (x86)/microchip/xc32/v1.33/bin/bin/../../lib/gcc/pic32mx/4.5.2/../../../../pic32mx/lib/./proc/32MX795F512L\default_isr_vectors.o (__vector_dispatch_23)
c:/program files (x86)/microchip/xc32/v1.33/bin/bin/../../lib/gcc/pic32mx/4.5.2/../../../../pic32mx/lib\libpic32.a(vector24.o)
                              c:/program files (x86)/microchip/xc32/v1.33/bin/bin/../../lib/gcc/pic32mx/4.5.2/../../../../pic32mx/lib/./proc/32MX795F512L\default_isr_vectors.o (__vector_dispatch_24)
c:/program files (x86)/microchip/xc32/v1.33/bin/bin/../../lib/gcc/pic32mx/4.5.2/../../../../pic32mx/lib\libpic32.a(vector25.o)
                              c:/program files (x86)/microchip/xc32/v1.33/bin/bin/../../lib/gcc/pic32mx/4.5.2/../../../../pic32mx/lib/./proc/32MX795F512L\default_isr_vectors.o (__vector_dispatch_25)
c:/program files (x86)/microchip/xc32/v1.33/bin/bin/../../lib/gcc/pic32mx/4.5.2/../../../../pic32mx/lib\libpic32.a(vector26.o)
                              c:/program files (x86)/microchip/xc32/v1.33/bin/bin/../../lib/gcc/pic32mx/4.5.2/../../../../pic32mx/lib/./proc/32MX795F512L\default_isr_vectors.o (__vector_dispatch_26)
c:/program files (x86)/microchip/xc32/v1.33/bin/bin/../../lib/gcc/pic32mx/4.5.2/../../../../pic32mx/lib\libpic32.a(vector27.o)
                              c:/program files (x86)/microchip/xc32/v1.33/bin/bin/../../lib/gcc/pic32mx/4.5.2/../../../../pic32mx/lib/./proc/32MX795F512L\default_isr_vectors.o (__vector_dispatch_27)
c:/program files (x86)/microchip/xc32/v1.33/bin/bin/../../lib/gcc/pic32mx/4.5.2/../../../../pic32mx/lib\libpic32.a(vector28.o)
                              c:/program files (x86)/microchip/xc32/v1.33/bin/bin/../../lib/gcc/pic32mx/4.5.2/../../../../pic32mx/lib/./proc/32MX795F512L\default_isr_vectors.o (__vector_dispatch_28)
c:/program files (x86)/microchip/xc32/v1.33/bin/bin/../../lib/gcc/pic32mx/4.5.2/../../../../pic32mx/lib\libpic32.a(vector29.o)
                              c:/program files (x86)/microchip/xc32/v1.33/bin/bin/../../lib/gcc/pic32mx/4.5.2/../../../../pic32mx/lib/./proc/32MX795F512L\default_isr_vectors.o (__vector_dispatch_29)
c:/program files (x86)/microchip/xc32/v1.33/bin/bin/../../lib/gcc/pic32mx/4.5.2/../../../../pic32mx/lib\libpic32.a(vector30.o)
                              c:/program files (x86)/microchip/xc32/v1.33/bin/bin/../../lib/gcc/pic32mx/4.5.2/../../../../pic32mx/lib/./proc/32MX795F512L\default_isr_vectors.o (__vector_dispatch_30)
c:/program files (x86)/microchip/xc32/v1.33/bin/bin/../../lib/gcc/pic32mx/4.5.2/../../../../pic32mx/lib\libpic32.a(vector31.o)
                              c:/program files (x86)/microchip/xc32/v1.33/bin/bin/../../lib/gcc/pic32mx/4.5.2/../../../../pic32mx/lib/./proc/32MX795F512L\default_isr_vectors.o (__vector_dispatch_31)
c:/program files (x86)/microchip/xc32/v1.33/bin/bin/../../lib/gcc/pic32mx/4.5.2/../../../../pic32mx/lib\libpic32.a(vector32.o)
                              c:/program files (x86)/microchip/xc32/v1.33/bin/bin/../../lib/gcc/pic32mx/4.5.2/../../../../pic32mx/lib/./proc/32MX795F512L\default_isr_vectors.o (__vector_dispatch_32)
c:/program files (x86)/microchip/xc32/v1.33/bin/bin/../../lib/gcc/pic32mx/4.5.2/../../../../pic32mx/lib\libpic32.a(vector33.o)
                              c:/program files (x86)/microchip/xc32/v1.33/bin/bin/../../lib/gcc/pic32mx/4.5.2/../../../../pic32mx/lib/./proc/32MX795F512L\default_isr_vectors.o (__vector_dispatch_33)
c:/program files (x86)/microchip/xc32/v1.33/bin/bin/../../lib/gcc/pic32mx/4.5.2/../../../../pic32mx/lib\libpic32.a(vector34.o)
                              c:/program files (x86)/microchip/xc32/v1.33/bin/bin/../../lib/gcc/pic32mx/4.5.2/../../../../pic32mx/lib/./proc/32MX795F512L\default_isr_vectors.o (__vector_dispatch_34)
c:/program files (x86)/microchip/xc32/v1.33/bin/bin/../../lib/gcc/pic32mx/4.5.2/../../../../pic32mx/lib\libpic32.a(vector35.o)
                              c:/program files (x86)/microchip/xc32/v1.33/bin/bin/../../lib/gcc/pic32mx/4.5.2/../../../../pic32mx/lib/./proc/32MX795F512L\default_isr_vectors.o (__vector_dispatch_35)
c:/program files (x86)/microchip/xc32/v1.33/bin/bin/../../lib/gcc/pic32mx/4.5.2/../../../../pic32mx/lib\libpic32.a(vector36.o)
                              c:/program files (x86)/microchip/xc32/v1.33/bin/bin/../../lib/gcc/pic32mx/4.5.2/../../../../pic32mx/lib/./proc/32MX795F512L\default_isr_vectors.o (__vector_dispatch_36)
c:/program files (x86)/microchip/xc32/v1.33/bin/bin/../../lib/gcc/pic32mx/4.5.2/../../../../pic32mx/lib\libpic32.a(vector37.o)
                              c:/program files (x86)/microchip/xc32/v1.33/bin/bin/../../lib/gcc/pic32mx/4.5.2/../../../../pic32mx/lib/./proc/32MX795F512L\default_isr_vectors.o (__vector_dispatch_37)
c:/program files (x86)/microchip/xc32/v1.33/bin/bin/../../lib/gcc/pic32mx/4.5.2/../../../../pic32mx/lib\libpic32.a(vector38.o)
                              c:/program files (x86)/microchip/xc32/v1.33/bin/bin/../../lib/gcc/pic32mx/4.5.2/../../../../pic32mx/lib/./proc/32MX795F512L\default_isr_vectors.o (__vector_dispatch_38)
c:/program files (x86)/microchip/xc32/v1.33/bin/bin/../../lib/gcc/pic32mx/4.5.2/../../../../pic32mx/lib\libpic32.a(vector39.o)
                              c:/program files (x86)/microchip/xc32/v1.33/bin/bin/../../lib/gcc/pic32mx/4.5.2/../../../../pic32mx/lib/./proc/32MX795F512L\default_isr_vectors.o (__vector_dispatch_39)
c:/program files (x86)/microchip/xc32/v1.33/bin/bin/../../lib/gcc/pic32mx/4.5.2/../../../../pic32mx/lib\libpic32.a(vector40.o)
                              c:/program files (x86)/microchip/xc32/v1.33/bin/bin/../../lib/gcc/pic32mx/4.5.2/../../../../pic32mx/lib/./proc/32MX795F512L\default_isr_vectors.o (__vector_dispatch_40)
c:/program files (x86)/microchip/xc32/v1.33/bin/bin/../../lib/gcc/pic32mx/4.5.2/../../../../pic32mx/lib\libpic32.a(vector41.o)
                              c:/program files (x86)/microchip/xc32/v1.33/bin/bin/../../lib/gcc/pic32mx/4.5.2/../../../../pic32mx/lib/./proc/32MX795F512L\default_isr_vectors.o (__vector_dispatch_41)
c:/program files (x86)/microchip/xc32/v1.33/bin/bin/../../lib/gcc/pic32mx/4.5.2/../../../../pic32mx/lib\libpic32.a(vector42.o)
                              c:/program files (x86)/microchip/xc32/v1.33/bin/bin/../../lib/gcc/pic32mx/4.5.2/../../../../pic32mx/lib/./proc/32MX795F512L\default_isr_vectors.o (__vector_dispatch_42)
c:/program files (x86)/microchip/xc32/v1.33/bin/bin/../../lib/gcc/pic32mx/4.5.2/../../../../pic32mx/lib\libpic32.a(vector43.o)
                              c:/program files (x86)/microchip/xc32/v1.33/bin/bin/../../lib/gcc/pic32mx/4.5.2/../../../../pic32mx/lib/./proc/32MX795F512L\default_isr_vectors.o (__vector_dispatch_43)
c:/program files (x86)/microchip/xc32/v1.33/bin/bin/../../lib/gcc/pic32mx/4.5.2/../../../../pic32mx/lib\libpic32.a(vector44.o)
                              c:/program files (x86)/microchip/xc32/v1.33/bin/bin/../../lib/gcc/pic32mx/4.5.2/../../../../pic32mx/lib/./proc/32MX795F512L\default_isr_vectors.o (__vector_dispatch_44)
c:/program files (x86)/microchip/xc32/v1.33/bin/bin/../../lib/gcc/pic32mx/4.5.2/../../../../pic32mx/lib\libpic32.a(vector45.o)
                              c:/program files (x86)/microchip/xc32/v1.33/bin/bin/../../lib/gcc/pic32mx/4.5.2/../../../../pic32mx/lib/./proc/32MX795F512L\default_isr_vectors.o (__vector_dispatch_45)
c:/program files (x86)/microchip/xc32/v1.33/bin/bin/../../lib/gcc/pic32mx/4.5.2/../../../../pic32mx/lib\libpic32.a(vector46.o)
                              c:/program files (x86)/microchip/xc32/v1.33/bin/bin/../../lib/gcc/pic32mx/4.5.2/../../../../pic32mx/lib/./proc/32MX795F512L\default_isr_vectors.o (__vector_dispatch_46)
c:/program files (x86)/microchip/xc32/v1.33/bin/bin/../../lib/gcc/pic32mx/4.5.2/../../../../pic32mx/lib\libpic32.a(vector47.o)
                              c:/program files (x86)/microchip/xc32/v1.33/bin/bin/../../lib/gcc/pic32mx/4.5.2/../../../../pic32mx/lib/./proc/32MX795F512L\default_isr_vectors.o (__vector_dispatch_47)
c:/program files (x86)/microchip/xc32/v1.33/bin/bin/../../lib/gcc/pic32mx/4.5.2/../../../../pic32mx/lib\libpic32.a(vector49.o)
                              c:/program files (x86)/microchip/xc32/v1.33/bin/bin/../../lib/gcc/pic32mx/4.5.2/../../../../pic32mx/lib/./proc/32MX795F512L\default_isr_vectors.o (__vector_dispatch_49)
c:/program files (x86)/microchip/xc32/v1.33/bin/bin/../../lib/gcc/pic32mx/4.5.2/../../../../pic32mx/lib\libpic32.a(vector50.o)
                              c:/program files (x86)/microchip/xc32/v1.33/bin/bin/../../lib/gcc/pic32mx/4.5.2/../../../../pic32mx/lib/./proc/32MX795F512L\default_isr_vectors.o (__vector_dispatch_50)
c:/program files (x86)/microchip/xc32/v1.33/bin/bin/../../lib/gcc/pic32mx/4.5.2/../../../../pic32mx/lib\libpic32.a(vector51.o)
                              c:/program files (x86)/microchip/xc32/v1.33/bin/bin/../../lib/gcc/pic32mx/4.5.2/../../../../pic32mx/lib/./proc/32MX795F512L\default_isr_vectors.o (__vector_dispatch_51)
c:/program files (x86)/microchip/xc32/v1.33/bin/bin/../../lib/gcc/pic32mx/4.5.2/../../../../pic32mx/lib\libpic32.a(vector52.o)
                              c:/program files (x86)/microchip/xc32/v1.33/bin/bin/../../lib/gcc/pic32mx/4.5.2/../../../../pic32mx/lib/./proc/32MX795F512L\default_isr_vectors.o (__vector_dispatch_52)
c:/program files (x86)/microchip/xc32/v1.33/bin/bin/../../lib/gcc/pic32mx/4.5.2/../../../../pic32mx/lib\libpic32.a(vector53.o)
                              c:/program files (x86)/microchip/xc32/v1.33/bin/bin/../../lib/gcc/pic32mx/4.5.2/../../../../pic32mx/lib/./proc/32MX795F512L\default_isr_vectors.o (__vector_dispatch_53)
c:/program files (x86)/microchip/xc32/v1.33/bin/bin/../../lib/gcc/pic32mx/4.5.2/../../../../pic32mx/lib\libpic32.a(vector54.o)
                              c:/program files (x86)/microchip/xc32/v1.33/bin/bin/../../lib/gcc/pic32mx/4.5.2/../../../../pic32mx/lib/./proc/32MX795F512L\default_isr_vectors.o (__vector_dispatch_54)
c:/program files (x86)/microchip/xc32/v1.33/bin/bin/../../lib/gcc/pic32mx/4.5.2/../../../../pic32mx/lib\libpic32.a(vector55.o)
                              c:/program files (x86)/microchip/xc32/v1.33/bin/bin/../../lib/gcc/pic32mx/4.5.2/../../../../pic32mx/lib/./proc/32MX795F512L\default_isr_vectors.o (__vector_dispatch_55)
c:/program files (x86)/microchip/xc32/v1.33/bin/bin/../../lib/gcc/pic32mx/4.5.2/../../../../pic32mx/lib\libpic32.a(vector56.o)
                              c:/program files (x86)/microchip/xc32/v1.33/bin/bin/../../lib/gcc/pic32mx/4.5.2/../../../../pic32mx/lib/./proc/32MX795F512L\default_isr_vectors.o (__vector_dispatch_56)
c:/program files (x86)/microchip/xc32/v1.33/bin/bin/../../lib/gcc/pic32mx/4.5.2/../../../../pic32mx/lib\libpic32.a(vector57.o)
                              c:/program files (x86)/microchip/xc32/v1.33/bin/bin/../../lib/gcc/pic32mx/4.5.2/../../../../pic32mx/lib/./proc/32MX795F512L\default_isr_vectors.o (__vector_dispatch_57)
c:/program files (x86)/microchip/xc32/v1.33/bin/bin/../../lib/gcc/pic32mx/4.5.2/../../../../pic32mx/lib\libpic32.a(vector58.o)
                              c:/program files (x86)/microchip/xc32/v1.33/bin/bin/../../lib/gcc/pic32mx/4.5.2/../../../../pic32mx/lib/./proc/32MX795F512L\default_isr_vectors.o (__vector_dispatch_58)
c:/program files (x86)/microchip/xc32/v1.33/bin/bin/../../lib/gcc/pic32mx/4.5.2/../../../../pic32mx/lib\libpic32.a(vector59.o)
                              c:/program files (x86)/microchip/xc32/v1.33/bin/bin/../../lib/gcc/pic32mx/4.5.2/../../../../pic32mx/lib/./proc/32MX795F512L\default_isr_vectors.o (__vector_dispatch_59)
c:/program files (x86)/microchip/xc32/v1.33/bin/bin/../../lib/gcc/pic32mx/4.5.2/../../../../pic32mx/lib\libpic32.a(vector60.o)
                              c:/program files (x86)/microchip/xc32/v1.33/bin/bin/../../lib/gcc/pic32mx/4.5.2/../../../../pic32mx/lib/./proc/32MX795F512L\default_isr_vectors.o (__vector_dispatch_60)
c:/program files (x86)/microchip/xc32/v1.33/bin/bin/../../lib/gcc/pic32mx/4.5.2/../../../../pic32mx/lib\libpic32.a(vector61.o)
                              c:/program files (x86)/microchip/xc32/v1.33/bin/bin/../../lib/gcc/pic32mx/4.5.2/../../../../pic32mx/lib/./proc/32MX795F512L\default_isr_vectors.o (__vector_dispatch_61)
c:/program files (x86)/microchip/xc32/v1.33/bin/bin/../../lib/gcc/pic32mx/4.5.2/../../../../pic32mx/lib\libpic32.a(vector62.o)
                              c:/program files (x86)/microchip/xc32/v1.33/bin/bin/../../lib/gcc/pic32mx/4.5.2/../../../../pic32mx/lib/./proc/32MX795F512L\default_isr_vectors.o (__vector_dispatch_62)
c:/program files (x86)/microchip/xc32/v1.33/bin/bin/../../lib/gcc/pic32mx/4.5.2/../../../../pic32mx/lib\libpic32.a(vector63.o)
                              c:/program files (x86)/microchip/xc32/v1.33/bin/bin/../../lib/gcc/pic32mx/4.5.2/../../../../pic32mx/lib/./proc/32MX795F512L\default_isr_vectors.o (__vector_dispatch_63)
c:/program files (x86)/microchip/xc32/v1.33/bin/bin/../../lib/gcc/pic32mx/4.5.2/../../../../pic32mx/lib\libpic32.a(defaultinterrupt.o)
                              c:/program files (x86)/microchip/xc32/v1.33/bin/bin/../../lib/gcc/pic32mx/4.5.2/../../../../pic32mx/lib\libpic32.a(vector0.o) (_DefaultInterrupt)
c:/program files (x86)/microchip/xc32/v1.33/bin/bin/../../lib/gcc/pic32mx/4.5.2/../../../../pic32mx/lib\libc.a(atoi.o)
                              build/default/production/_ext/1144052859/tcpip_commands.o (atoi)
c:/program files (x86)/microchip/xc32/v1.33/bin/bin/../../lib/gcc/pic32mx/4.5.2/../../../../pic32mx/lib\libc.a(calloc.o)
                              build/default/production/_ext/1144052859/tcpip_commands.o (calloc)
c:/program files (x86)/microchip/xc32/v1.33/bin/bin/../../lib/gcc/pic32mx/4.5.2/../../../../pic32mx/lib\libc.a(ctype.o)
                              build/default/production/_ext/1144052859/tcpip_helpers.o (_ctype)
c:/program files (x86)/microchip/xc32/v1.33/bin/bin/../../lib/gcc/pic32mx/4.5.2/../../../../pic32mx/lib\libc.a(malloc.o)
                              build/default/production/_ext/1144052859/tcpip_manager.o (malloc)
c:/program files (x86)/microchip/xc32/v1.33/bin/bin/../../lib/gcc/pic32mx/4.5.2/../../../../pic32mx/lib\libc.a(rand.o)
                              build/default/production/_ext/595770632/random.o (srand)
c:/program files (x86)/microchip/xc32/v1.33/bin/bin/../../lib/gcc/pic32mx/4.5.2/../../../../pic32mx/lib\libc.a(strncpy.o)
                              build/default/production/_ext/1986204992/drv_ethmac.o (strncpy)
c:/program files (x86)/microchip/xc32/v1.33/bin/bin/../../lib/gcc/pic32mx/4.5.2/../../../../pic32mx/lib\libc.a(strtol.o)
                              build/default/production/_ext/1144052859/tcpip_helpers.o (strtol)
c:/program files (x86)/microchip/xc32/v1.33/bin/bin/../../lib/gcc/pic32mx/4.5.2/../../../../pic32mx/lib\libc.a(snprintf_cdnopsuxX.eo)
                              build/default/production/_ext/1829665213/system_debug.o (_snprintf_cdnopsuxX)
c:/program files (x86)/microchip/xc32/v1.33/bin/bin/../../lib/gcc/pic32mx/4.5.2/../../../../pic32mx/lib\libc.a(sprintf_cdnopsuxX.eo)
                              build/default/production/_ext/1144052859/tcpip_packet.o (_sprintf_cdnopsuxX)
c:/program files (x86)/microchip/xc32/v1.33/bin/bin/../../lib/gcc/pic32mx/4.5.2/../../../../pic32mx/lib\libc.a(sprintf_cdnopuxX.eo)
                              build/default/production/_ext/1144052859/tcpip_helpers.o (_sprintf_cdnopuxX)
c:/program files (x86)/microchip/xc32/v1.33/bin/bin/../../lib/gcc/pic32mx/4.5.2/../../../../pic32mx/lib\libc.a(vsnprintf_cdnopsuxX.eo)
                              c:/program files (x86)/microchip/xc32/v1.33/bin/bin/../../lib/gcc/pic32mx/4.5.2/../../../../pic32mx/lib\libc.a(snprintf_cdnopsuxX.eo) (_vsnprintf_cdnopsuxX)
c:/program files (x86)/microchip/xc32/v1.33/bin/bin/../../lib/gcc/pic32mx/4.5.2/../../../../pic32mx/lib\libc.a(vsnprintf.o)
                              build/default/production/_ext/1144052859/tcpip_packet.o (vsnprintf)
c:/program files (x86)/microchip/xc32/v1.33/bin/bin/../../lib/gcc/pic32mx/4.5.2/../../../../pic32mx/lib\libc.a(ctypef.o)
                              c:/program files (x86)/microchip/xc32/v1.33/bin/bin/../../lib/gcc/pic32mx/4.5.2/../../../../pic32mx/lib\libc.a(strtol.o) (toupper)
c:/program files (x86)/microchip/xc32/v1.33/bin/bin/../../lib/gcc/pic32mx/4.5.2/../../../../pic32mx/lib\libc.a(errno.o)
                              c:/program files (x86)/microchip/xc32/v1.33/bin/bin/../../lib/gcc/pic32mx/4.5.2/../../../../pic32mx/lib\libc.a(strtol.o) (errno)
c:/program files (x86)/microchip/xc32/v1.33/bin/bin/../../lib/gcc/pic32mx/4.5.2/../../../../pic32mx/lib\libc.a(doprnt_cdnopsuxX.eo)
                              c:/program files (x86)/microchip/xc32/v1.33/bin/bin/../../lib/gcc/pic32mx/4.5.2/../../../../pic32mx/lib\libc.a(sprintf_cdnopsuxX.eo) (_vfprintf_cdnopsuxX)
c:/program files (x86)/microchip/xc32/v1.33/bin/bin/../../lib/gcc/pic32mx/4.5.2/../../../../pic32mx/lib\libc.a(doprnt_cdnopuxX.eo)
                              c:/program files (x86)/microchip/xc32/v1.33/bin/bin/../../lib/gcc/pic32mx/4.5.2/../../../../pic32mx/lib\libc.a(sprintf_cdnopuxX.eo) (_vfprintf_cdnopuxX)
c:/program files (x86)/microchip/xc32/v1.33/bin/bin/../../lib/gcc/pic32mx/4.5.2/../../../../pic32mx/lib\libc.a(doprnt.o)
                              c:/program files (x86)/microchip/xc32/v1.33/bin/bin/../../lib/gcc/pic32mx/4.5.2/../../../../pic32mx/lib\libc.a(vsnprintf.o) (vfprintf)
c:/program files (x86)/microchip/xc32/v1.33/bin/bin/../../lib/gcc/pic32mx/4.5.2/../../../../pic32mx/lib\libc.a(_fputc_simple.o)
                              c:/program files (x86)/microchip/xc32/v1.33/bin/bin/../../lib/gcc/pic32mx/4.5.2/../../../../pic32mx/lib\libc.a(doprnt_cdnopsuxX.eo) (fputc)
c:/program files (x86)/microchip/xc32/v1.33/bin/bin/../../lib/gcc/pic32mx/4.5.2/../../../../pic32mx/lib\libc.a(powersf.o)
                              c:/program files (x86)/microchip/xc32/v1.33/bin/bin/../../lib/gcc/pic32mx/4.5.2/../../../../pic32mx/lib\libc.a(doprnt.o) (_powers_f)
c:/program files (x86)/microchip/xc32/v1.33/bin/bin/../../lib/gcc/pic32mx/4.5.2/../../../../pic32mx/lib\libc.a(_iob.o)
                              c:/program files (x86)/microchip/xc32/v1.33/bin/bin/../../lib/gcc/pic32mx/4.5.2/../../../../pic32mx/lib\libc.a(_fputc_simple.o) (_outdone)
c:/program files (x86)/microchip/xc32/v1.33/bin/bin/../../lib/gcc/pic32mx/4.5.2/../../../../pic32mx/lib\libc.a(_flsbuf_simple.o)
                              c:/program files (x86)/microchip/xc32/v1.33/bin/bin/../../lib/gcc/pic32mx/4.5.2/../../../../pic32mx/lib\libc.a(_fputc_simple.o) (_flsbuf)
c:/program files (x86)/microchip/xc32/v1.33/bin/bin/../../lib/gcc/pic32mx/4.5.2/../../../../pic32mx/lib\libpic32.a(sbrk.o)
                              c:/program files (x86)/microchip/xc32/v1.33/bin/bin/../../lib/gcc/pic32mx/4.5.2/../../../../pic32mx/lib\libc.a(malloc.o) (sbrk)
c:/program files (x86)/microchip/xc32/v1.33/bin/bin/../../lib/gcc/pic32mx/4.5.2/../../../../pic32mx/lib\libpic32.a(write.o)
                              c:/program files (x86)/microchip/xc32/v1.33/bin/bin/../../lib/gcc/pic32mx/4.5.2/../../../../pic32mx/lib\libc.a(_fputc_simple.o) (write)
c:/program files (x86)/microchip/xc32/v1.33/bin/bin/../../lib/gcc/pic32mx/4.5.2/../../../../pic32mx/lib\libpic32.a(_mon_putc.o)
                              c:/program files (x86)/microchip/xc32/v1.33/bin/bin/../../lib/gcc/pic32mx/4.5.2/../../../../pic32mx/lib\libpic32.a(write.o) (_mon_putc)
c:/program files (x86)/microchip/xc32/v1.33/bin/bin/../../lib/gcc/pic32mx/4.5.2/../../../../pic32mx/lib\libpic32.a(xc32_uart.o)
                              c:/program files (x86)/microchip/xc32/v1.33/bin/bin/../../lib/gcc/pic32mx/4.5.2/../../../../pic32mx/lib\libpic32.a(_mon_putc.o) (__XC_UART)
c:/program files (x86)/microchip/xc32/v1.33/bin/bin/../../lib/gcc/pic32mx/4.5.2/../../../../pic32mx/lib\libm.a(fp32div.o)
                              c:/program files (x86)/microchip/xc32/v1.33/bin/bin/../../lib/gcc/pic32mx/4.5.2/../../../../pic32mx/lib\libc.a(doprnt.o) (fpdiv)
c:/program files (x86)/microchip/xc32/v1.33/bin/bin/../../lib/gcc/pic32mx/4.5.2/../../../../pic32mx/lib\libm.a(fp32mul.o)
                              c:/program files (x86)/microchip/xc32/v1.33/bin/bin/../../lib/gcc/pic32mx/4.5.2/../../../../pic32mx/lib\libc.a(doprnt.o) (fpmul)
c:/program files (x86)/microchip/xc32/v1.33/bin/bin/../../lib/gcc/pic32mx/4.5.2/../../../../pic32mx/lib\libm.a(fp32subadd.o)
                              c:/program files (x86)/microchip/xc32/v1.33/bin/bin/../../lib/gcc/pic32mx/4.5.2/../../../../pic32mx/lib\libc.a(doprnt.o) (fpsub)
c:/program files (x86)/microchip/xc32/v1.33/bin/bin/../../lib/gcc/pic32mx/4.5.2/../../../../pic32mx/lib\libm.a(fpcmp.o)
                              c:/program files (x86)/microchip/xc32/v1.33/bin/bin/../../lib/gcc/pic32mx/4.5.2/../../../../pic32mx/lib\libc.a(doprnt.o) (fpcmp)
c:/program files (x86)/microchip/xc32/v1.33/bin/bin/../../lib/gcc/pic32mx/4.5.2/../../../../pic32mx/lib\libm.a(fpfrexp.o)
                              c:/program files (x86)/microchip/xc32/v1.33/bin/bin/../../lib/gcc/pic32mx/4.5.2/../../../../pic32mx/lib\libc.a(doprnt.o) (frexpf)
c:/program files (x86)/microchip/xc32/v1.33/bin/bin/../../lib/gcc/pic32mx/4.5.2/../../../../pic32mx/lib\libm.a(fptoul.o)
                              c:/program files (x86)/microchip/xc32/v1.33/bin/bin/../../lib/gcc/pic32mx/4.5.2/../../../../pic32mx/lib\libc.a(doprnt.o) (fptoui)
c:/program files (x86)/microchip/xc32/v1.33/bin/bin/../../lib/gcc/pic32mx/4.5.2/../../../../pic32mx/lib\libe.a(_floatdisf.o)
                              c:/program files (x86)/microchip/xc32/v1.33/bin/bin/../../lib/gcc/pic32mx/4.5.2/../../../../pic32mx/lib\libc.a(doprnt.o) (__floatdisf)
c:/program files (x86)/microchip/xc32/v1.33/bin/bin/../../lib/gcc/pic32mx/4.5.2\libgcc.a(_floatundisf.o)
                              c:/program files (x86)/microchip/xc32/v1.33/bin/bin/../../lib/gcc/pic32mx/4.5.2/../../../../pic32mx/lib\libc.a(doprnt.o) (__floatundisf)
c:/program files (x86)/microchip/xc32/v1.33/bin/bin/../../lib/gcc/pic32mx/4.5.2\libgcc.a(_umoddi3.o)
                              c:/program files (x86)/microchip/xc32/v1.33/bin/bin/../../lib/gcc/pic32mx/4.5.2/../../../../pic32mx/lib\libc.a(doprnt_cdnopsuxX.eo) (__umoddi3)
c:/program files (x86)/microchip/xc32/v1.33/bin/bin/../../lib/gcc/pic32mx/4.5.2\libgcc.a(floatunsisf.o)
                              c:/program files (x86)/microchip/xc32/v1.33/bin/bin/../../lib/gcc/pic32mx/4.5.2/../../../../pic32mx/lib\libc.a(doprnt.o) (__floatunsisf)
c:/program files (x86)/microchip/xc32/v1.33/bin/bin/../../lib/gcc/pic32mx/4.5.2/../../../../pic32mx/lib\libm.a(sitofp.o)
                              c:/program files (x86)/microchip/xc32/v1.33/bin/bin/../../lib/gcc/pic32mx/4.5.2\libgcc.a(_floatundisf.o) (sitofp)

Allocating common symbols
Common symbol       size              file

gDrvETHPHYClientObj
                    0x34              build/default/production/_ext/810051186/drv_ethphy.o
appData             0x4               build/default/production/_ext/1360937237/app.o
modeSeljunk         0x4               build/default/production/_ext/1986204992/drv_ethmac.o
sysObj              0x10              build/default/production/_ext/1688732426/system_init.o
lastBlock           0x40              build/default/production/_ext/1997815295/hashes.o
icmpStartTick       0x4               build/default/production/_ext/1144052859/tcpip_commands.o
sysDevconObj        0x8               build/default/production/_ext/335806368/sys_devcon.o
sysRandCtx          0x108             build/default/production/_ext/323145514/sys_random.o
gDrvETHPHYObj       0x30              build/default/production/_ext/810051186/drv_ethphy.o

Microchip PIC32 Memory-Usage Report

kseg0 Program-Memory Usage
section                    address  length [bytes]      (dec)  Description
-------                 ----------  -------------------------  -----------
.text.vfprintf          0x9d000000         0x1bc8        7112   
.rodata                 0x9d001bc8         0x185c        6236  Read-only const 
.text.TCPIP_TCP_Process 0x9d003424          0xeb0        3760   
.text._vfprintf_cdnopsu 0x9d0042d4          0xae8        2792   
.text._Command_DNS_Serv 0x9d004dbc          0x9a8        2472   
.text.TCPIP_STACK_Task  0x9d005764          0x818        2072   
.text._DRV_TMR_ClockPre 0x9d005f7c          0x6a8        1704   
.text.TCPIP_DHCP_Task   0x9d006624          0x68c        1676   
.text._TcpSend          0x9d006cb0          0x668        1640   
.text.SYS_CMD_Tasks     0x9d007318          0x600        1536   
.text.TCPIP_ZCLL_Task   0x9d007918          0x588        1416   
.dinit                  0x9d007ea0          0x510        1296   
.text.TCPIP_TCP_Tick    0x9d0083b0          0x4e8        1256   
.text.DRV_ETHMAC_PIC32M 0x9d008898          0x484        1156   
.text                   0x9d008d1c          0x8a8        2216  App's exec code 
.text.CommandArp        0x9d0095c4          0x434        1076   
.text._DHCPReceive      0x9d0099f8          0x40c        1036   
.text._Command_NetInfo  0x9d009e04          0x364         868   
.text.TCPIP_Helper_Stri 0x9d00a168          0x354         852   
.text.TCPIP_DNS_Send_Qu 0x9d00a4bc          0x348         840   
.text._Command_StackOnO 0x9d00a804          0x334         820   
.text.SYS_TMR_Tasks     0x9d00ab38          0x32c         812   
.text._DHCPSend         0x9d00ae64          0x32c         812   
.text.TCPIP_NBNS_Task   0x9d00b190          0x32c         812   
.text.TCPIP_ARP_Initial 0x9d00b4bc          0x328         808   
.text._DNS_GetResultPro 0x9d00b7e4          0x328         808   
.text.TCPIPDNSLookUpCom 0x9d00bb0c          0x2f4         756   
.text.TCPIP_DNS_ClientI 0x9d00be00          0x2d8         728   
.text.TCPIP_STACK_NetCo 0x9d00c0d8          0x2d0         720   
.text.TCPIP_IPV4_Packet 0x9d00c3a8          0x2c8         712   
.text.CommandHelp       0x9d00c670          0x2b8         696   
.text.TCPIP_ARP_Task    0x9d00c928          0x2b0         688   
.text.TCPIP_ANNOUNCE_Se 0x9d00cbd8          0x2b0         688   
.text.scale             0x9d00ce88          0x2a0         672   
.text.CommandPing       0x9d00d128          0x298         664   
.text._Command_NetworkO 0x9d00d3c0          0x298         664   
.text.TCPIP_STACK_Bring 0x9d00d658          0x290         656   
.rodata                 0x9d00d8e8          0x28c         652  Read-only const 
.text.TCPIP_UDP_Process 0x9d00db74          0x284         644   
.text.TCPIP_STACK_Initi 0x9d00ddf8          0x278         632   
.text.malloc            0x9d00e070          0x278         632   
.text.fpsubadd          0x9d00e2e8          0x278         632   
.text._Command_MacInfo  0x9d00e560          0x274         628   
.text.TCPIP_IPV4_Proces 0x9d00e7d4          0x274         628   
.text.TCPIP_UDP_Flush   0x9d00ea48          0x258         600   
.text.DRV_TMR_CounterFr 0x9d00eca0          0x254         596   
.text.TCPIP_ARP_Process 0x9d00eef4          0x254         596   
.text.TCPIP_ICMP_Proces 0x9d00f148          0x254         596   
.text.DRV_ETHMAC_LibRxB 0x9d00f39c          0x24c         588   
.text                   0x9d00f5e8          0x248         584  App's exec code 
.text.TCPIPCommandsTask 0x9d00f830          0x234         564   
.text.fp32div           0x9d00fa64          0x230         560   
.text.TCPIP_DNS_GetReso 0x9d00fc94          0x228         552   
.text.strtoul           0x9d00febc          0x220         544   
.text.__floatdisf       0x9d0100dc          0x220         544   
.text._DNS_RESPONSE_Has 0x9d0102fc          0x21c         540   
.text._TCPIP_HEAP_Free  0x9d010518          0x21c         540   
.text._UDPOpen          0x9d010734          0x214         532   
.text.CommandDhcpOption 0x9d010948          0x214         532   
.text.DRV_TMR_Initializ 0x9d010b5c          0x204         516   
.text._Command_AddressS 0x9d010d60          0x1fc         508   
.text.TCPIP_DNS_IsResol 0x9d010f5c          0x1f8         504   
.text.TCPIP_Helper_Stri 0x9d011154          0x1e4         484   
.text._SYS_TMR_ClientCr 0x9d011338          0x1e0         480   
.text._DRV_ETHPHY_Setup 0x9d011518          0x1dc         476   
.text._DRV_PHY_SMITrans 0x9d0116f4          0x1d8         472   
.text._Command_IPAddres 0x9d0118cc          0x1d8         472   
.text.DRV_ETHMAC_LibIni 0x9d011aa4          0x1c8         456   
.text._EthAckPacket     0x9d011c6c          0x1c0         448   
.text.fp32mul           0x9d011e2c          0x1bc         444   
.text.DRV_ETHMAC_PIC32M 0x9d011fe8          0x1b8         440   
.text.TCPIP_UDP_Options 0x9d0121a0          0x1ac         428   
.text.DRV_ETHMAC_PIC32M 0x9d01234c          0x1a8         424   
.text.TCPIP_UDP_ArrayGe 0x9d0124f4          0x1a8         424   
.text.fround            0x9d01269c          0x1a4         420   
.text                   0x9d012840          0x1a0         416  App's exec code 
.text.TCPIP_UDP_Deiniti 0x9d0129e0          0x194         404   
.text._sbrk_init        0x9d012b74          0x194         404   
.text.DRV_ETHMAC_LibRxA 0x9d012d08          0x190         400   
.rodata                 0x9d012e98          0x320         800  Read-only const 
.text.TCPIP_UDP_Bind    0x9d0131b8          0x18c         396   
.text.TCPIP_DNS_ClientT 0x9d013344          0x188         392   
.rodata                 0x9d0134cc          0x188         392  Read-only const 
.text.TCPIP_UDP_Initial 0x9d013654          0x180         384   
.text.TCPIP_ARP_EntryRe 0x9d0137d4          0x180         384   
.text._ZeroconfARPPktNo 0x9d013954          0x180         384   
.text.DRV_ETHMAC_PIC32M 0x9d013ad4          0x17c         380   
.text._ARPProbeAddress  0x9d013c50          0x178         376   
.text._LoadDefaultConfi 0x9d013dc8          0x178         376   
.text.DRV_ETHMAC_LibRxG 0x9d013f40          0x174         372   
.text._TCPIP_HEAP_Mallo 0x9d0140b4          0x174         372   
.text.DRV_ETHMAC_LibMAC 0x9d014228          0x170         368   
.text.TCPIP_DHCP_Initia 0x9d014398          0x16c         364   
.text.TCPIP_DNS_CacheTi 0x9d014504          0x16c         364   
.text                   0x9d014670          0x2d0         720  App's exec code 
.text.strtol            0x9d014940          0x168         360   
.text._UDPv4PAllocateSk 0x9d014aa8          0x164         356   
.text.TCPIP_IPV4_Select 0x9d014c0c          0x164         356   
.text._EthAppendBusyLis 0x9d014d70          0x15c         348   
.text._DHCPStartOperati 0x9d014ecc          0x15c         348   
.text._TCPIP_PKT_Flight 0x9d015028          0x15c         348   
.text.fputc             0x9d015184          0x15c         348   
.text.DRV_ETHMAC_Tasks_ 0x9d0152e0          0x158         344   
.text.DRV_ETHMAC_PIC32M 0x9d015438          0x154         340   
.text.DRV_TMR_Alarm16Bi 0x9d01558c          0x154         340   
.text._ARPSendIfPkt     0x9d0156e0          0x154         340   
.text._MACDeinit        0x9d015834          0x150         336   
.text.DRV_ETHMAC_LibTxS 0x9d015984          0x150         336   
.text._DRV_ETHPHY_Setup 0x9d015ad4          0x150         336   
.text._DRV_ETHPHY_NegRe 0x9d015c24          0x148         328   
.text.SYS_Initialize    0x9d015d6c          0x144         324   
.text.DRV_EXTPHY_MDIXCo 0x9d015eb0          0x13c         316   
.text.TCPIP_Helper_IPv6 0x9d015fec          0x13c         316   
.text.DisplayNodeMsg    0x9d016128          0x13c         316   
.text._Command_MACAddre 0x9d016264          0x130         304   
.text._MacRxPacketAck   0x9d016394          0x12c         300   
.text._TcpDisconnect    0x9d0164c0          0x12c         300   
.text._Command_GatewayA 0x9d0165ec          0x12c         300   
.text._flsbuf           0x9d016718          0x12c         300   
.text.DRV_ETHMAC_LibDes 0x9d016844          0x128         296   
.text._DRV_TMR_ClockSou 0x9d01696c          0x128         296   
.text.TCPIP_ANNOUNCE_In 0x9d016a94          0x128         296   
.text.TCPIP_Helper_Stri 0x9d016bbc          0x128         296   
.text._DRV_ETHMAC_AddRx 0x9d016ce4          0x124         292   
.text._OAHashFindBkt    0x9d016e08          0x124         292   
.text._Command_HeapInfo 0x9d016f2c          0x120         288   
.text.TCPIP_IPV4_ArpHan 0x9d01704c          0x120         288   
.text                   0x9d01716c          0x120         288  App's exec code 
.text._DRV_ETHPHY_Setup 0x9d01728c          0x11c         284   
.text.DRV_EXTPHY_MIICon 0x9d0173a8          0x11c         284   
.text._ARPDeleteResourc 0x9d0174c4          0x11c         284   
.text.DRV_ETHMAC_PIC32M 0x9d0175e0          0x118         280   
.text.SYS_DEVCON_Perfor 0x9d0176f8          0x118         280   
.text._DNS_Enable       0x9d017810          0x118         280   
.text.TCPIP_ICMP_EchoRe 0x9d017928          0x114         276   
.text._Command_PrimaryD 0x9d017a3c          0x114         276   
.text.TCPIP_Helper_Pack 0x9d017b50          0x114         276   
.text.TCPIP_STACK_Deini 0x9d017c64          0x114         276   
.text.TCPIP_ARP_EntryQu 0x9d017d78          0x10c         268   
.text.TCPIP_DNS_OAHASH_ 0x9d017e84          0x108         264   
.text.SYS_CMD_ADDGRP    0x9d017f8c          0x108         264   
.rodata                 0x9d018094          0x104         260  Read-only const 
.text._DRV_TMR_Resume   0x9d018198          0x104         260   
.text.TCPIP_TCP_Initial 0x9d01829c          0x104         260   
.text._IntHandlerDrvTmr 0x9d0183a0          0x104         260   
.rodata                 0x9d0184a4          0x104         260  Read-only const 
.text._DRV_ETHPHY_Setup 0x9d0185a8          0x100         256   
.text.TCPIP_UDP_OpenSer 0x9d0186a8          0x100         256   
.rodata                 0x9d0187a8          0x100         256  Read-only const 
.text._IntHandler_ETHMA 0x9d0188a8          0x100         256   
.text._TcpSocketSetIdle 0x9d0189a8           0xfc         252   
.text.DRV_ETHMAC_LibClo 0x9d018aa4           0xf8         248   
.text.TCPIP_Commands_In 0x9d018b9c           0xf8         248   
.text._SYS_TMR_ClientPa 0x9d018c94           0xf0         240   
.text._GetMaxSegSizeOpt 0x9d018d84           0xf0         240   
.text.TCPIP_ARP_IsResol 0x9d018e74           0xec         236   
.text.CommandPingHandle 0x9d018f60           0xec         236   
.text.TCPIP_Helper_Pack 0x9d01904c           0xec         236   
.text.TCPIP_OAHASH_Entr 0x9d019138           0xe8         232   
.rodata                 0x9d019220           0xe8         232  Read-only const 
.text._DRV_TMR_Suspend  0x9d019308           0xe4         228   
.text.TCPIP_DHCP_Connec 0x9d0193ec           0xe4         228   
.text._DRV_ETHPHY_Setup 0x9d0194d0           0xe0         224   
.text._DRV_ETHPHY_NegCo 0x9d0195b0           0xe0         224   
.text.TCPIP_DNS_Disable 0x9d019690           0xe0         224   
.text.TCPIP_STACK_NetUp 0x9d019770           0xe0         224   
.text._SYS_TMR_ClientCh 0x9d019850           0xdc         220   
.text._TcpCloseSocket   0x9d01992c           0xdc         220   
.text._Command_BIOSName 0x9d019a08           0xdc         220   
.text._Command_DefaultI 0x9d019ae4           0xdc         220   
.text.TCPIP_STACK_Bring 0x9d019bc0           0xdc         220   
.text._TCPIP_PKT_Packet 0x9d019c9c           0xdc         220   
.text.general_exception 0x9d019d78           0xdc         220   
.text._DNSNotifyClients 0x9d019e54           0xd8         216   
.text._DRV_ETHPHY_Reset 0x9d019f2c           0xd4         212   
.text.SYS_TMR_Initializ 0x9d01a000           0xd4         212   
.text.TCPIP_DNS_SelectD 0x9d01a0d4           0xd4         212   
.text._general_exceptio 0x9d01a1a8           0xd4         212   
.text.USART_INIT        0x9d01a27c           0xd4         212   
.text                   0x9d01a350           0xd4         212  App's exec code 
.text._EthTxSchedList   0x9d01a424           0xd0         208   
.text._ARPUpdateEntry   0x9d01a4f4           0xd0         208   
.text.TCPIP_DNS_ActiveD 0x9d01a5c4           0xd0         208   
.text.SYS_CMD_DELETE    0x9d01a694           0xd0         208   
.text.PLIB_ETH_MACSetAd 0x9d01a764           0xd0         208   
.rodata                 0x9d01a834            0x4           4  Read-only const 
.rodata                 0x9d01a838           0xd0         208  Read-only const 
.text.DRV_ETHPHY_SMIClo 0x9d01a908           0xcc         204   
.text._UDPsetPacketInfo 0x9d01a9d4           0xcc         204   
.text.TCPIP_ARP_CacheEn 0x9d01aaa0           0xcc         204   
.text.TCPIP_DNS_GetIPv6 0x9d01ab6c           0xcc         204   
.text._TCPIP_StackSyncF 0x9d01ac38           0xcc         204   
.text.GenerateSeed      0x9d01ad04           0xc8         200   
.text.TCPIP_DNS_Resolve 0x9d01adcc           0xc8         200   
.text.TCPIP_NBNS_Initia 0x9d01ae94           0xc8         200   
.text.TCPIP_OAHASH_Entr 0x9d01af5c           0xc8         200   
.text._NetConfigStringT 0x9d01b024           0xc8         200   
.text.TCPIP_STACK_Addre 0x9d01b0ec           0xc8         200   
.text._UDPv4TxAckFnc    0x9d01b1b4           0xc4         196   
.text._DHCPEnable       0x9d01b278           0xc4         196   
.text._sbrk             0x9d01b33c           0xc4         196   
.text.TCPIP_UDP_RemoteB 0x9d01b400           0xc0         192   
.text._DNS_RemoveHashAl 0x9d01b4c0           0xc0         192   
.rodata                 0x9d01b580           0xbc         188  Read-only const 
.text.DRV_TMR_Tasks_ISR 0x9d01b63c           0xbc         188   
.text.TCPIP_UDP_ArrayPu 0x9d01b6f8           0xbc         188   
.text.DRV_ETHMAC_PIC32M 0x9d01b7b4           0xb8         184   
.text.TCPIP_STACK_NetDo 0x9d01b86c           0xb8         184   
.text.DRV_ETHMAC_PIC32M 0x9d01b924           0xb4         180   
.text._MacTxPendingPack 0x9d01b9d8           0xb4         180   
.text._DRV_ETHMAC_LinkS 0x9d01ba8c           0xb4         180   
.text._DRV_ETHPHY_NegCo 0x9d01bb40           0xb4         180   
.text.TCPIP_UDP_BcastIP 0x9d01bbf4           0xb4         180   
.text._ARPNotifyClients 0x9d01bca8           0xb4         180   
.text._mon_putc         0x9d01bd5c           0xb4         180   
.text._DHCPClose        0x9d01be10           0xb0         176   
.text.TCPIP_ZCLL_Initia 0x9d01bec0           0xb0         176   
.text.TCPIP_IPV4_Packet 0x9d01bf70           0xb0         176   
.text._DRV_ETHPHY_NegRe 0x9d01c020           0xac         172   
.text.TCPIP_TCP_Deiniti 0x9d01c0cc           0xac         172   
.text.TCPIP_PKT_DataSeg 0x9d01c178           0xac         172   
.text.DRV_ETHMAC_PIC32M 0x9d01c224           0xa8         168   
.text._EthTxSchedBuffer 0x9d01c2cc           0xa8         168   
.text.TCPIP_STACK_NetCo 0x9d01c374           0xa8         168   
.text.TCPIP_IPV4_ListPu 0x9d01c41c           0xa8         168   
.text                   0x9d01c4c4           0xa8         168  App's exec code 
.text.atoi              0x9d01c56c           0xa8         168   
.text._DRV_ETHMAC_LinkS 0x9d01c614           0xa4         164   
.text._DRV_ETHPHY_Reset 0x9d01c6b8           0xa4         164   
.text.TCPIP_DNS_GetIPv4 0x9d01c75c           0xa4         164   
.text.TCPIP_HEAP_Create 0x9d01c800           0xa4         164   
.text._DRV_ETHPHY_LinkS 0x9d01c8a4           0xa0         160   
.text._DHCPOpenSocket   0x9d01c944           0xa0         160   
.text.TCPIP_DNS_ClientD 0x9d01c9e4           0xa0         160   
.text._TCPIP_PKT_Packet 0x9d01ca84           0xa0         160   
.text.TCPIP_IPV4_DeInit 0x9d01cb24           0xa0         160   
.text.TCPIP_UDP_PutIsRe 0x9d01cbc4           0x9c         156   
.text._DHCPPacketFilter 0x9d01cc60           0x9c         156   
.text._TCPIPStackAsyncH 0x9d01ccfc           0x9c         156   
.text.TCPIP_PKT_PacketM 0x9d01cd98           0x9c         156   
.text.fpcmp             0x9d01ce34           0x9c         156   
.text.DRV_ETHMAC_LibDes 0x9d01ced0           0x98         152   
.text.DRV_ETHPHY_Setup  0x9d01cf68           0x98         152   
.text.TCPIP_UDP_Destina 0x9d01d000           0x98         152   
.text.TCPIP_ARP_Probe   0x9d01d098           0x98         152   
.text.TCPIP_Helper_Sing 0x9d01d130           0x98         152   
.text                   0x9d01d1c8           0x98         152  App's exec code 
.text.rand              0x9d01d260           0x98         152   
.text._DRV_ETHPHY_Setup 0x9d01d2f8           0x94         148   
.text._TcpCleanup       0x9d01d38c           0x94         148   
.text.TCPIP_UDP_TxOffse 0x9d01d420           0x94         148   
.text.write             0x9d01d4b4           0x94         148   
.text.TCPIP_UDP_SocketI 0x9d01d548           0x90         144   
.text.TCPIP_ARP_EntryRe 0x9d01d5d8           0x90         144   
.text.TCPIP_DNS_OAHASH_ 0x9d01d668           0x90         144   
.text.TCPIP_DNS_RemoveA 0x9d01d6f8           0x90         144   
.text.SYS_CMDIO_ADD     0x9d01d788           0x90         144   
.text.DRV_ETHPHY_Vendor 0x9d01d818           0x8c         140   
.text._DHCPNotifyClient 0x9d01d8a4           0x8c         140   
.text._DNSHashEntryFrom 0x9d01d930           0x8c         140   
.text.TCPIP_Commands_De 0x9d01d9bc           0x8c         140   
.text.hexatob           0x9d01da48           0x8c         140   
.text.TCPIP_Helper_IPAd 0x9d01dad4           0x8c         140   
.text.DRV_ETHMAC_PIC32M 0x9d01db60           0x88         136   
.text._DRV_ETHMAC_LinkS 0x9d01dbe8           0x88         136   
.text.DRV_ETHPHY_Vendor 0x9d01dc70           0x88         136   
.text._UDPAllocateEphem 0x9d01dcf8           0x88         136   
.text.TCPIP_ARP_EntryGe 0x9d01dd80           0x88         136   
.text._DNS_UpdateExpire 0x9d01de08           0x88         136   
.text.TCPIP_DNS_GetNumb 0x9d01de90           0x88         136   
.text.TCPIP_DNS_Validat 0x9d01df18           0x88         136   
.text.zgzc_wait_for     0x9d01dfa0           0x88         136   
.text.TCPIP_Helper_Form 0x9d01e028           0x88         136   
.text.TCPIP_Helper_Prot 0x9d01e0b0           0x88         136   
.text.libm              0x9d01e138           0x88         136   
.text.DRV_ETHPHY_Open   0x9d01e1c0           0x84         132   
.text.SYS_RANDOM_Initia 0x9d01e244           0x84         132   
.text._TCPIP_AnnounceCl 0x9d01e2c8           0x84         132   
.text.TCPIP_STACK_NetHa 0x9d01e34c           0x84         132   
.text.TCPIP_STACK_IPAdd 0x9d01e3d0           0x84         132   
.text.TCPIP_PKT_Initial 0x9d01e454           0x84         132   
.text._DRV_ETHPHY_NegCo 0x9d01e4d8           0x80         128   
.text.DRV_ETHPHY_Vendor 0x9d01e558           0x80         128   
.text._Tcpv4TxAckFnc    0x9d01e5d8           0x80         128   
.text._TcpAbort         0x9d01e658           0x80         128   
.text.DNS_DhcpNotify    0x9d01e6d8           0x80         128   
.text._TCPIPStackIpAddF 0x9d01e758           0x80         128   
.text.Arc4SetKey        0x9d01e7d8           0x7c         124   
.text._UDPFreeTxResourc 0x9d01e854           0x7c         124   
.text.TCPIP_ARP_Deiniti 0x9d01e8d0           0x7c         124   
.text.TCPIP_STACK_NetAl 0x9d01e94c           0x7c         124   
.text.USART_GETS        0x9d01e9c8           0x7c         124   
.text.SYS_CMD_Initializ 0x9d01ea44           0x7c         124   
.text.PLIB_ETH_MACGetAd 0x9d01eac0           0x7c         124   
.text.fptoul            0x9d01eb3c           0x7c         124   
.text._DRV_ETHMAC_LinkS 0x9d01ebb8           0x78         120   
.text._DRV_TMR_ModuleOb 0x9d01ec30           0x78         120   
.text.TCPIP_UDP_Close   0x9d01eca8           0x78         120   
.text.TCPIP_ANNOUNCE_Ta 0x9d01ed20           0x78         120   
.rodata                 0x9d01ed98           0x78         120  Read-only const 
.text._TCPIPStackAnyNet 0x9d01ee10           0x78         120   
.text._DRV_ETHPHY_Setup 0x9d01ee88           0x74         116   
.text.SYS_DEVCON_System 0x9d01eefc           0x74         116   
.text._TcpSwapHeader    0x9d01ef70           0x74         116   
.text.TCPIP_ARP_Handler 0x9d01efe4           0x74         116   
.text.TCPIP_DNS_RemoveE 0x9d01f058           0x74         116   
.text.TCPIP_Helper_Stri 0x9d01f0cc           0x74         116   
.text.TCPIP_Helper_Prot 0x9d01f140           0x74         116   
.text.TCPIP_Helper_Prot 0x9d01f1b4           0x74         116   
.text.TCPIP_Helper_Prot 0x9d01f228           0x74         116   
.text._TCPIP_PKT_Socket 0x9d01f29c           0x74         116   
.text._EnetPoolFreeDcpt 0x9d01f310           0x70         112   
.text.TCPIP_UDP_SocketN 0x9d01f380           0x70         112   
.text.TCPIP_DHCP_Disabl 0x9d01f3f0           0x70         112   
.text.TCPIP_DHCP_Handle 0x9d01f460           0x70         112   
.text.TCPIP_DNS_GetArra 0x9d01f4d0           0x70         112   
.text.TCPIP_DNS_SwitchD 0x9d01f540           0x70         112   
.text.CommandQuit       0x9d01f5b0           0x70         112   
.text.Arc4Process       0x9d01f620           0x6c         108   
.text._MacRxFreeCallbac 0x9d01f68c           0x6c         108   
.text._DRV_ETHPHY_Setup 0x9d01f6f8           0x6c         108   
.text._DRV_ETHPHY_NegRe 0x9d01f764           0x6c         108   
.text._TCP_PayloadSet   0x9d01f7d0           0x6c         108   
.text._UDPClose         0x9d01f83c           0x6c         108   
.text._ARPSetEntry      0x9d01f8a8           0x6c         108   
.text.TCPIP_ANNOUNCE_De 0x9d01f914           0x6c         108   
.text.TCPIP_STACK_NetBi 0x9d01f980           0x6c         108   
.text._DRV_ETHPHY_NegCo 0x9d01f9ec           0x68         104   
.text.DRV_ETHPHY_Initia 0x9d01fa54           0x68         104   
.text._TcpAllocateTxPac 0x9d01fabc           0x68         104   
.text.TCPIP_ARP_HashEnt 0x9d01fb24           0x68         104   
.text._ARPRemoveEntry   0x9d01fb8c           0x68         104   
.text.TCPIP_DHCP_IsEnab 0x9d01fbf4           0x68         104   
.text._DNSDiscardName   0x9d01fc5c           0x68         104   
.text._ZCLLEnable       0x9d01fcc4           0x68         104   
.text.TCPIP_ZCLL_Enable 0x9d01fd2c           0x68         104   
.text._PingStop         0x9d01fd94           0x68         104   
.text.TCPIP_Helper_MACA 0x9d01fdfc           0x68         104   
.text._TCPIPStackInsert 0x9d01fe64           0x68         104   
.text.IPv4RegisterFilte 0x9d01fecc           0x68         104   
.text._sprintf_cdnopsux 0x9d01ff34           0x68         104   
.rodata                 0x9d01ff9c           0x68         104  Read-only const 
.text.DRV_ETHMAC_PIC32M 0x9d020004           0x64         100   
.text._DRV_ETHPHY_Setup 0x9d020068           0x64         100   
.text._DRV_ETHPHY_LinkS 0x9d0200cc           0x64         100   
.text.TCPIP_UDP_Put     0x9d020130           0x64         100   
.text._DHCPCleanup      0x9d020194           0x64         100   
.text.TCPIP_Helper_Prot 0x9d0201f8           0x64         100   
.text._vsnprintf_cdnops 0x9d02025c           0x64         100   
.text.vsnprintf         0x9d0202c0           0x64         100   
.text.InitRng           0x9d020324           0x60          96   
.text._MACTxPacket      0x9d020384           0x60          96   
.text.DRV_TMR_Start     0x9d0203e4           0x60          96   
.text.SYS_TMR_ObjectDel 0x9d020444           0x60          96   
.text.TCPIP_UDP_OpenCli 0x9d0204a4           0x60          96   
.text.TCPIP_UDP_GetIsRe 0x9d020504           0x60          96   
.text.TCPIP_UDP_RxOffse 0x9d020564           0x60          96   
.text.TCPIP_ARP_Callbac 0x9d0205c4           0x60          96   
.text.TCPIP_DHCP_Deinit 0x9d020624           0x60          96   
.text.TCPIP_ZCLL_Disabl 0x9d020684           0x60          96   
.text.fnv_32_hash       0x9d0206e4           0x60          96   
.text._SYS_DEBUG_INIT   0x9d020744           0x60          96   
.text._SYS_CONSOLE_INIT 0x9d0207a4           0x60          96   
.text.TCPIP_IPV4_Initia 0x9d020804           0x60          96   
.text.sitofp            0x9d020864           0x60          96   
.text.DRV_TMR_Open      0x9d0208c4           0x5c          92   
.text._ARPRefreshEntry  0x9d020920           0x5c          92   
.text.calloc            0x9d02097c           0x5c          92   
.text.RNG_GenerateBlock 0x9d0209d8           0x58          88   
.text.DRV_ETHMAC_PIC32M 0x9d020a30           0x58          88   
.text.DRV_ETHMAC_PIC32M 0x9d020a88           0x58          88   
.text.DRV_ETHMAC_PIC32M 0x9d020ae0           0x58          88   
.text._MacTxDiscardQueu 0x9d020b38           0x58          88   
.text._TcpSocketKill    0x9d020b90           0x58          88   
.text._Tcpv4AllocateTxP 0x9d020be8           0x58          88   
.text.TCPIP_ZCLL_Deinit 0x9d020c40           0x58          88   
.text.TCPIP_OAHASH_Entr 0x9d020c98           0x58          88   
.text.TCPIP_STACK_MACId 0x9d020cf0           0x58          88   
.text.TCPIP_STACK_NetBy 0x9d020d48           0x58          88   
.text.SYS_CLK_Initializ 0x9d020da0           0x58          88   
.text.TCPIP_STACK_Init  0x9d020df8           0x58          88   
.text.strncpy           0x9d020e50           0x58          88   
.text._DRV_ETHPHY_NegRe 0x9d020ea8           0x54          84   
.text._DRV_ETHPHY_NegRe 0x9d020efc           0x54          84   
.text.SYS_DEVCON_System 0x9d020f50           0x54          84   
.text._UDPSetNewRxPacke 0x9d020fa4           0x54          84   
.text.TCPIP_STACK_Addre 0x9d020ff8           0x54          84   
.text.TCPIP_Notificatio 0x9d02104c           0x54          84   
.text.SYS_Tasks         0x9d0210a0           0x54          84   
.text._XtlEventsTcp2Eth 0x9d0210f4           0x50          80   
.text._EnetDescriptorsC 0x9d021144           0x50          80   
.text.DRV_ETHPHY_LinkSt 0x9d021194           0x50          80   
.text._TCPSetSourceAddr 0x9d0211e4           0x50          80   
.text._TCPSetHalfFlushF 0x9d021234           0x50          80   
.text._UDPResetRxPacket 0x9d021284           0x50          80   
.text._UDPSetSourceAddr 0x9d0212d4           0x50          80   
.text.TCPIP_DNS_OAHASH_ 0x9d021324           0x50          80   
.text.TCPIP_ICMP_Initia 0x9d021374           0x50          80   
.text.TCPIP_ICMP_Callba 0x9d0213c4           0x50          80   
.text.TCPIP_NBNS_Deinit 0x9d021414           0x50          80   
.text._ZCLLDisable      0x9d021464           0x50          80   
.text._TCPIP_PKT_Packet 0x9d0214b4           0x50          80   
.text._SYS_CONSOLE_PRIN 0x9d021504           0x50          80   
.text.CommandCleanup    0x9d021554           0x50          80   
.text.PLIB_ETH_RxSetBuf 0x9d0215a4           0x50          80   
.text.sbrk              0x9d0215f4           0x50          80   
.text.main_entry        0x9d021644           0x4c          76   
.text._DRV_ETHMAC_LinkS 0x9d021690           0x4c          76   
.text._DRV_ETHPHY_Clien 0x9d0216dc           0x4c          76   
.text._DRV_ETHPHY_Setup 0x9d021728           0x4c          76   
.text._DRV_ETHPHY_Setup 0x9d021774           0x4c          76   
.text._DRV_ETHPHY_Clien 0x9d0217c0           0x4c          76   
.text._DRV_ETHPHY_Clien 0x9d02180c           0x4c          76   
.text._DRV_ETHPHY_Clien 0x9d021858           0x4c          76   
.text._DRV_PHY_NegCompl 0x9d0218a4           0x4c          76   
.text._DRV_ETHPHY_Clien 0x9d0218f0           0x4c          76   
.text._DRV_ETHPHY_Clien 0x9d02193c           0x4c          76   
.text._DRV_ETHPHY_Clien 0x9d021988           0x4c          76   
.text.DRV_ETHPHY_HWConf 0x9d0219d4           0x4c          76   
.text.TCPIP_UDP_SourceI 0x9d021a20           0x4c          76   
.text._ARPRemoveCacheEn 0x9d021a6c           0x4c          76   
.text.TCPIP_DNS_GetDNSC 0x9d021ab8           0x4c          76   
.text.TCPIP_ICMP_Deinit 0x9d021b04           0x4c          76   
.text.TCPIP_NBNS_Cleanu 0x9d021b50           0x4c          76   
.text.TCPIP_HEAP_Delete 0x9d021b9c           0x4c          76   
.text._TCPIP_HEAP_Callo 0x9d021be8           0x4c          76   
.text.TCPIP_Notificatio 0x9d021c34           0x4c          76   
.text._SysGetCDevEntry  0x9d021c80           0x4c          76   
.text                   0x9d021ccc           0x4c          76  App's exec code 
.text.DRV_ETHPHY_Negoti 0x9d021d18           0x48          72   
.text.SYS_RESET_Softwar 0x9d021d60           0x48          72   
.rodata                 0x9d021da8           0x48          72  Read-only const 
.text.ANNOUNCE_Notify   0x9d021df0           0x48          72   
.text.strupr            0x9d021e38           0x48          72   
.text._TCPIP_STACK_Find 0x9d021e80           0x48          72   
.text.TCPIP_STACK_IPAdd 0x9d021ec8           0x48          72   
.text.TCPIP_STACK_Netwo 0x9d021f10           0x48          72   
.text.TCPIP_STACK_IsBca 0x9d021f58           0x48          72   
.text.TCPIP_Notificatio 0x9d021fa0           0x48          72   
.text._SYS_DEBUG_OPEN   0x9d021fe8           0x48          72   
.text._SYS_CONSOLE_OPEN 0x9d022030           0x48          72   
.text._bootstrap_except 0x9d022078           0x48          72   
.text._MACTxPacketAckCa 0x9d0220c0           0x44          68   
.text.DRV_ETHPHY_Negoti 0x9d022104           0x44          68   
.text._UDPIsAvailablePo 0x9d022148           0x44          68   
.text.TCPIP_UDP_TxPoint 0x9d02218c           0x44          68   
.text._SwapARPPacket    0x9d0221d0           0x44          68   
.text                   0x9d022214           0x44          68  App's exec code 
.text._DRV_ETHPHY_NegCo 0x9d022258           0x40          64   
.text.DRV_ETHPHY_Tasks  0x9d022298           0x40          64   
.text.SYS_INT_SourceDis 0x9d0222d8           0x40          64   
.text.LFSRRand          0x9d022318           0x40          64   
.text.TCPIP_Helper_Prot 0x9d022358           0x40          64   
.text.TCPIP_STACK_NetAd 0x9d022398           0x40          64   
.text.TCPIP_STACK_NetMA 0x9d0223d8           0x40          64   
.text.TCPIP_STACK_NetMA 0x9d022418           0x40          64   
.text.TCPIP_STACK_Strin 0x9d022458           0x40          64   
.text.TCPIP_STACK_NetAd 0x9d022498           0x40          64   
.text.CmdAddHead        0x9d0224d8           0x40          64   
.text._DRV_ETHMAC_LinkS 0x9d022518           0x3c          60   
.text.DRV_ETHMAC_Single 0x9d022554           0x3c          60   
.text._DRV_ETHPHY_Clien 0x9d022590           0x3c          60   
.text._DRV_ETHPHY_NegRe 0x9d0225cc           0x3c          60   
.text._DRV_ETHPHY_Reset 0x9d022608           0x3c          60   
.text._UDPFreeRxQueue   0x9d022644           0x3c          60   
.text.TCPIP_ARP_HashKey 0x9d022680           0x3c          60   
.text.TCPIP_ARP_Callbac 0x9d0226bc           0x3c          60   
.text.TCPIP_DHCP_Enable 0x9d0226f8           0x3c          60   
.text.TCPIP_DHCP_Renew  0x9d022734           0x3c          60   
.text.TCPIP_DHCP_IsActi 0x9d022770           0x3c          60   
.text._ICMPAllocateTxPa 0x9d0227ac           0x3c          60   
.text._ZCLLCleanup      0x9d0227e8           0x3c          60   
.text.TCPIP_OAHASH_Init 0x9d022824           0x3c          60   
.text.TCPIP_Helper_Sing 0x9d022860           0x3c          60   
.text.TCPIP_STACK_NetAd 0x9d02289c           0x3c          60   
.text._TCPIPStackSetCon 0x9d0228d8           0x3c          60   
.text.TCPIP_STACK_NetIs 0x9d022914           0x3c          60   
.text._TCPIPStackAsyncH 0x9d022950           0x3c          60   
.text.USART_PRINT       0x9d02298c           0x3c          60   
.rodata                 0x9d0229c8           0x3c          60  Read-only const 
.text._sys_CONSOLE_PRIN 0x9d022a04           0x3c          60   
.text.SYS_INT_SourceRes 0x9d022a40           0x3c          60   
.text.DRV_ETHMAC_LibRxP 0x9d022a7c           0x38          56   
.text.DRV_ETHMAC_LibRxS 0x9d022ab4           0x38          56   
.text.DRV_ETHMAC_LibTxP 0x9d022aec           0x38          56   
.text._DRV_PHY_SMIReadS 0x9d022b24           0x38          56   
.text._DRV_PHY_SMIWrite 0x9d022b5c           0x38          56   
.text._DRV_ETHPHY_NegRe 0x9d022b94           0x38          56   
.text._DRV_ETHPHY_NegCo 0x9d022bcc           0x38          56   
.text._DRV_ETHPHY_NegRe 0x9d022c04           0x38          56   
.text._DRV_ETHPHY_LinkS 0x9d022c3c           0x38          56   
.text._UDPSocketBind    0x9d022c74           0x38          56   
.text.TCPIP_UDP_TxCount 0x9d022cac           0x38          56   
.text._ARPAllocateTxPac 0x9d022ce4           0x38          56   
.text.TCPIP_ARP_Handler 0x9d022d1c           0x38          56   
.text.TCPIP_Helper_Prot 0x9d022d54           0x38          56   
.text.TCPIP_STACK_Index 0x9d022d8c           0x38          56   
.text.TCPIP_STACK_Addre 0x9d022dc4           0x38          56   
.text.TCPIP_STACK_NetAd 0x9d022dfc           0x38          56   
.text.CmdRemoveTail     0x9d022e34           0x38          56   
.text.CommandReset      0x9d022e6c           0x38          56   
.vector_default         0x9d022ea4           0x38          56   
.text.DRV_ETHMAC_LibDes 0x9d022edc           0x34          52   
.text.DRV_ETHMAC_LibTxA 0x9d022f10           0x34          52   
.text._DRV_PHY_NegResul 0x9d022f44           0x34          52   
.text._UDPUpdatePacketL 0x9d022f78           0x34          52   
.text.TCPIP_DHCP_Reques 0x9d022fac           0x34          52   
.text.TCPIP_DHCP_Handle 0x9d022fe0           0x34          52   
.text.TCPIP_ICMP_Callba 0x9d023014           0x34          52   
.text.TCPIP_STACK_DNSSe 0x9d023048           0x34          52   
.text.TCPIP_STACK_NetAd 0x9d02307c           0x34          52   
.text.TCPIP_STACK_NetMa 0x9d0230b0           0x34          52   
.text.TCPIP_STACK_NetIs 0x9d0230e4           0x34          52   
.text._TCPIPStackHandle 0x9d023118           0x34          52   
.text.TCPIP_STACK_NetAd 0x9d02314c           0x34          52   
.text.SYS_CMDIO_GET_HAN 0x9d023180           0x34          52   
.text.Ipv4DeRegisterFil 0x9d0231b4           0x34          52   
.text._MacCallocCallbac 0x9d0231e8           0x30          48   
.text._EthMacReset      0x9d023218           0x30          48   
.text.DRV_ETHMAC_Single 0x9d023248           0x30          48   
.text._DRV_PHY_SMIReadS 0x9d023278           0x30          48   
.text._DRV_PHY_SMIWrite 0x9d0232a8           0x30          48   
.text._ARPTxAckFnc      0x9d0232d8           0x30          48   
.text.TCPIP_Helper_Sing 0x9d023308           0x30          48   
.text._TCPIP_MacEventCB 0x9d023338           0x30          48   
.text.TCPIP_STACK_NetAd 0x9d023368           0x30          48   
.text.SYS_PORTS_Initial 0x9d023398           0x30          48   
.text.free              0x9d0233c8           0x30          48   
.text.DRV_ETHMAC_PIC32M 0x9d0233f8           0x2c          44   
.text._SYS_TMR_AlarmCal 0x9d023424           0x2c          44   
.text._UDPSocketDcpt    0x9d023450           0x2c          44   
.text.TCPIP_UDP_Discard 0x9d02347c           0x2c          44   
.text.TCPIP_Notificatio 0x9d0234a8           0x2c          44   
.text._SYS_CONSOLE_MESS 0x9d0234d4           0x2c          44   
.text._SYS_CONSOLE_PUTC 0x9d023500           0x2c          44   
.text.USART_OPEN        0x9d02352c           0x2c          44   
.text._stub_sbd_memlayo 0x9d023558           0x2c          44   
.text._MacTxFreeCallbac 0x9d023584           0x28          40   
.text._MACTxAcknowledge 0x9d0235ac           0x28          40   
.text.DRV_ETHPHY_PhyAdd 0x9d0235d4           0x28          40   
.rodata                 0x9d0235fc           0x28          40  Read-only const 
.text._UDPAllocateTxPac 0x9d023624           0x28          40   
.text.TCPIP_OAHASH_Entr 0x9d02364c           0x28          40   
.text.TCPIP_HEAP_MaxSiz 0x9d023674           0x28          40   
.text.TCPIP_Helper_Powe 0x9d02369c           0x28          40   
.text.TCPIP_STACK_NetDe 0x9d0236c4           0x28          40   
.text.TCPIP_STACK_Netwo 0x9d0236ec           0x28          40   
.text.TCPIP_STACK_NetMA 0x9d023714           0x28          40   
.text._SYS_CONSOLE_DATA 0x9d02373c           0x28          40   
.text._SYS_CONSOLE_GETC 0x9d023764           0x28          40   
.text.USART_PUTC        0x9d02378c           0x28          40   
.text.PLIB_ETH_MACSetMa 0x9d0237b4           0x28          40   
.text._snprintf_cdnopsu 0x9d0237dc           0x28          40   
.text.CRYPT_RNG_Initial 0x9d023804           0x24          36   
.text.DRV_ETHMAC_PIC32M 0x9d023828           0x24          36   
.text.DRV_ETHPHY_Vendor 0x9d02384c           0x24          36   
.text.SYS_TMR_TickCount 0x9d023870           0x24          36   
.text.SYS_TMR_TickCount 0x9d023894           0x24          36   
.text._PoolAddNodeLocke 0x9d0238b8           0x24          36   
.text.TCPIP_ZCLL_ARPAct 0x9d0238dc           0x24          36   
.text.TCPIP_Helper_Prot 0x9d023900           0x24          36   
.text.TCPIP_STACK_NetNa 0x9d023924           0x24          36   
.text.USART_GETC        0x9d023948           0x24          36   
.text.toupper           0x9d02396c           0x24          36   
.text._DRV_ETHMAC_GetFr 0x9d023990           0x20          32   
.text._DRV_ETHMAC_GetFr 0x9d0239b0           0x20          32   
.text._DRV_ETHMAC_GetFr 0x9d0239d0           0x20          32   
.text._DRV_ETHMAC_GetFr 0x9d0239f0           0x20          32   
.text._DRV_ETHMAC_GetFr 0x9d023a10           0x20          32   
.text._DRV_ETHMAC_GetAl 0x9d023a30           0x20          32   
.text._DRV_ETHMAC_GetSC 0x9d023a50           0x20          32   
.text._DRV_ETHMAC_GetMC 0x9d023a70           0x20          32   
.text._DRV_ETHPHY_Clien 0x9d023a90           0x20          32   
.text.DRV_ETHPHY_Close  0x9d023ab0           0x20          32   
.text._DRV_TMR_ClientSe 0x9d023ad0           0x20          32   
.text._TcpSocketBind    0x9d023af0           0x20          32   
.text.TCPIP_UDP_ServerO 0x9d023b10           0x20          32   
.text.TCPIP_UDP_ClientO 0x9d023b30           0x20          32   
.text.TCPIP_UDP_IsConne 0x9d023b50           0x20          32   
.text.TCPIP_UDP_Get     0x9d023b70           0x20          32   
.text.TCPIP_DNS_OAHASH_ 0x9d023b90           0x20          32   
.text.TCPIP_DNS_IsEnabl 0x9d023bb0           0x20          32   
.text._ICMPAckPacket    0x9d023bd0           0x20          32   
.text.TCPIP_ZCLL_IsEnab 0x9d023bf0           0x20          32   
.text.TCPIP_STACK_NetAd 0x9d023c10           0x20          32   
.text.TCPIP_STACK_NetAd 0x9d023c30           0x20          32   
.text.TCPIP_STACK_NetIs 0x9d023c50           0x20          32   
.text.TCPIP_STACK_NetAd 0x9d023c70           0x20          32   
.text.TCPIP_STACK_NetMa 0x9d023c90           0x20          32   
.text.main              0x9d023cb0           0x20          32   
.text.DRV_ETHMAC_PIC32M 0x9d023cd0           0x1c          28   
.text._DRV_PHY_SetOperD 0x9d023cec           0x1c          28   
.text._DRV_PHY_SetOperS 0x9d023d08           0x1c          28   
.text._DRV_ETHPHY_Clien 0x9d023d24           0x1c          28   
.text.SYS_DEVCON_JTAGDi 0x9d023d40           0x1c          28   
.text.SYS_RANDOM_Pseudo 0x9d023d5c           0x1c          28   
.text.SYS_TMR_CallbackS 0x9d023d78           0x1c          28   
.text.SYS_TMR_CallbackP 0x9d023d94           0x1c          28   
.text.TCPIP_UDP_TxPutIs 0x9d023db0           0x1c          28   
.text._DHCPSetRunFail   0x9d023dcc           0x1c          28   
.text.TCPIP_DNS_Enable  0x9d023de8           0x1c          28   
.text._zcll_rand        0x9d023e04           0x1c          28   
.text._Command_ZcllOnOf 0x9d023e20           0x1c          28   
.text._Command_DHCPSOnO 0x9d023e3c           0x1c          28   
.text.btohexa_high      0x9d023e58           0x1c          28   
.text.btohexa_low       0x9d023e74           0x1c          28   
.text.TCPIP_OAHASH_Entr 0x9d023e90           0x1c          28   
.text.TCPIP_Helper_Chec 0x9d023eac           0x1c          28   
.text.TCPIP_STACK_MACId 0x9d023ec8           0x1c          28   
.text.TCPIP_STACK_Addre 0x9d023ee4           0x1c          28   
.text.TCPIP_STACK_NetIn 0x9d023f00           0x1c          28   
.text.TCPIP_Notificatio 0x9d023f1c           0x1c          28   
.text._sys_CONSOLE_GETC 0x9d023f38           0x1c          28   
.text._sys_CONSOLE_DATA 0x9d023f54           0x1c          28   
.text._sys_CONSOLE_PUTC 0x9d023f70           0x1c          28   
.text._sys_CONSOLE_MESS 0x9d023f8c           0x1c          28   
.text.PLIB_ETH_RxFilter 0x9d023fa8           0x1c          28   
.text.PLIB_ETH_EventsGe 0x9d023fc4           0x1c          28   
.text.srand             0x9d023fe0           0x1c          28   
.text.DRV_ETHPHY_Deinit 0x9d023ffc           0x18          24   
.text.DRV_ETHPHY_Vendor 0x9d024014           0x18          24   
.text.TCPIP_ARP_HashKey 0x9d02402c           0x18          24   
.rodata                 0x9d024044           0x30          48  Read-only const 
.text._TCPIP_STACK_Find 0x9d024074           0x18          24   
.text.TCPIP_STACK_Gatew 0x9d02408c           0x18          24   
.text.TCPIP_STACK_Prima 0x9d0240a4           0x18          24   
.text.TCPIP_STACK_Secon 0x9d0240bc           0x18          24   
.text.PLIB_ETH_RxFilter 0x9d0240d4           0x18          24   
.text.PLIB_ETH_RxFilter 0x9d0240ec           0x18          24   
.text                   0x9d024104           0x18          24  App's exec code 
.text._Phy2LinkStat     0x9d02411c           0x14          20   
.text.DRV_ETHPHY_Client 0x9d024130           0x14          20   
.text.DRV_ETHPHY_Client 0x9d024144           0x14          20   
.text.SYS_DEVCON_Initia 0x9d024158           0x14          20   
.text.SYS_INT_Initializ 0x9d02416c           0x14          20   
.text._TcpDiscardTx     0x9d024180           0x14          20   
.text.TCPIP_DNS_GetData 0x9d024194           0x14          20   
.text.TCPIP_HEAP_FreeSi 0x9d0241a8           0x14          20   
.text._TCPIP_STACK_Tick 0x9d0241bc           0x14          20   
.text.TCPIP_STACK_NetIx 0x9d0241d0           0x14          20   
.text.PLIB_ETH_EventsEn 0x9d0241e4           0x14          20   
.text.PLIB_ETH_EventsEn 0x9d0241f8           0x14          20   
.text.PLIB_ETH_EventsCl 0x9d02420c           0x14          20   
.text.TCPIP_ARP_HashKey 0x9d024220           0x10          16   
.text.TCPIP_Helper_Sing 0x9d024230           0x10          16   
.text._TCPIPStackAsyncH 0x9d024240           0x10          16   
.text._TCPIP_PKT_Flight 0x9d024250           0x10          16   
.text.USART_DATA_RDY    0x9d024260           0x10          16   
.text.DRV_ETHMAC_PIC32M 0x9d024270            0xc          12   
.text._DRV_PHY_SetOperP 0x9d02427c            0xc          12   
.text.DRV_EXTPHY_SMIClo 0x9d024288            0xc          12   
.text.SYS_TMR_ModuleSta 0x9d024294            0xc          12   
.text.TCPIP_ANNOUNCE_Se 0x9d0242a0            0xc          12   
.text.TCPIP_HEAP_Size   0x9d0242ac            0xc          12   
.text.TCPIP_HEAP_LastEr 0x9d0242b8            0xc          12   
.text.TCPIP_STACK_Numbe 0x9d0242c4            0xc          12   
.text.TCPIP_STACK_NetBI 0x9d0242d0            0xc          12   
.text._TCPIPStackAddres 0x9d0242dc            0xc          12   
.text.SYS_CLK_SystemFre 0x9d0242e8            0xc          12   
.text.SYS_CLK_Periphera 0x9d0242f4            0xc          12   
.text.DRV_ETHMAC_PIC32M 0x9d024300            0x8           8   
.text.DRV_ETHMAC_PIC32M 0x9d024308            0x8           8   
.text._DRV_ETHPHY_Clien 0x9d024310            0x8           8   
.text.DRV_TMR_Tasks     0x9d024318            0x8           8   
.text.SYS_DEVCON_Tasks  0x9d024320            0x8           8   
.rodata                 0x9d024328           0x18          24  Read-only const 
.text._OAHashProbeStep  0x9d024340            0x8           8   
.text.TCPIP_STACK_NetDe 0x9d024348            0x8           8   
.text.TCPIP_STACK_DNSSe 0x9d024350            0x8           8   
.text.TCPIP_PKT_Deiniti 0x9d024358            0x8           8   
.text.APP_Initialize    0x9d024360            0x8           8   
.text.APP_Tasks         0x9d024368            0x8           8   
.text._on_reset         0x9d024370            0x8           8   
.text._on_bootstrap     0x9d024378            0x8           8   
.rodata                 0x9d024380            0x8           8  Read-only const 
      Total kseg0_program_mem used  :     0x24388      148360  28.3% of 0x80000

kseg0 Boot-Memory Usage
section                    address  length [bytes]      (dec)  Description
-------                 ----------  -------------------------  -----------
         Total kseg0_boot_mem used  :           0           0  <1% of 0x970

Exception-Memory Usage 
section                    address  length [bytes]      (dec)  Description
-------                 ----------  -------------------------  -----------
.app_excpt              0x9fc01180           0x10          16  General-Exception 
.vector_0               0x9fc01200            0x8           8  Interrupt Vector 0 
.vector_1               0x9fc01220            0x8           8  Interrupt Vector 1 
.vector_2               0x9fc01240            0x8           8  Interrupt Vector 2 
.vector_3               0x9fc01260            0x8           8  Interrupt Vector 3 
.vector_4               0x9fc01280            0x8           8  Interrupt Vector 4 
.vector_5               0x9fc012a0            0x8           8  Interrupt Vector 5 
.vector_6               0x9fc012c0            0x8           8  Interrupt Vector 6 
.vector_7               0x9fc012e0            0x8           8  Interrupt Vector 7 
.vector_8               0x9fc01300            0x8           8  Interrupt Vector 8 
.vector_9               0x9fc01320            0x8           8  Interrupt Vector 9 
.vector_10              0x9fc01340            0x8           8  Interrupt Vector 10 
.vector_11              0x9fc01360            0x8           8  Interrupt Vector 11 
.vector_12              0x9fc01380            0x8           8  Interrupt Vector 12 
.vector_13              0x9fc013a0            0x8           8  Interrupt Vector 13 
.vector_14              0x9fc013c0            0x8           8  Interrupt Vector 14 
.vector_15              0x9fc013e0            0x8           8  Interrupt Vector 15 
.vector_16              0x9fc01400            0x8           8  Interrupt Vector 16 
.vector_17              0x9fc01420            0x8           8  Interrupt Vector 17 
.vector_18              0x9fc01440            0x8           8  Interrupt Vector 18 
.vector_19              0x9fc01460            0x8           8  Interrupt Vector 19 
.vector_20              0x9fc01480            0x8           8  Interrupt Vector 20 
.vector_21              0x9fc014a0            0x8           8  Interrupt Vector 21 
.vector_22              0x9fc014c0            0x8           8  Interrupt Vector 22 
.vector_23              0x9fc014e0            0x8           8  Interrupt Vector 23 
.vector_24              0x9fc01500            0x8           8  Interrupt Vector 24 
.vector_25              0x9fc01520            0x8           8  Interrupt Vector 25 
.vector_26              0x9fc01540            0x8           8  Interrupt Vector 26 
.vector_27              0x9fc01560            0x8           8  Interrupt Vector 27 
.vector_28              0x9fc01580            0x8           8  Interrupt Vector 28 
.vector_29              0x9fc015a0            0x8           8  Interrupt Vector 29 
.vector_30              0x9fc015c0            0x8           8  Interrupt Vector 30 
.vector_31              0x9fc015e0            0x8           8  Interrupt Vector 31 
.vector_32              0x9fc01600            0x8           8  Interrupt Vector 32 
.vector_33              0x9fc01620            0x8           8  Interrupt Vector 33 
.vector_34              0x9fc01640            0x8           8  Interrupt Vector 34 
.vector_35              0x9fc01660            0x8           8  Interrupt Vector 35 
.vector_36              0x9fc01680            0x8           8  Interrupt Vector 36 
.vector_37              0x9fc016a0            0x8           8  Interrupt Vector 37 
.vector_38              0x9fc016c0            0x8           8  Interrupt Vector 38 
.vector_39              0x9fc016e0            0x8           8  Interrupt Vector 39 
.vector_40              0x9fc01700            0x8           8  Interrupt Vector 40 
.vector_41              0x9fc01720            0x8           8  Interrupt Vector 41 
.vector_42              0x9fc01740            0x8           8  Interrupt Vector 42 
.vector_43              0x9fc01760            0x8           8  Interrupt Vector 43 
.vector_44              0x9fc01780            0x8           8  Interrupt Vector 44 
.vector_45              0x9fc017a0            0x8           8  Interrupt Vector 45 
.vector_46              0x9fc017c0            0x8           8  Interrupt Vector 46 
.vector_47              0x9fc017e0            0x8           8  Interrupt Vector 47 
.vector_48              0x9fc01800            0x8           8  Interrupt Vector 48 
.vector_49              0x9fc01820            0x8           8  Interrupt Vector 49 
.vector_50              0x9fc01840            0x8           8  Interrupt Vector 50 
.vector_51              0x9fc01860            0x8           8  Interrupt Vector 51 
.vector_52              0x9fc01880            0x8           8  Interrupt Vector 52 
.vector_53              0x9fc018a0            0x8           8  Interrupt Vector 53 
.vector_54              0x9fc018c0            0x8           8  Interrupt Vector 54 
.vector_55              0x9fc018e0            0x8           8  Interrupt Vector 55 
.vector_56              0x9fc01900            0x8           8  Interrupt Vector 56 
.vector_57              0x9fc01920            0x8           8  Interrupt Vector 57 
.vector_58              0x9fc01940            0x8           8  Interrupt Vector 58 
.vector_59              0x9fc01960            0x8           8  Interrupt Vector 59 
.vector_60              0x9fc01980            0x8           8  Interrupt Vector 60 
.vector_61              0x9fc019a0            0x8           8  Interrupt Vector 61 
.vector_62              0x9fc019c0            0x8           8  Interrupt Vector 62 
.vector_63              0x9fc019e0            0x8           8  Interrupt Vector 63 
          Total exception_mem used  :       0x210         528  12.9% of 0x1000

kseg1 Boot-Memory Usage
section                    address  length [bytes]      (dec)  Description
-------                 ----------  -------------------------  -----------
.reset                  0xbfc00000          0x1f0         496  Reset handler 
.bev_excpt              0xbfc00380           0x10          16  BEV-Exception 
         Total kseg1_boot_mem used  :       0x200         512  43.8% of 0x490
        --------------------------------------------------------------------------
         Total Program Memory used  :     0x24798      149400  28.1% of 0x81e00
        --------------------------------------------------------------------------


kseg1 Data-Memory Usage
section                    address  length [bytes]      (dec)  Description
-------                 ----------  -------------------------  -----------
.eh_frame               0xa0000000           0x30          48   
.sdata                  0xa0000030           0x2c          44  Small init data 
.sbss                   0xa000005c          0x1a8         424  Small uninit data 
.bss                    0xa0000204          0x17c         380  Uninitialized data 
.bss                    0xa0000380          0x154         340  Uninitialized data 
.data                   0xa00004d4           0xfc         252  Initialized data 
.bss                    0xa00005d0           0xb4         180  Uninitialized data 
.data                   0xa0000684           0xa0         160  Initialized data 
.bss                    0xa0000724          0x234         564  Uninitialized data 
.data                   0xa0000958           0x54          84  Initialized data 
.bss                    0xa00009ac           0x20          32  Uninitialized data 
.data                   0xa00009cc           0x1c          28  Initialized data 
.bss                    0xa00009e8           0x64         100  Uninitialized data 
.bss                    0xa0000a50           0x1c          28  Uninitialized data 
         Total kseg1_data_mem used  :       0xa68        2664  2.0% of 0x20000
        --------------------------------------------------------------------------
            Total Data Memory used  :       0xa68        2664  2.0% of 0x20000
        --------------------------------------------------------------------------


Dynamic Data-Memory Reservation
section                    address  length [bytes]      (dec)  Description
-------                 ----------  -------------------------  -----------
heap                    0xa0000a70         0xafa0       44960  Reserved for heap 
stack                   0xa000ba28        0x145c8       83400  Reserved for stack 

        --------------------------------------------------------------------------

Discarded input sections

 .text          0x00000000        0x0 c:/program files (x86)/microchip/xc32/v1.33/bin/bin/../../lib/gcc/pic32mx/4.5.2/../../../../pic32mx/lib/./proc/32MX795F512L/crt0_mips32r2.o
 .data          0x00000000        0x0 c:/program files (x86)/microchip/xc32/v1.33/bin/bin/../../lib/gcc/pic32mx/4.5.2/../../../../pic32mx/lib/./proc/32MX795F512L/crt0_mips32r2.o
 .bss           0x00000000        0x0 c:/program files (x86)/microchip/xc32/v1.33/bin/bin/../../lib/gcc/pic32mx/4.5.2/../../../../pic32mx/lib/./proc/32MX795F512L/crt0_mips32r2.o
 .text          0x00000000        0x0 c:/program files (x86)/microchip/xc32/v1.33/bin/bin/../../lib/gcc/pic32mx/4.5.2/../../../../pic32mx/lib\debug-exception-return.o
 .data          0x00000000        0x0 c:/program files (x86)/microchip/xc32/v1.33/bin/bin/../../lib/gcc/pic32mx/4.5.2/../../../../pic32mx/lib\debug-exception-return.o
 .bss           0x00000000        0x0 c:/program files (x86)/microchip/xc32/v1.33/bin/bin/../../lib/gcc/pic32mx/4.5.2/../../../../pic32mx/lib\debug-exception-return.o
 .reginfo       0x00000000       0x18 c:/program files (x86)/microchip/xc32/v1.33/bin/bin/../../lib/gcc/pic32mx/4.5.2/../../../../pic32mx/lib\debug-exception-return.o
 .text          0x00000000        0x0 build/default/production/_ext/595770632/random.o
 .data          0x00000000        0x0 build/default/production/_ext/595770632/random.o
 .bss           0x00000000        0x0 build/default/production/_ext/595770632/random.o
 .reginfo       0x00000000       0x18 build/default/production/_ext/595770632/random.o
 .text.RNG_GenerateByte
                0x00000000       0x24 build/default/production/_ext/595770632/random.o
 .text          0x00000000        0x0 build/default/production/_ext/595770632/arc4.o
 .data          0x00000000        0x0 build/default/production/_ext/595770632/arc4.o
 .bss           0x00000000        0x0 build/default/production/_ext/595770632/arc4.o
 .reginfo       0x00000000       0x18 build/default/production/_ext/595770632/arc4.o
 .text          0x00000000        0x0 build/default/production/_ext/595770632/crypto.o
 .data          0x00000000        0x0 build/default/production/_ext/595770632/crypto.o
 .bss           0x00000000        0x0 build/default/production/_ext/595770632/crypto.o
 .reginfo       0x00000000       0x18 build/default/production/_ext/595770632/crypto.o
 .text.CRYPT_RNG_Get
                0x00000000       0x40 build/default/production/_ext/595770632/crypto.o
 .text.CRYPT_RNG_BlockGenerate
                0x00000000       0x30 build/default/production/_ext/595770632/crypto.o
 .text.CRYPT_TDES_KeySet
                0x00000000       0x30 build/default/production/_ext/595770632/crypto.o
 .text.CRYPT_TDES_IvSet
                0x00000000       0x30 build/default/production/_ext/595770632/crypto.o
 .text.CRYPT_TDES_CBC_Encrypt
                0x00000000       0x38 build/default/production/_ext/595770632/crypto.o
 .text.CRYPT_TDES_CBC_Decrypt
                0x00000000       0x38 build/default/production/_ext/595770632/crypto.o
 .text.CRYPT_ERROR_StringGet
                0x00000000       0x28 build/default/production/_ext/595770632/crypto.o
 .text          0x00000000        0x0 build/default/production/_ext/1986204992/drv_ethmac.o
 .bss           0x00000000        0x0 build/default/production/_ext/1986204992/drv_ethmac.o
 .reginfo       0x00000000       0x18 build/default/production/_ext/1986204992/drv_ethmac.o
 .text.DRV_ETHMAC_VersionGet
                0x00000000        0xc build/default/production/_ext/1986204992/drv_ethmac.o
 .text.DRV_ETHMAC_VersionStrGet
                0x00000000        0xc build/default/production/_ext/1986204992/drv_ethmac.o
 .text          0x00000000        0x0 build/default/production/_ext/1986204992/drv_ethmac_lib.o
 .data          0x00000000        0x0 build/default/production/_ext/1986204992/drv_ethmac_lib.o
 .bss           0x00000000        0x0 build/default/production/_ext/1986204992/drv_ethmac_lib.o
 .reginfo       0x00000000       0x18 build/default/production/_ext/1986204992/drv_ethmac_lib.o
 .text.DRV_ETHMAC_LibDescriptorsPoolRemove
                0x00000000       0xc0 build/default/production/_ext/1986204992/drv_ethmac_lib.o
 .text.DRV_ETHMAC_LibTxSendBuffer
                0x00000000       0xc8 build/default/production/_ext/1986204992/drv_ethmac_lib.o
 .text.DRV_ETHMAC_LibTxGetBufferStatus
                0x00000000       0x78 build/default/production/_ext/1986204992/drv_ethmac_lib.o
 .text.DRV_ETHMAC_LibRxGetBuffer
                0x00000000       0x3c build/default/production/_ext/1986204992/drv_ethmac_lib.o
 .text          0x00000000        0x0 build/default/production/_ext/810051186/drv_ethphy.o
 .data          0x00000000        0x0 build/default/production/_ext/810051186/drv_ethphy.o
 .bss           0x00000000        0x0 build/default/production/_ext/810051186/drv_ethphy.o
 .reginfo       0x00000000       0x18 build/default/production/_ext/810051186/drv_ethphy.o
 .text.DRV_ETHPHY_Reinitialize
                0x00000000       0x3c build/default/production/_ext/810051186/drv_ethphy.o
 .text.DRV_ETHPHY_Status
                0x00000000       0x14 build/default/production/_ext/810051186/drv_ethphy.o
 .text.DRV_ETHPHY_ClientOperationAbort
                0x00000000       0x28 build/default/production/_ext/810051186/drv_ethphy.o
 .text.DRV_ETHPHY_SMIRead
                0x00000000       0x78 build/default/production/_ext/810051186/drv_ethphy.o
 .text.DRV_ETHPHY_SMIWrite
                0x00000000       0xc4 build/default/production/_ext/810051186/drv_ethphy.o
 .text.DRV_ETHPHY_SMIScanStart
                0x00000000       0x80 build/default/production/_ext/810051186/drv_ethphy.o
 .text.DRV_ETHPHY_SMIScanStop
                0x00000000       0x5c build/default/production/_ext/810051186/drv_ethphy.o
 .text.DRV_ETHPHY_SMIScanStatusGet
                0x00000000       0x4c build/default/production/_ext/810051186/drv_ethphy.o
 .text.DRV_ETHPHY_SMIScanDataGet
                0x00000000       0x70 build/default/production/_ext/810051186/drv_ethphy.o
 .text.DRV_ETHPHY_SMIStatus
                0x00000000       0x34 build/default/production/_ext/810051186/drv_ethphy.o
 .text.DRV_ETHPHY_RestartNegotiation
                0x00000000       0x3c build/default/production/_ext/810051186/drv_ethphy.o
 .text.DRV_ETHPHY_Reset
                0x00000000       0x44 build/default/production/_ext/810051186/drv_ethphy.o
 .text.DRV_ETHPHY_VersionGet
                0x00000000        0xc build/default/production/_ext/810051186/drv_ethphy.o
 .text.DRV_ETHPHY_VersionStrGet
                0x00000000        0xc build/default/production/_ext/810051186/drv_ethphy.o
 .text          0x00000000        0x0 build/default/production/_ext/810051186/drv_extphy_smsc8740.o
 .data          0x00000000        0x0 build/default/production/_ext/810051186/drv_extphy_smsc8740.o
 .bss           0x00000000        0x0 build/default/production/_ext/810051186/drv_extphy_smsc8740.o
 .reginfo       0x00000000       0x18 build/default/production/_ext/810051186/drv_extphy_smsc8740.o
 .text          0x00000000        0x0 build/default/production/_ext/304478105/drv_tmr.o
 .data          0x00000000        0x0 build/default/production/_ext/304478105/drv_tmr.o
 .reginfo       0x00000000       0x18 build/default/production/_ext/304478105/drv_tmr.o
 .text._DRV_TMR_ClientClear
                0x00000000       0x20 build/default/production/_ext/304478105/drv_tmr.o
 .text.DRV_TMR_Deinitialize
                0x00000000       0x5c build/default/production/_ext/304478105/drv_tmr.o
 .text.DRV_TMR_Status
                0x00000000       0x2c build/default/production/_ext/304478105/drv_tmr.o
 .text.DRV_TMR_Close
                0x00000000       0x48 build/default/production/_ext/304478105/drv_tmr.o
 .text.DRV_TMR_ClientStatus
                0x00000000       0x3c build/default/production/_ext/304478105/drv_tmr.o
 .text.DRV_TMR_CounterValue16BitSet
                0x00000000      0x1cc build/default/production/_ext/304478105/drv_tmr.o
 .text.DRV_TMR_CounterValue32BitSet
                0x00000000      0x1b0 build/default/production/_ext/304478105/drv_tmr.o
 .text.DRV_TMR_CounterValueSet
                0x00000000      0x344 build/default/production/_ext/304478105/drv_tmr.o
 .text.DRV_TMR_CounterValue16BitGet
                0x00000000       0xcc build/default/production/_ext/304478105/drv_tmr.o
 .text.DRV_TMR_CounterValue32BitGet
                0x00000000       0x8c build/default/production/_ext/304478105/drv_tmr.o
 .text.DRV_TMR_CounterValueGet
                0x00000000      0x11c build/default/production/_ext/304478105/drv_tmr.o
 .text.DRV_TMR_CounterClear
                0x00000000      0x10c build/default/production/_ext/304478105/drv_tmr.o
 .text.DRV_TMR_Alarm32BitRegister
                0x00000000      0x1e4 build/default/production/_ext/304478105/drv_tmr.o
 .text.DRV_TMR_AlarmRegister
                0x00000000      0x2c4 build/default/production/_ext/304478105/drv_tmr.o
 .text.DRV_TMR_AlarmDisable
                0x00000000       0x48 build/default/production/_ext/304478105/drv_tmr.o
 .text.DRV_TMR_AlarmEnable
                0x00000000       0x68 build/default/production/_ext/304478105/drv_tmr.o
 .text.DRV_TMR_AlarmPeriod16BitSet
                0x00000000      0x108 build/default/production/_ext/304478105/drv_tmr.o
 .text.DRV_TMR_AlarmPeriod32BitSet
                0x00000000      0x174 build/default/production/_ext/304478105/drv_tmr.o
 .text.DRV_TMR_AlarmPeriodSet
                0x00000000      0x200 build/default/production/_ext/304478105/drv_tmr.o
 .text.DRV_TMR_AlarmPeriod16BitGet
                0x00000000       0x3c build/default/production/_ext/304478105/drv_tmr.o
 .text.DRV_TMR_AlarmPeriod32BitGet
                0x00000000       0x3c build/default/production/_ext/304478105/drv_tmr.o
 .text.DRV_TMR_AlarmPeriodGet
                0x00000000       0x30 build/default/production/_ext/304478105/drv_tmr.o
 .text.DRV_TMR_Alarm16BitDeregister
                0x00000000       0x60 build/default/production/_ext/304478105/drv_tmr.o
 .text.DRV_TMR_Alarm32BitDeregister
                0x00000000       0x60 build/default/production/_ext/304478105/drv_tmr.o
 .text.DRV_TMR_AlarmDeregister
                0x00000000       0x4c build/default/production/_ext/304478105/drv_tmr.o
 .text.DRV_TMR_Stop
                0x00000000       0x80 build/default/production/_ext/304478105/drv_tmr.o
 .text.DRV_TMR_AlarmHasElapsed
                0x00000000       0x30 build/default/production/_ext/304478105/drv_tmr.o
 .text.DRV_TMR_OperationModeGet
                0x00000000       0x30 build/default/production/_ext/304478105/drv_tmr.o
 .text.DRV_TMR_DividerRangeGet
                0x00000000       0x68 build/default/production/_ext/304478105/drv_tmr.o
 .text.DRV_TMR_GateModeSet
                0x00000000      0x110 build/default/production/_ext/304478105/drv_tmr.o
 .text.DRV_TMR_GateModeClear
                0x00000000      0x110 build/default/production/_ext/304478105/drv_tmr.o
 .text.DRV_TMR_ClockSet
                0x00000000       0xe8 build/default/production/_ext/304478105/drv_tmr.o
 .text.DRV_TMR_PrescalerGet
                0x00000000      0x218 build/default/production/_ext/304478105/drv_tmr.o
 .text.DRV_TMR_VersionGet
                0x00000000        0x8 build/default/production/_ext/304478105/drv_tmr.o
 .text.DRV_TMR_VersionStrGet
                0x00000000        0xc build/default/production/_ext/304478105/drv_tmr.o
 .text          0x00000000        0x0 build/default/production/_ext/335806368/sys_devcon.o
 .data          0x00000000        0x0 build/default/production/_ext/335806368/sys_devcon.o
 .bss           0x00000000        0x0 build/default/production/_ext/335806368/sys_devcon.o
 .reginfo       0x00000000       0x18 build/default/production/_ext/335806368/sys_devcon.o
 .text.SYS_DEVCON_Reinitialize
                0x00000000       0x10 build/default/production/_ext/335806368/sys_devcon.o
 .text.SYS_DEVCON_Deinitialize
                0x00000000        0x8 build/default/production/_ext/335806368/sys_devcon.o
 .text.SYS_DEVCON_Status
                0x00000000        0x8 build/default/production/_ext/335806368/sys_devcon.o
 .text.SYS_DEVCON_JTAGEnable
                0x00000000       0x18 build/default/production/_ext/335806368/sys_devcon.o
 .text.SYS_DEVCON_TraceEnable
                0x00000000       0x14 build/default/production/_ext/335806368/sys_devcon.o
 .text.SYS_DEVCON_TraceDisable
                0x00000000       0x14 build/default/production/_ext/335806368/sys_devcon.o
 .text.SYS_DEVCON_PowerModeEnter
                0x00000000       0x54 build/default/production/_ext/335806368/sys_devcon.o
 .text          0x00000000        0x0 build/default/production/_ext/335806368/sys_devcon_pic32mx.o
 .data          0x00000000        0x0 build/default/production/_ext/335806368/sys_devcon_pic32mx.o
 .bss           0x00000000        0x0 build/default/production/_ext/335806368/sys_devcon_pic32mx.o
 .reginfo       0x00000000       0x18 build/default/production/_ext/335806368/sys_devcon_pic32mx.o
 .text          0x00000000        0x0 build/default/production/_ext/1055666758/sys_int_pic32.o
 .data          0x00000000        0x0 build/default/production/_ext/1055666758/sys_int_pic32.o
 .bss           0x00000000        0x0 build/default/production/_ext/1055666758/sys_int_pic32.o
 .reginfo       0x00000000       0x18 build/default/production/_ext/1055666758/sys_int_pic32.o
 .text.SYS_INT_Disable
                0x00000000       0x14 build/default/production/_ext/1055666758/sys_int_pic32.o
 .text.SYS_INT_ExternalInterruptTriggerSet
                0x00000000       0x2c build/default/production/_ext/1055666758/sys_int_pic32.o
 .text          0x00000000        0x0 build/default/production/_ext/1237536663/sys_ports.o
 .data          0x00000000        0x0 build/default/production/_ext/1237536663/sys_ports.o
 .bss           0x00000000        0x0 build/default/production/_ext/1237536663/sys_ports.o
 .reginfo       0x00000000       0x18 build/default/production/_ext/1237536663/sys_ports.o
 .text.SYS_PORTS_Read
                0x00000000       0x30 build/default/production/_ext/1237536663/sys_ports.o
 .text.SYS_PORTS_Write
                0x00000000       0x2c build/default/production/_ext/1237536663/sys_ports.o
 .text.SYS_PORTS_Set
                0x00000000       0x38 build/default/production/_ext/1237536663/sys_ports.o
 .text.SYS_PORTS_Clear
                0x00000000       0x34 build/default/production/_ext/1237536663/sys_ports.o
 .text.SYS_PORTS_DirectionSelect
                0x00000000       0x6c build/default/production/_ext/1237536663/sys_ports.o
 .text.SYS_PORTS_DirectionGet
                0x00000000       0x38 build/default/production/_ext/1237536663/sys_ports.o
 .text.SYS_PORTS_Toggle
                0x00000000       0x34 build/default/production/_ext/1237536663/sys_ports.o
 .text.SYS_PORTS_OpenDrainEnable
                0x00000000       0x34 build/default/production/_ext/1237536663/sys_ports.o
 .text.SYS_PORTS_OpenDrainDisable
                0x00000000       0x34 build/default/production/_ext/1237536663/sys_ports.o
 .text.SYS_PORTS_ChangeNotificationGlobalEnable
                0x00000000       0x18 build/default/production/_ext/1237536663/sys_ports.o
 .text.SYS_PORTS_GlobalChangeNotificationDisable
                0x00000000       0x18 build/default/production/_ext/1237536663/sys_ports.o
 .text.SYS_PORTS_ChangeNotificationEnable
                0x00000000       0x6c build/default/production/_ext/1237536663/sys_ports.o
 .text.SYS_PORTS_ChangeNotificationDisable
                0x00000000       0x1c build/default/production/_ext/1237536663/sys_ports.o
 .text.SYS_PORTS_ChangeNotificationInIdleModeEnable
                0x00000000       0x18 build/default/production/_ext/1237536663/sys_ports.o
 .text.SYS_PORTS_ChangeNotificationInIdleModeDisable
                0x00000000       0x18 build/default/production/_ext/1237536663/sys_ports.o
 .text.SYS_PORTS_ChangeNotificationPullUpEnable
                0x00000000       0x1c build/default/production/_ext/1237536663/sys_ports.o
 .text.SYS_PORTS_ChangeNotificationPullUpDisable
                0x00000000       0x1c build/default/production/_ext/1237536663/sys_ports.o
 .text.SYS_PORTS_PinModeSelect
                0x00000000       0x30 build/default/production/_ext/1237536663/sys_ports.o
 .text.SYS_PORTS_PinWrite
                0x00000000       0x50 build/default/production/_ext/1237536663/sys_ports.o
 .text.SYS_PORTS_PinRead
                0x00000000       0x44 build/default/production/_ext/1237536663/sys_ports.o
 .text.SYS_PORTS_PinToggle
                0x00000000       0x38 build/default/production/_ext/1237536663/sys_ports.o
 .text.SYS_PORTS_PinSet
                0x00000000       0x38 build/default/production/_ext/1237536663/sys_ports.o
 .text.SYS_PORTS_PinClear
                0x00000000       0x38 build/default/production/_ext/1237536663/sys_ports.o
 .text.SYS_PORTS_PinDirectionSelect
                0x00000000       0x78 build/default/production/_ext/1237536663/sys_ports.o
 .text.SYS_PORTS_PinOpenDrainEnable
                0x00000000       0x38 build/default/production/_ext/1237536663/sys_ports.o
 .text.SYS_PORTS_PinOpenDrainDisable
                0x00000000       0x38 build/default/production/_ext/1237536663/sys_ports.o
 .text.SYS_PORTS_RemapInput
                0x00000000       0x28 build/default/production/_ext/1237536663/sys_ports.o
 .text.SYS_PORTS_RemapOutput
                0x00000000       0x28 build/default/production/_ext/1237536663/sys_ports.o
 .text          0x00000000        0x0 build/default/production/_ext/323145514/sys_random.o
 .data          0x00000000        0x0 build/default/production/_ext/323145514/sys_random.o
 .reginfo       0x00000000       0x18 build/default/production/_ext/323145514/sys_random.o
 .text.SYS_RANDOM_Deinitialize
                0x00000000        0xc build/default/production/_ext/323145514/sys_random.o
 .text.SYS_RANDOM_PseudoSeedSet
                0x00000000       0x1c build/default/production/_ext/323145514/sys_random.o
 .text.SYS_RANDOM_CryptoSeedSet
                0x00000000        0x8 build/default/production/_ext/323145514/sys_random.o
 .text.SYS_RANDOM_CryptoSeedSizeGet
                0x00000000       0x24 build/default/production/_ext/323145514/sys_random.o
 .text.SYS_RANDOM_CryptoGet
                0x00000000       0x2c build/default/production/_ext/323145514/sys_random.o
 .text.SYS_RANDOM_CryptoBlockGet
                0x00000000       0x38 build/default/production/_ext/323145514/sys_random.o
 .text.SYS_RANDOM_CryptoByteGet
                0x00000000       0x28 build/default/production/_ext/323145514/sys_random.o
 .text.SYS_RANDOM_CryptoEntropyAdd
                0x00000000        0x8 build/default/production/_ext/323145514/sys_random.o
 .text          0x00000000        0x0 build/default/production/_ext/346722522/sys_reset.o
 .data          0x00000000        0x0 build/default/production/_ext/346722522/sys_reset.o
 .bss           0x00000000        0x0 build/default/production/_ext/346722522/sys_reset.o
 .reginfo       0x00000000       0x18 build/default/production/_ext/346722522/sys_reset.o
 .text          0x00000000        0x0 build/default/production/_ext/2097170832/sys_tmr.o
 .data          0x00000000        0x0 build/default/production/_ext/2097170832/sys_tmr.o
 .reginfo       0x00000000       0x18 build/default/production/_ext/2097170832/sys_tmr.o
 .text.SYS_TMR_Deinitialize
                0x00000000       0xc8 build/default/production/_ext/2097170832/sys_tmr.o
 .text.SYS_TMR_Status
                0x00000000        0xc build/default/production/_ext/2097170832/sys_tmr.o
 .text.SYS_TMR_ObjectCreate
                0x00000000       0x1c build/default/production/_ext/2097170832/sys_tmr.o
 .text.SYS_TMR_ObjectReload
                0x00000000       0xb8 build/default/production/_ext/2097170832/sys_tmr.o
 .text.SYS_TMR_ObjectCountGet
                0x00000000       0xe4 build/default/production/_ext/2097170832/sys_tmr.o
 .text.SYS_TMR_CallbackSingle
                0x00000000       0x1c build/default/production/_ext/2097170832/sys_tmr.o
 .text.SYS_TMR_DelayMS
                0x00000000       0x24 build/default/production/_ext/2097170832/sys_tmr.o
 .text.SYS_TMR_DelayStatusGet
                0x00000000       0x20 build/default/production/_ext/2097170832/sys_tmr.o
 .text.SYS_TMR_SystemCountFrequencyGet
                0x00000000       0x24 build/default/production/_ext/2097170832/sys_tmr.o
 .text.SYS_TMR_SystemCountGet
                0x00000000       0xf0 build/default/production/_ext/2097170832/sys_tmr.o
 .text          0x00000000        0x0 build/default/production/_ext/1144052859/tcp.o
 .data          0x00000000        0x0 build/default/production/_ext/1144052859/tcp.o
 .bss           0x00000000        0x0 build/default/production/_ext/1144052859/tcp.o
 .reginfo       0x00000000       0x18 build/default/production/_ext/1144052859/tcp.o
 .text._TcpSocketChk
                0x00000000       0x2c build/default/production/_ext/1144052859/tcp.o
 .text._TCPIsGetReady
                0x00000000       0x3c build/default/production/_ext/1144052859/tcp.o
 .text._TCPGetRxFIFOFree
                0x00000000       0x38 build/default/production/_ext/1144052859/tcp.o
 .text._TCP_PortIsAvailable
                0x00000000       0x54 build/default/production/_ext/1144052859/tcp.o
 .text._TCP_ClientIPV4RemoteHash
                0x00000000       0x24 build/default/production/_ext/1144052859/tcp.o
 .text._TCP_EphemeralPortAllocate
                0x00000000       0x88 build/default/production/_ext/1144052859/tcp.o
 .text._TCPIsPutReady
                0x00000000       0xa4 build/default/production/_ext/1144052859/tcp.o
 .text._TCPSendWinIncUpdate
                0x00000000       0x98 build/default/production/_ext/1144052859/tcp.o
 .text._TcpFlush
                0x00000000       0x40 build/default/production/_ext/1144052859/tcp.o
 .text._TcpClientSocketConnect
                0x00000000       0x74 build/default/production/_ext/1144052859/tcp.o
 .text._TCP_Open
                0x00000000      0x34c build/default/production/_ext/1144052859/tcp.o
 .text.TCPIP_TCP_ConnectionSetToMSS
                0x00000000       0x10 build/default/production/_ext/1144052859/tcp.o
 .text.TCPIP_TCP_ServerOpen
                0x00000000       0xe4 build/default/production/_ext/1144052859/tcp.o
 .text.TCPIP_TCP_ClientOpen
                0x00000000       0x34 build/default/production/_ext/1144052859/tcp.o
 .text.TCPIP_TCP_WasReset
                0x00000000       0x48 build/default/production/_ext/1144052859/tcp.o
 .text.TCPIP_TCP_IsConnected
                0x00000000       0x44 build/default/production/_ext/1144052859/tcp.o
 .text.TCPIP_TCP_Disconnect
                0x00000000       0x38 build/default/production/_ext/1144052859/tcp.o
 .text.TCPIP_TCP_Abort
                0x00000000       0x38 build/default/production/_ext/1144052859/tcp.o
 .text.TCPIP_TCP_Connect
                0x00000000       0x60 build/default/production/_ext/1144052859/tcp.o
 .text.TCPIP_TCP_Close
                0x00000000       0x68 build/default/production/_ext/1144052859/tcp.o
 .text.TCPIP_TCP_SocketInfoGet
                0x00000000       0x70 build/default/production/_ext/1144052859/tcp.o
 .text.TCPIP_TCP_SocketsNumberGet
                0x00000000        0x8 build/default/production/_ext/1144052859/tcp.o
 .text.TCPIP_TCP_Flush
                0x00000000       0x30 build/default/production/_ext/1144052859/tcp.o
 .text.TCPIP_TCP_PutIsReady
                0x00000000       0x30 build/default/production/_ext/1144052859/tcp.o
 .text.TCPIP_TCP_ArrayPut
                0x00000000      0x260 build/default/production/_ext/1144052859/tcp.o
 .text.TCPIP_TCP_Put
                0x00000000       0x28 build/default/production/_ext/1144052859/tcp.o
 .text.TCPIP_TCP_StringPut
                0x00000000       0x48 build/default/production/_ext/1144052859/tcp.o
 .text.TCPIP_TCP_FifoTxFullGet
                0x00000000       0x50 build/default/production/_ext/1144052859/tcp.o
 .text.TCPIP_TCP_Discard
                0x00000000       0x5c build/default/production/_ext/1144052859/tcp.o
 .text.TCPIP_TCP_GetIsReady
                0x00000000       0x30 build/default/production/_ext/1144052859/tcp.o
 .text.TCPIP_TCP_ArrayGet
                0x00000000      0x174 build/default/production/_ext/1144052859/tcp.o
 .text.TCPIP_TCP_Get
                0x00000000       0x20 build/default/production/_ext/1144052859/tcp.o
 .text.TCPIP_TCP_FifoRxFreeGet
                0x00000000       0x30 build/default/production/_ext/1144052859/tcp.o
 .text.TCPIP_TCP_ArrayPeek
                0x00000000       0xf4 build/default/production/_ext/1144052859/tcp.o
 .text.TCPIP_TCP_Peek
                0x00000000       0x2c build/default/production/_ext/1144052859/tcp.o
 .text.TCPIP_TCP_ArrayFind
                0x00000000      0x36c build/default/production/_ext/1144052859/tcp.o
 .text.TCPIP_TCP_Find
                0x00000000       0x40 build/default/production/_ext/1144052859/tcp.o
 .text.TCPIP_TCP_FifoSizeAdjust
                0x00000000      0x4a0 build/default/production/_ext/1144052859/tcp.o
 .text.TCPIP_TCP_SocketNetSet
                0x00000000       0x54 build/default/production/_ext/1144052859/tcp.o
 .text.TCPIP_TCP_SocketNetGet
                0x00000000       0x2c build/default/production/_ext/1144052859/tcp.o
 .text.TCPIP_TCP_Bind
                0x00000000      0x128 build/default/production/_ext/1144052859/tcp.o
 .text.TCPIP_TCP_OptionsSet
                0x00000000      0x180 build/default/production/_ext/1144052859/tcp.o
 .text.TCPIP_TCP_OptionsGet
                0x00000000      0x14c build/default/production/_ext/1144052859/tcp.o
 .text.TCPIP_TCP_DestinationIPAddressSet
                0x00000000       0x78 build/default/production/_ext/1144052859/tcp.o
 .text.TCPIP_TCP_RemoteBind
                0x00000000       0x8c build/default/production/_ext/1144052859/tcp.o
 .text.TCPIP_TCP_SourceIPAddressSet
                0x00000000       0x4c build/default/production/_ext/1144052859/tcp.o
 .text          0x00000000        0x0 build/default/production/_ext/1144052859/udp.o
 .data          0x00000000        0x0 build/default/production/_ext/1144052859/udp.o
 .reginfo       0x00000000       0x18 build/default/production/_ext/1144052859/udp.o
 .text.TCPIP_UDP_Disconnect
                0x00000000       0xe0 build/default/production/_ext/1144052859/udp.o
 .text.TCPIP_UDP_StringPut
                0x00000000       0x64 build/default/production/_ext/1144052859/udp.o
 .text.TCPIP_UDP_SocketNetGet
                0x00000000       0x2c build/default/production/_ext/1144052859/udp.o
 .text.TCPIP_UDP_OptionsGet
                0x00000000      0x140 build/default/production/_ext/1144052859/udp.o
 .text.TCPIP_UDP_SetSplitPayload
                0x00000000       0xb0 build/default/production/_ext/1144052859/udp.o
 .text          0x00000000        0x0 build/default/production/_ext/1144052859/arp.o
 .data          0x00000000        0x0 build/default/production/_ext/1144052859/arp.o
 .reginfo       0x00000000       0x18 build/default/production/_ext/1144052859/arp.o
 .text.TCPIP_ARP_Resolve
                0x00000000       0x70 build/default/production/_ext/1144052859/arp.o
 .text.TCPIP_ARP_EntrySet
                0x00000000      0x158 build/default/production/_ext/1144052859/arp.o
 .text.TCPIP_ARP_EntryRemoveAll
                0x00000000       0x58 build/default/production/_ext/1144052859/arp.o
 .text.TCPIP_ARP_CacheThresholdSet
                0x00000000       0x94 build/default/production/_ext/1144052859/arp.o
 .text          0x00000000        0x0 build/default/production/_ext/1144052859/dhcp.o
 .data          0x00000000        0x0 build/default/production/_ext/1144052859/dhcp.o
 .reginfo       0x00000000       0x18 build/default/production/_ext/1144052859/dhcp.o
 .text.TCPIP_DHCP_IsBound
                0x00000000       0x68 build/default/production/_ext/1144052859/dhcp.o
 .text.TCPIP_DHCP_IsServerDetected
                0x00000000       0x68 build/default/production/_ext/1144052859/dhcp.o
 .text.TCPIP_DHCP_RequestTimeoutSet
                0x00000000       0x44 build/default/production/_ext/1144052859/dhcp.o
 .text          0x00000000        0x0 build/default/production/_ext/1144052859/dns.o
 .data          0x00000000        0x0 build/default/production/_ext/1144052859/dns.o
 .reginfo       0x00000000       0x18 build/default/production/_ext/1144052859/dns.o
 .text.TCPIP_DNS_HandlerRegister
                0x00000000       0x7c build/default/production/_ext/1144052859/dns.o
 .text.TCPIP_DNS_HandlerDeRegister
                0x00000000       0x40 build/default/production/_ext/1144052859/dns.o
 .text          0x00000000        0x0 build/default/production/_ext/1144052859/icmp.o
 .data          0x00000000        0x0 build/default/production/_ext/1144052859/icmp.o
 .reginfo       0x00000000       0x18 build/default/production/_ext/1144052859/icmp.o
 .text          0x00000000        0x0 build/default/production/_ext/1144052859/nbns.o
 .data          0x00000000        0x0 build/default/production/_ext/1144052859/nbns.o
 .bss           0x00000000        0x0 build/default/production/_ext/1144052859/nbns.o
 .reginfo       0x00000000       0x18 build/default/production/_ext/1144052859/nbns.o
 .text          0x00000000        0x0 build/default/production/_ext/1144052859/zero_conf_helper.o
 .data          0x00000000        0x0 build/default/production/_ext/1144052859/zero_conf_helper.o
 .bss           0x00000000        0x0 build/default/production/_ext/1144052859/zero_conf_helper.o
 .reginfo       0x00000000       0x18 build/default/production/_ext/1144052859/zero_conf_helper.o
 .text          0x00000000        0x0 build/default/production/_ext/1144052859/zero_conf_link_local.o
 .data          0x00000000        0x0 build/default/production/_ext/1144052859/zero_conf_link_local.o
 .bss           0x00000000        0x0 build/default/production/_ext/1144052859/zero_conf_link_local.o
 .reginfo       0x00000000       0x18 build/default/production/_ext/1144052859/zero_conf_link_local.o
 .text          0x00000000        0x0 build/default/production/_ext/1144052859/tcpip_announce.o
 .data          0x00000000        0x0 build/default/production/_ext/1144052859/tcpip_announce.o
 .bss           0x00000000        0x0 build/default/production/_ext/1144052859/tcpip_announce.o
 .reginfo       0x00000000       0x18 build/default/production/_ext/1144052859/tcpip_announce.o
 .text          0x00000000        0x0 build/default/production/_ext/1144052859/tcpip_commands.o
 .data          0x00000000        0x0 build/default/production/_ext/1144052859/tcpip_commands.o
 .reginfo       0x00000000       0x18 build/default/production/_ext/1144052859/tcpip_commands.o
 .text          0x00000000        0x0 build/default/production/_ext/1997815295/big_int.o
 .data          0x00000000        0x0 build/default/production/_ext/1997815295/big_int.o
 .bss           0x00000000        0x0 build/default/production/_ext/1997815295/big_int.o
 .reginfo       0x00000000       0x18 build/default/production/_ext/1997815295/big_int.o
 .text.BigIntMSB
                0x00000000       0x74 build/default/production/_ext/1997815295/big_int.o
 .text.BigInt   0x00000000       0x24 build/default/production/_ext/1997815295/big_int.o
 .text.BigIntZero
                0x00000000       0x44 build/default/production/_ext/1997815295/big_int.o
 .text.BigIntCompare
                0x00000000       0xc8 build/default/production/_ext/1997815295/big_int.o
 .text.BigIntMagnitude
                0x00000000       0x30 build/default/production/_ext/1997815295/big_int.o
 .text.BigIntMagnitudeDifference
                0x00000000       0x3c build/default/production/_ext/1997815295/big_int.o
 .text.BigIntMod
                0x00000000      0x174 build/default/production/_ext/1997815295/big_int.o
 .text.BigIntMultiply
                0x00000000       0x78 build/default/production/_ext/1997815295/big_int.o
 .text.BigIntSquare
                0x00000000       0x58 build/default/production/_ext/1997815295/big_int.o
 .text.BigIntAdd
                0x00000000       0x4c build/default/production/_ext/1997815295/big_int.o
 .text.BigIntSubtract
                0x00000000       0x4c build/default/production/_ext/1997815295/big_int.o
 .text.BigIntCopy
                0x00000000       0x48 build/default/production/_ext/1997815295/big_int.o
 .text.BigIntSwapEndianness
                0x00000000       0x44 build/default/production/_ext/1997815295/big_int.o
 .text          0x00000000      0x400 build/default/production/_ext/1997815295/big_int_helper_c32.o
 .data          0x00000000        0x0 build/default/production/_ext/1997815295/big_int_helper_c32.o
 .bss           0x00000000       0x20 build/default/production/_ext/1997815295/big_int_helper_c32.o
 .reginfo       0x00000000       0x18 build/default/production/_ext/1997815295/big_int_helper_c32.o
 .debug_line    0x00000000      0x180 build/default/production/_ext/1997815295/big_int_helper_c32.o
 .debug_info    0x00000000       0xdc build/default/production/_ext/1997815295/big_int_helper_c32.o
 .debug_abbrev  0x00000000       0x14 build/default/production/_ext/1997815295/big_int_helper_c32.o
 .debug_aranges
                0x00000000       0x20 build/default/production/_ext/1997815295/big_int_helper_c32.o
 .text          0x00000000        0x0 build/default/production/_ext/1997815295/hashes.o
 .data          0x00000000        0x0 build/default/production/_ext/1997815295/hashes.o
 .bss           0x00000000        0x0 build/default/production/_ext/1997815295/hashes.o
 .reginfo       0x00000000       0x18 build/default/production/_ext/1997815295/hashes.o
 .text.MD5HashBlock
                0x00000000      0x17c build/default/production/_ext/1997815295/hashes.o
 .text.SHA1HashBlock
                0x00000000      0x28c build/default/production/_ext/1997815295/hashes.o
 .text.MD5Initialize
                0x00000000       0x3c build/default/production/_ext/1997815295/hashes.o
 .text.MD5AddData
                0x00000000       0xd8 build/default/production/_ext/1997815295/hashes.o
 .text.MD5Calculate
                0x00000000      0x1f4 build/default/production/_ext/1997815295/hashes.o
 .text.SHA1Initialize
                0x00000000       0x4c build/default/production/_ext/1997815295/hashes.o
 .text.SHA1AddData
                0x00000000       0xe0 build/default/production/_ext/1997815295/hashes.o
 .text.HashAddData
                0x00000000       0x44 build/default/production/_ext/1997815295/hashes.o
 .text.SHA1Calculate
                0x00000000      0x278 build/default/production/_ext/1997815295/hashes.o
 .rodata        0x00000000      0x140 build/default/production/_ext/1997815295/hashes.o
 COMMON         0x00000000       0x40 build/default/production/_ext/1997815295/hashes.o
 .text          0x00000000        0x0 build/default/production/_ext/1997815295/helpers.o
 .data          0x00000000        0x0 build/default/production/_ext/1997815295/helpers.o
 .bss           0x00000000        0x0 build/default/production/_ext/1997815295/helpers.o
 .reginfo       0x00000000       0x18 build/default/production/_ext/1997815295/helpers.o
 .text.uitoa    0x00000000       0x94 build/default/production/_ext/1997815295/helpers.o
 .text.strnchr  0x00000000       0x40 build/default/production/_ext/1997815295/helpers.o
 .text.strncpy_m
                0x00000000       0xe0 build/default/production/_ext/1997815295/helpers.o
 .text.stricmppgm2ram
                0x00000000       0xa4 build/default/production/_ext/1997815295/helpers.o
 .text          0x00000000        0x0 build/default/production/_ext/1997815295/lfsr.o
 .data          0x00000000        0x0 build/default/production/_ext/1997815295/lfsr.o
 .bss           0x00000000        0x0 build/default/production/_ext/1997815295/lfsr.o
 .reginfo       0x00000000       0x18 build/default/production/_ext/1997815295/lfsr.o
 .text.LFSRSeedRand
                0x00000000       0x4c build/default/production/_ext/1997815295/lfsr.o
 .text          0x00000000        0x0 build/default/production/_ext/1144052859/hash_fnv.o
 .data          0x00000000        0x0 build/default/production/_ext/1144052859/hash_fnv.o
 .bss           0x00000000        0x0 build/default/production/_ext/1144052859/hash_fnv.o
 .reginfo       0x00000000       0x18 build/default/production/_ext/1144052859/hash_fnv.o
 .text.fnv_32a_hash
                0x00000000       0x60 build/default/production/_ext/1144052859/hash_fnv.o
 .text          0x00000000        0x0 build/default/production/_ext/1144052859/oahash.o
 .data          0x00000000        0x0 build/default/production/_ext/1144052859/oahash.o
 .bss           0x00000000        0x0 build/default/production/_ext/1144052859/oahash.o
 .reginfo       0x00000000       0x18 build/default/production/_ext/1144052859/oahash.o
 .text          0x00000000        0x0 build/default/production/_ext/1144052859/tcpip_heap_alloc.o
 .data          0x00000000        0x0 build/default/production/_ext/1144052859/tcpip_heap_alloc.o
 .bss           0x00000000        0x0 build/default/production/_ext/1144052859/tcpip_heap_alloc.o
 .reginfo       0x00000000       0x18 build/default/production/_ext/1144052859/tcpip_heap_alloc.o
 .text          0x00000000        0x0 build/default/production/_ext/1144052859/tcpip_helpers.o
 .data          0x00000000        0x0 build/default/production/_ext/1144052859/tcpip_helpers.o
 .bss           0x00000000        0x0 build/default/production/_ext/1144052859/tcpip_helpers.o
 .reginfo       0x00000000       0x18 build/default/production/_ext/1144052859/tcpip_helpers.o
 .text.TCPIP_Helper_IsPrivateAddress
                0x00000000       0x50 build/default/production/_ext/1144052859/tcpip_helpers.o
 .text.TCPIP_Helper_FindCommonPrefix
                0x00000000       0xa0 build/default/production/_ext/1144052859/tcpip_helpers.o
 .text.TCPIP_Helper_SingleListHeadAdd
                0x00000000       0x28 build/default/production/_ext/1144052859/tcpip_helpers.o
 .text.TCPIP_Helper_SingleListMidAdd
                0x00000000       0x1c build/default/production/_ext/1144052859/tcpip_helpers.o
 .text.TCPIP_Helper_SingleListNextRemove
                0x00000000       0x54 build/default/production/_ext/1144052859/tcpip_helpers.o
 .text.TCPIP_Helper_SingleListAppend
                0x00000000       0x48 build/default/production/_ext/1144052859/tcpip_helpers.o
 .text.TCPIP_Helper_ProtectedSingleListHeadAdd
                0x00000000       0x74 build/default/production/_ext/1144052859/tcpip_helpers.o
 .text.TCPIP_Helper_ProtectedSingleListMidAdd
                0x00000000       0x74 build/default/production/_ext/1144052859/tcpip_helpers.o
 .text.TCPIP_Helper_ProtectedSingleListNextRemove
                0x00000000       0x74 build/default/production/_ext/1144052859/tcpip_helpers.o
 .text.TCPIP_Helper_ProtectedSingleListAppend
                0x00000000       0x74 build/default/production/_ext/1144052859/tcpip_helpers.o
 .text.TCPIP_Helper_DoubleListInitialize
                0x00000000       0x10 build/default/production/_ext/1144052859/tcpip_helpers.o
 .text.TCPIP_Helper_DoubleListHeadAdd
                0x00000000       0x40 build/default/production/_ext/1144052859/tcpip_helpers.o
 .text.TCPIP_Helper_DoubleListTailAdd
                0x00000000       0x44 build/default/production/_ext/1144052859/tcpip_helpers.o
 .text.TCPIP_Helper_DoubleListMidAdd
                0x00000000       0x28 build/default/production/_ext/1144052859/tcpip_helpers.o
 .text.TCPIP_Helper_DoubleListHeadRemove
                0x00000000       0x40 build/default/production/_ext/1144052859/tcpip_helpers.o
 .text.TCPIP_Helper_DoubleListTailRemove
                0x00000000       0x40 build/default/production/_ext/1144052859/tcpip_helpers.o
 .text.TCPIP_Helper_DoubleListMidRemove
                0x00000000       0x28 build/default/production/_ext/1144052859/tcpip_helpers.o
 .text.TCPIP_Helper_DoubleListNodeRemove
                0x00000000       0x50 build/default/production/_ext/1144052859/tcpip_helpers.o
 .text.TCPIP_Helper_ProtectedDoubleListInitialize
                0x00000000       0x40 build/default/production/_ext/1144052859/tcpip_helpers.o
 .text.TCPIP_Helper_ProtectedDoubleListDeinitialize
                0x00000000       0x64 build/default/production/_ext/1144052859/tcpip_helpers.o
 .text.TCPIP_Helper_ProtectedDoubleListHeadAdd
                0x00000000       0x74 build/default/production/_ext/1144052859/tcpip_helpers.o
 .text.TCPIP_Helper_ProtectedDoubleListTailAdd
                0x00000000       0x74 build/default/production/_ext/1144052859/tcpip_helpers.o
 .text.TCPIP_Helper_ProtectedDoubleListMidAdd
                0x00000000       0x74 build/default/production/_ext/1144052859/tcpip_helpers.o
 .text.TCPIP_Helper_ProtectedDoubleListHeadRemove
                0x00000000       0x74 build/default/production/_ext/1144052859/tcpip_helpers.o
 .text.TCPIP_Helper_ProtectedDoubleListTailRemove
                0x00000000       0x74 build/default/production/_ext/1144052859/tcpip_helpers.o
 .text.TCPIP_Helper_ProtectedDoubleListMidRemove
                0x00000000       0x74 build/default/production/_ext/1144052859/tcpip_helpers.o
 .text.TCPIP_Helper_ProtectedDoubleListNodeRemove
                0x00000000       0x74 build/default/production/_ext/1144052859/tcpip_helpers.o
 .text.TCPIP_Helper_ProtectedDoubleListRemoveAll
                0x00000000       0x88 build/default/production/_ext/1144052859/tcpip_helpers.o
 .text.TCPIP_Helper_ProtectedDoubleListLock
                0x00000000       0x38 build/default/production/_ext/1144052859/tcpip_helpers.o
 .text.TCPIP_Helper_ProtectedDoubleListUnlock
                0x00000000       0x24 build/default/production/_ext/1144052859/tcpip_helpers.o
 .data          0x00000000        0x0 build/default/production/_ext/1144052859/tcpip_helper_c32.o
 .bss           0x00000000        0x0 build/default/production/_ext/1144052859/tcpip_helper_c32.o
 .reginfo       0x00000000       0x18 build/default/production/_ext/1144052859/tcpip_helper_c32.o
 .text          0x00000000        0x0 build/default/production/_ext/1144052859/tcpip_manager.o
 .data          0x00000000        0x0 build/default/production/_ext/1144052859/tcpip_manager.o
 .reginfo       0x00000000       0x18 build/default/production/_ext/1144052859/tcpip_manager.o
 .text.TCPIP_STACK_Status
                0x00000000       0x20 build/default/production/_ext/1144052859/tcpip_manager.o
 .text.TCPIP_STACK_MacToNet
                0x00000000       0x4c build/default/production/_ext/1144052859/tcpip_manager.o
 .text.TCPIP_STACK_MacToNetIndex
                0x00000000       0x4c build/default/production/_ext/1144052859/tcpip_manager.o
 .text.TCPIP_STACK_NetAddressDnsSecond
                0x00000000       0x20 build/default/production/_ext/1144052859/tcpip_manager.o
 .text.TCPIP_STACK_SetLocalMasksType
                0x00000000       0x34 build/default/production/_ext/1144052859/tcpip_manager.o
 .text.TCPIP_STACK_SetLocalMasks
                0x00000000       0x2c build/default/production/_ext/1144052859/tcpip_manager.o
 .text.TCPIP_STACK_ModuleConfigGet
                0x00000000       0x6c build/default/production/_ext/1144052859/tcpip_manager.o
 .text.TCPIP_STACK_EventsPendingGet
                0x00000000       0x3c build/default/production/_ext/1144052859/tcpip_manager.o
 .text.TCPIP_STACK_HandlerRegister
                0x00000000       0x8c build/default/production/_ext/1144052859/tcpip_manager.o
 .text.TCPIP_STACK_HandlerDeregister
                0x00000000       0x30 build/default/production/_ext/1144052859/tcpip_manager.o
 .text.TCPIP_STACK_NetStaticIPv6AddressGet
                0x00000000        0x8 build/default/production/_ext/1144052859/tcpip_manager.o
 .text.TCPIP_STACK_NetDefaultIPv6GatewayGet
                0x00000000        0x8 build/default/production/_ext/1144052859/tcpip_manager.o
 .text.TCPIP_STACK_NetAddressDnsSecondSet
                0x00000000       0x38 build/default/production/_ext/1144052859/tcpip_manager.o
 .text.TCPIP_STACK_AddressIsOfNetUp
                0x00000000       0x44 build/default/production/_ext/1144052859/tcpip_manager.o
 .text.TCPIP_STACK_NetIsReady
                0x00000000       0x38 build/default/production/_ext/1144052859/tcpip_manager.o
 .text.TCPIP_STACK_NetMACId
                0x00000000       0x14 build/default/production/_ext/1144052859/tcpip_manager.o
 .text.TCPIP_STACK_NetMACIdGet
                0x00000000       0x34 build/default/production/_ext/1144052859/tcpip_manager.o
 .text.TCPIP_STACK_NetToMAC
                0x00000000       0x14 build/default/production/_ext/1144052859/tcpip_manager.o
 .text.TCPIP_STACK_VersionGet
                0x00000000        0xc build/default/production/_ext/1144052859/tcpip_manager.o
 .text.TCPIP_STACK_VersionStrGet
                0x00000000        0xc build/default/production/_ext/1144052859/tcpip_manager.o
 .text          0x00000000        0x0 build/default/production/_ext/1144052859/tcpip_notify.o
 .data          0x00000000        0x0 build/default/production/_ext/1144052859/tcpip_notify.o
 .bss           0x00000000        0x0 build/default/production/_ext/1144052859/tcpip_notify.o
 .reginfo       0x00000000       0x18 build/default/production/_ext/1144052859/tcpip_notify.o
 .text          0x00000000        0x0 build/default/production/_ext/1144052859/tcpip_packet.o
 .bss           0x00000000        0x0 build/default/production/_ext/1144052859/tcpip_packet.o
 .reginfo       0x00000000       0x18 build/default/production/_ext/1144052859/tcpip_packet.o
 .text.TCPIP_PKT_SegmentAlloc
                0x00000000       0xa0 build/default/production/_ext/1144052859/tcpip_packet.o
 .text.TCPIP_PKT_SegmentAppend
                0x00000000       0x28 build/default/production/_ext/1144052859/tcpip_packet.o
 .text.TCPIP_PKT_SegmentFree
                0x00000000       0x40 build/default/production/_ext/1144052859/tcpip_packet.o
 .text.TCPIP_PKT_PayloadLen
                0x00000000       0x34 build/default/production/_ext/1144052859/tcpip_packet.o
 .text.TCPIP_PKT_FlightFlagsUpdate
                0x00000000       0x70 build/default/production/_ext/1144052859/tcpip_packet.o
 .text.TCPIP_PKT_FlightFlagsUpdateAll
                0x00000000        0x8 build/default/production/_ext/1144052859/tcpip_packet.o
 .text.TCPIP_PKT_FlightTypeUpdate
                0x00000000       0x40 build/default/production/_ext/1144052859/tcpip_packet.o
 .text.TCPIP_PKT_FlightTypeUpdateAll
                0x00000000       0x20 build/default/production/_ext/1144052859/tcpip_packet.o
 .text          0x00000000        0x0 build/default/production/_ext/1829665213/system_debug.o
 .bss           0x00000000        0x0 build/default/production/_ext/1829665213/system_debug.o
 .reginfo       0x00000000       0x18 build/default/production/_ext/1829665213/system_debug.o
 .text.__sys_assert
                0x00000000       0x18 build/default/production/_ext/1829665213/system_debug.o
 .text._SYS_ASSERT
                0x00000000       0x64 build/default/production/_ext/1829665213/system_debug.o
 .text._SYS_ERROR
                0x00000000       0x6c build/default/production/_ext/1829665213/system_debug.o
 .text._SYS_ERROR_PRINT
                0x00000000       0x90 build/default/production/_ext/1829665213/system_debug.o
 .text._SYS_PRINT
                0x00000000       0x8c build/default/production/_ext/1829665213/system_debug.o
 .text._SYS_CONSOLE_GETLINE
                0x00000000       0x34 build/default/production/_ext/1829665213/system_debug.o
 .text          0x00000000        0x0 build/default/production/_ext/918699391/usart.o
 .bss           0x00000000        0x0 build/default/production/_ext/918699391/usart.o
 .reginfo       0x00000000       0x18 build/default/production/_ext/918699391/usart.o
 .text          0x00000000        0x0 build/default/production/_ext/1829665213/system_command.o
 .data          0x00000000        0x0 build/default/production/_ext/1829665213/system_command.o
 .reginfo       0x00000000       0x18 build/default/production/_ext/1829665213/system_command.o
 .text          0x00000000        0x0 build/default/production/_ext/1144052859/ipv4.o
 .data          0x00000000        0x0 build/default/production/_ext/1144052859/ipv4.o
 .reginfo       0x00000000       0x18 build/default/production/_ext/1144052859/ipv4.o
 .text          0x00000000        0x0 build/default/production/_ext/1360937237/app.o
 .data          0x00000000        0x0 build/default/production/_ext/1360937237/app.o
 .bss           0x00000000        0x0 build/default/production/_ext/1360937237/app.o
 .reginfo       0x00000000       0x18 build/default/production/_ext/1360937237/app.o
 .text          0x00000000        0x0 build/default/production/_ext/639803181/sys_clk_static.o
 .data          0x00000000        0x0 build/default/production/_ext/639803181/sys_clk_static.o
 .bss           0x00000000        0x0 build/default/production/_ext/639803181/sys_clk_static.o
 .reginfo       0x00000000       0x18 build/default/production/_ext/639803181/sys_clk_static.o
 .text.SYS_CLK_ReferenceClockFrequencyGet
                0x00000000        0x8 build/default/production/_ext/639803181/sys_clk_static.o
 .text          0x00000000        0x0 build/default/production/_ext/822048611/sys_ports_static.o
 .data          0x00000000        0x0 build/default/production/_ext/822048611/sys_ports_static.o
 .bss           0x00000000        0x0 build/default/production/_ext/822048611/sys_ports_static.o
 .reginfo       0x00000000       0x18 build/default/production/_ext/822048611/sys_ports_static.o
 .text          0x00000000        0x0 build/default/production/_ext/1688732426/system_init.o
 .data          0x00000000        0x0 build/default/production/_ext/1688732426/system_init.o
 .bss           0x00000000        0x0 build/default/production/_ext/1688732426/system_init.o
 .reginfo       0x00000000       0x18 build/default/production/_ext/1688732426/system_init.o
 .text          0x00000000        0x0 build/default/production/_ext/1688732426/system_interrupt.o
 .data          0x00000000        0x0 build/default/production/_ext/1688732426/system_interrupt.o
 .bss           0x00000000        0x0 build/default/production/_ext/1688732426/system_interrupt.o
 .reginfo       0x00000000       0x18 build/default/production/_ext/1688732426/system_interrupt.o
 .text          0x00000000        0x0 build/default/production/_ext/1360937237/main.o
 .data          0x00000000        0x0 build/default/production/_ext/1360937237/main.o
 .bss           0x00000000        0x0 build/default/production/_ext/1360937237/main.o
 .reginfo       0x00000000       0x18 build/default/production/_ext/1360937237/main.o
 .text          0x00000000        0x0 build/default/production/_ext/1688732426/system_tasks.o
 .data          0x00000000        0x0 build/default/production/_ext/1688732426/system_tasks.o
 .bss           0x00000000        0x0 build/default/production/_ext/1688732426/system_tasks.o
 .reginfo       0x00000000       0x18 build/default/production/_ext/1688732426/system_tasks.o
 .text          0x00000000        0x0 ..\..\..\..\..\..\..\..\microchip\harmony\v1_02\bin\framework\peripheral\PIC32MX795F512L_peripherals.a(plib_eth_lib.o)
 .data          0x00000000        0x0 ..\..\..\..\..\..\..\..\microchip\harmony\v1_02\bin\framework\peripheral\PIC32MX795F512L_peripherals.a(plib_eth_lib.o)
 .bss           0x00000000        0x0 ..\..\..\..\..\..\..\..\microchip\harmony\v1_02\bin\framework\peripheral\PIC32MX795F512L_peripherals.a(plib_eth_lib.o)
 .reginfo       0x00000000       0x18 ..\..\..\..\..\..\..\..\microchip\harmony\v1_02\bin\framework\peripheral\PIC32MX795F512L_peripherals.a(plib_eth_lib.o)
 .text.PLIB_ETH_RxFiltersWrite
                0x00000000       0x28 ..\..\..\..\..\..\..\..\microchip\harmony\v1_02\bin\framework\peripheral\PIC32MX795F512L_peripherals.a(plib_eth_lib.o)
 .text.PLIB_ETH_RxFiltersPMSet
                0x00000000       0x98 ..\..\..\..\..\..\..\..\microchip\harmony\v1_02\bin\framework\peripheral\PIC32MX795F512L_peripherals.a(plib_eth_lib.o)
 .text.PLIB_ETH_RxFiltersPMClr
                0x00000000       0x20 ..\..\..\..\..\..\..\..\microchip\harmony\v1_02\bin\framework\peripheral\PIC32MX795F512L_peripherals.a(plib_eth_lib.o)
 .text.PLIB_ETH_EventsEnableWrite
                0x00000000       0x20 ..\..\..\..\..\..\..\..\microchip\harmony\v1_02\bin\framework\peripheral\PIC32MX795F512L_peripherals.a(plib_eth_lib.o)
 .text.PLIB_ETH_EventsEnableGet
                0x00000000       0x1c ..\..\..\..\..\..\..\..\microchip\harmony\v1_02\bin\framework\peripheral\PIC32MX795F512L_peripherals.a(plib_eth_lib.o)
 .text          0x00000000        0x0 c:/program files (x86)/microchip/xc32/v1.33/bin/bin/../../lib/gcc/pic32mx/4.5.2/../../../../pic32mx/lib/./proc/32MX795F512L\default_isr_vectors.o
 .data          0x00000000        0x0 c:/program files (x86)/microchip/xc32/v1.33/bin/bin/../../lib/gcc/pic32mx/4.5.2/../../../../pic32mx/lib/./proc/32MX795F512L\default_isr_vectors.o
 .bss           0x00000000        0x0 c:/program files (x86)/microchip/xc32/v1.33/bin/bin/../../lib/gcc/pic32mx/4.5.2/../../../../pic32mx/lib/./proc/32MX795F512L\default_isr_vectors.o
 .reginfo       0x00000000       0x18 c:/program files (x86)/microchip/xc32/v1.33/bin/bin/../../lib/gcc/pic32mx/4.5.2/../../../../pic32mx/lib/./proc/32MX795F512L\default_isr_vectors.o
 .discard       0x00000000      0x100 c:/program files (x86)/microchip/xc32/v1.33/bin/bin/../../lib/gcc/pic32mx/4.5.2/../../../../pic32mx/lib/./proc/32MX795F512L\default_isr_vectors.o
 .data          0x00000000        0x0 c:/program files (x86)/microchip/xc32/v1.33/bin/bin/../../lib/gcc/pic32mx/4.5.2/../../../../pic32mx/lib\pic32_software_reset.o
 .bss           0x00000000        0x0 c:/program files (x86)/microchip/xc32/v1.33/bin/bin/../../lib/gcc/pic32mx/4.5.2/../../../../pic32mx/lib\pic32_software_reset.o
 .reginfo       0x00000000       0x18 c:/program files (x86)/microchip/xc32/v1.33/bin/bin/../../lib/gcc/pic32mx/4.5.2/../../../../pic32mx/lib\pic32_software_reset.o
 .text          0x00000000        0x0 c:/program files (x86)/microchip/xc32/v1.33/bin/bin/../../lib/gcc/pic32mx/4.5.2/../../../../pic32mx/lib/./proc/32MX795F512L\processor.o
 .data          0x00000000        0x0 c:/program files (x86)/microchip/xc32/v1.33/bin/bin/../../lib/gcc/pic32mx/4.5.2/../../../../pic32mx/lib/./proc/32MX795F512L\processor.o
 .bss           0x00000000        0x0 c:/program files (x86)/microchip/xc32/v1.33/bin/bin/../../lib/gcc/pic32mx/4.5.2/../../../../pic32mx/lib/./proc/32MX795F512L\processor.o
 .reginfo       0x00000000       0x18 c:/program files (x86)/microchip/xc32/v1.33/bin/bin/../../lib/gcc/pic32mx/4.5.2/../../../../pic32mx/lib/./proc/32MX795F512L\processor.o
 .data          0x00000000        0x0 c:/program files (x86)/microchip/xc32/v1.33/bin/bin/../../lib/gcc/pic32mx/4.5.2\libgcc.a(_udivdi3.o)
 .bss           0x00000000        0x0 c:/program files (x86)/microchip/xc32/v1.33/bin/bin/../../lib/gcc/pic32mx/4.5.2\libgcc.a(_udivdi3.o)
 .reginfo       0x00000000       0x18 c:/program files (x86)/microchip/xc32/v1.33/bin/bin/../../lib/gcc/pic32mx/4.5.2\libgcc.a(_udivdi3.o)
 .data          0x00000000        0x0 c:/program files (x86)/microchip/xc32/v1.33/bin/bin/../../lib/gcc/pic32mx/4.5.2/../../../../pic32mx/lib\libpic32.a(memcmp.o)
 .bss           0x00000000        0x0 c:/program files (x86)/microchip/xc32/v1.33/bin/bin/../../lib/gcc/pic32mx/4.5.2/../../../../pic32mx/lib\libpic32.a(memcmp.o)
 .reginfo       0x00000000       0x18 c:/program files (x86)/microchip/xc32/v1.33/bin/bin/../../lib/gcc/pic32mx/4.5.2/../../../../pic32mx/lib\libpic32.a(memcmp.o)
 .data          0x00000000        0x0 c:/program files (x86)/microchip/xc32/v1.33/bin/bin/../../lib/gcc/pic32mx/4.5.2/../../../../pic32mx/lib\libpic32.a(memcpy.o)
 .bss           0x00000000        0x0 c:/program files (x86)/microchip/xc32/v1.33/bin/bin/../../lib/gcc/pic32mx/4.5.2/../../../../pic32mx/lib\libpic32.a(memcpy.o)
 .reginfo       0x00000000       0x18 c:/program files (x86)/microchip/xc32/v1.33/bin/bin/../../lib/gcc/pic32mx/4.5.2/../../../../pic32mx/lib\libpic32.a(memcpy.o)
 .data          0x00000000        0x0 c:/program files (x86)/microchip/xc32/v1.33/bin/bin/../../lib/gcc/pic32mx/4.5.2/../../../../pic32mx/lib\libpic32.a(memset.o)
 .bss           0x00000000        0x0 c:/program files (x86)/microchip/xc32/v1.33/bin/bin/../../lib/gcc/pic32mx/4.5.2/../../../../pic32mx/lib\libpic32.a(memset.o)
 .reginfo       0x00000000       0x18 c:/program files (x86)/microchip/xc32/v1.33/bin/bin/../../lib/gcc/pic32mx/4.5.2/../../../../pic32mx/lib\libpic32.a(memset.o)
 .data          0x00000000        0x0 c:/program files (x86)/microchip/xc32/v1.33/bin/bin/../../lib/gcc/pic32mx/4.5.2/../../../../pic32mx/lib\libpic32.a(strcmp.o)
 .bss           0x00000000        0x0 c:/program files (x86)/microchip/xc32/v1.33/bin/bin/../../lib/gcc/pic32mx/4.5.2/../../../../pic32mx/lib\libpic32.a(strcmp.o)
 .reginfo       0x00000000       0x18 c:/program files (x86)/microchip/xc32/v1.33/bin/bin/../../lib/gcc/pic32mx/4.5.2/../../../../pic32mx/lib\libpic32.a(strcmp.o)
 .data          0x00000000        0x0 c:/program files (x86)/microchip/xc32/v1.33/bin/bin/../../lib/gcc/pic32mx/4.5.2/../../../../pic32mx/lib\libpic32.a(strcpy.o)
 .bss           0x00000000        0x0 c:/program files (x86)/microchip/xc32/v1.33/bin/bin/../../lib/gcc/pic32mx/4.5.2/../../../../pic32mx/lib\libpic32.a(strcpy.o)
 .reginfo       0x00000000       0x18 c:/program files (x86)/microchip/xc32/v1.33/bin/bin/../../lib/gcc/pic32mx/4.5.2/../../../../pic32mx/lib\libpic32.a(strcpy.o)
 .data          0x00000000        0x0 c:/program files (x86)/microchip/xc32/v1.33/bin/bin/../../lib/gcc/pic32mx/4.5.2/../../../../pic32mx/lib\libpic32.a(strlen.o)
 .bss           0x00000000        0x0 c:/program files (x86)/microchip/xc32/v1.33/bin/bin/../../lib/gcc/pic32mx/4.5.2/../../../../pic32mx/lib\libpic32.a(strlen.o)
 .reginfo       0x00000000       0x18 c:/program files (x86)/microchip/xc32/v1.33/bin/bin/../../lib/gcc/pic32mx/4.5.2/../../../../pic32mx/lib\libpic32.a(strlen.o)
 .text          0x00000000        0x0 c:/program files (x86)/microchip/xc32/v1.33/bin/bin/../../lib/gcc/pic32mx/4.5.2/../../../../pic32mx/lib\libpic32.a(default-bootstrap-exception-handler.o)
 .data          0x00000000        0x0 c:/program files (x86)/microchip/xc32/v1.33/bin/bin/../../lib/gcc/pic32mx/4.5.2/../../../../pic32mx/lib\libpic32.a(default-bootstrap-exception-handler.o)
 .bss           0x00000000        0x0 c:/program files (x86)/microchip/xc32/v1.33/bin/bin/../../lib/gcc/pic32mx/4.5.2/../../../../pic32mx/lib\libpic32.a(default-bootstrap-exception-handler.o)
 .reginfo       0x00000000       0x18 c:/program files (x86)/microchip/xc32/v1.33/bin/bin/../../lib/gcc/pic32mx/4.5.2/../../../../pic32mx/lib\libpic32.a(default-bootstrap-exception-handler.o)
 .text          0x00000000        0x0 c:/program files (x86)/microchip/xc32/v1.33/bin/bin/../../lib/gcc/pic32mx/4.5.2/../../../../pic32mx/lib\libpic32.a(default-on-reset.o)
 .data          0x00000000        0x0 c:/program files (x86)/microchip/xc32/v1.33/bin/bin/../../lib/gcc/pic32mx/4.5.2/../../../../pic32mx/lib\libpic32.a(default-on-reset.o)
 .bss           0x00000000        0x0 c:/program files (x86)/microchip/xc32/v1.33/bin/bin/../../lib/gcc/pic32mx/4.5.2/../../../../pic32mx/lib\libpic32.a(default-on-reset.o)
 .reginfo       0x00000000       0x18 c:/program files (x86)/microchip/xc32/v1.33/bin/bin/../../lib/gcc/pic32mx/4.5.2/../../../../pic32mx/lib\libpic32.a(default-on-reset.o)
 .text          0x00000000        0x0 c:/program files (x86)/microchip/xc32/v1.33/bin/bin/../../lib/gcc/pic32mx/4.5.2/../../../../pic32mx/lib\libpic32.a(default-on-bootstrap.o)
 .data          0x00000000        0x0 c:/program files (x86)/microchip/xc32/v1.33/bin/bin/../../lib/gcc/pic32mx/4.5.2/../../../../pic32mx/lib\libpic32.a(default-on-bootstrap.o)
 .bss           0x00000000        0x0 c:/program files (x86)/microchip/xc32/v1.33/bin/bin/../../lib/gcc/pic32mx/4.5.2/../../../../pic32mx/lib\libpic32.a(default-on-bootstrap.o)
 .reginfo       0x00000000       0x18 c:/program files (x86)/microchip/xc32/v1.33/bin/bin/../../lib/gcc/pic32mx/4.5.2/../../../../pic32mx/lib\libpic32.a(default-on-bootstrap.o)
 .data          0x00000000        0x0 c:/program files (x86)/microchip/xc32/v1.33/bin/bin/../../lib/gcc/pic32mx/4.5.2/../../../../pic32mx/lib\libpic32.a(default-nmi-handler.o)
 .bss           0x00000000        0x0 c:/program files (x86)/microchip/xc32/v1.33/bin/bin/../../lib/gcc/pic32mx/4.5.2/../../../../pic32mx/lib\libpic32.a(default-nmi-handler.o)
 .reginfo       0x00000000       0x18 c:/program files (x86)/microchip/xc32/v1.33/bin/bin/../../lib/gcc/pic32mx/4.5.2/../../../../pic32mx/lib\libpic32.a(default-nmi-handler.o)
 .text          0x00000000        0x0 c:/program files (x86)/microchip/xc32/v1.33/bin/bin/../../lib/gcc/pic32mx/4.5.2/../../../../pic32mx/lib\libpic32.a(general-exception.o)
 .data          0x00000000        0x0 c:/program files (x86)/microchip/xc32/v1.33/bin/bin/../../lib/gcc/pic32mx/4.5.2/../../../../pic32mx/lib\libpic32.a(general-exception.o)
 .bss           0x00000000        0x0 c:/program files (x86)/microchip/xc32/v1.33/bin/bin/../../lib/gcc/pic32mx/4.5.2/../../../../pic32mx/lib\libpic32.a(general-exception.o)
 .reginfo       0x00000000       0x18 c:/program files (x86)/microchip/xc32/v1.33/bin/bin/../../lib/gcc/pic32mx/4.5.2/../../../../pic32mx/lib\libpic32.a(general-exception.o)
 .text          0x00000000        0x0 c:/program files (x86)/microchip/xc32/v1.33/bin/bin/../../lib/gcc/pic32mx/4.5.2/../../../../pic32mx/lib\libpic32.a(vector0.o)
 .data          0x00000000        0x0 c:/program files (x86)/microchip/xc32/v1.33/bin/bin/../../lib/gcc/pic32mx/4.5.2/../../../../pic32mx/lib\libpic32.a(vector0.o)
 .bss           0x00000000        0x0 c:/program files (x86)/microchip/xc32/v1.33/bin/bin/../../lib/gcc/pic32mx/4.5.2/../../../../pic32mx/lib\libpic32.a(vector0.o)
 .reginfo       0x00000000       0x18 c:/program files (x86)/microchip/xc32/v1.33/bin/bin/../../lib/gcc/pic32mx/4.5.2/../../../../pic32mx/lib\libpic32.a(vector0.o)
 .text          0x00000000        0x0 c:/program files (x86)/microchip/xc32/v1.33/bin/bin/../../lib/gcc/pic32mx/4.5.2/../../../../pic32mx/lib\libpic32.a(vector1.o)
 .data          0x00000000        0x0 c:/program files (x86)/microchip/xc32/v1.33/bin/bin/../../lib/gcc/pic32mx/4.5.2/../../../../pic32mx/lib\libpic32.a(vector1.o)
 .bss           0x00000000        0x0 c:/program files (x86)/microchip/xc32/v1.33/bin/bin/../../lib/gcc/pic32mx/4.5.2/../../../../pic32mx/lib\libpic32.a(vector1.o)
 .reginfo       0x00000000       0x18 c:/program files (x86)/microchip/xc32/v1.33/bin/bin/../../lib/gcc/pic32mx/4.5.2/../../../../pic32mx/lib\libpic32.a(vector1.o)
 .text          0x00000000        0x0 c:/program files (x86)/microchip/xc32/v1.33/bin/bin/../../lib/gcc/pic32mx/4.5.2/../../../../pic32mx/lib\libpic32.a(vector2.o)
 .data          0x00000000        0x0 c:/program files (x86)/microchip/xc32/v1.33/bin/bin/../../lib/gcc/pic32mx/4.5.2/../../../../pic32mx/lib\libpic32.a(vector2.o)
 .bss           0x00000000        0x0 c:/program files (x86)/microchip/xc32/v1.33/bin/bin/../../lib/gcc/pic32mx/4.5.2/../../../../pic32mx/lib\libpic32.a(vector2.o)
 .reginfo       0x00000000       0x18 c:/program files (x86)/microchip/xc32/v1.33/bin/bin/../../lib/gcc/pic32mx/4.5.2/../../../../pic32mx/lib\libpic32.a(vector2.o)
 .text          0x00000000        0x0 c:/program files (x86)/microchip/xc32/v1.33/bin/bin/../../lib/gcc/pic32mx/4.5.2/../../../../pic32mx/lib\libpic32.a(vector3.o)
 .data          0x00000000        0x0 c:/program files (x86)/microchip/xc32/v1.33/bin/bin/../../lib/gcc/pic32mx/4.5.2/../../../../pic32mx/lib\libpic32.a(vector3.o)
 .bss           0x00000000        0x0 c:/program files (x86)/microchip/xc32/v1.33/bin/bin/../../lib/gcc/pic32mx/4.5.2/../../../../pic32mx/lib\libpic32.a(vector3.o)
 .reginfo       0x00000000       0x18 c:/program files (x86)/microchip/xc32/v1.33/bin/bin/../../lib/gcc/pic32mx/4.5.2/../../../../pic32mx/lib\libpic32.a(vector3.o)
 .text          0x00000000        0x0 c:/program files (x86)/microchip/xc32/v1.33/bin/bin/../../lib/gcc/pic32mx/4.5.2/../../../../pic32mx/lib\libpic32.a(vector5.o)
 .data          0x00000000        0x0 c:/program files (x86)/microchip/xc32/v1.33/bin/bin/../../lib/gcc/pic32mx/4.5.2/../../../../pic32mx/lib\libpic32.a(vector5.o)
 .bss           0x00000000        0x0 c:/program files (x86)/microchip/xc32/v1.33/bin/bin/../../lib/gcc/pic32mx/4.5.2/../../../../pic32mx/lib\libpic32.a(vector5.o)
 .reginfo       0x00000000       0x18 c:/program files (x86)/microchip/xc32/v1.33/bin/bin/../../lib/gcc/pic32mx/4.5.2/../../../../pic32mx/lib\libpic32.a(vector5.o)
 .text          0x00000000        0x0 c:/program files (x86)/microchip/xc32/v1.33/bin/bin/../../lib/gcc/pic32mx/4.5.2/../../../../pic32mx/lib\libpic32.a(vector6.o)
 .data          0x00000000        0x0 c:/program files (x86)/microchip/xc32/v1.33/bin/bin/../../lib/gcc/pic32mx/4.5.2/../../../../pic32mx/lib\libpic32.a(vector6.o)
 .bss           0x00000000        0x0 c:/program files (x86)/microchip/xc32/v1.33/bin/bin/../../lib/gcc/pic32mx/4.5.2/../../../../pic32mx/lib\libpic32.a(vector6.o)
 .reginfo       0x00000000       0x18 c:/program files (x86)/microchip/xc32/v1.33/bin/bin/../../lib/gcc/pic32mx/4.5.2/../../../../pic32mx/lib\libpic32.a(vector6.o)
 .text          0x00000000        0x0 c:/program files (x86)/microchip/xc32/v1.33/bin/bin/../../lib/gcc/pic32mx/4.5.2/../../../../pic32mx/lib\libpic32.a(vector7.o)
 .data          0x00000000        0x0 c:/program files (x86)/microchip/xc32/v1.33/bin/bin/../../lib/gcc/pic32mx/4.5.2/../../../../pic32mx/lib\libpic32.a(vector7.o)
 .bss           0x00000000        0x0 c:/program files (x86)/microchip/xc32/v1.33/bin/bin/../../lib/gcc/pic32mx/4.5.2/../../../../pic32mx/lib\libpic32.a(vector7.o)
 .reginfo       0x00000000       0x18 c:/program files (x86)/microchip/xc32/v1.33/bin/bin/../../lib/gcc/pic32mx/4.5.2/../../../../pic32mx/lib\libpic32.a(vector7.o)
 .text          0x00000000        0x0 c:/program files (x86)/microchip/xc32/v1.33/bin/bin/../../lib/gcc/pic32mx/4.5.2/../../../../pic32mx/lib\libpic32.a(vector8.o)
 .data          0x00000000        0x0 c:/program files (x86)/microchip/xc32/v1.33/bin/bin/../../lib/gcc/pic32mx/4.5.2/../../../../pic32mx/lib\libpic32.a(vector8.o)
 .bss           0x00000000        0x0 c:/program files (x86)/microchip/xc32/v1.33/bin/bin/../../lib/gcc/pic32mx/4.5.2/../../../../pic32mx/lib\libpic32.a(vector8.o)
 .reginfo       0x00000000       0x18 c:/program files (x86)/microchip/xc32/v1.33/bin/bin/../../lib/gcc/pic32mx/4.5.2/../../../../pic32mx/lib\libpic32.a(vector8.o)
 .text          0x00000000        0x0 c:/program files (x86)/microchip/xc32/v1.33/bin/bin/../../lib/gcc/pic32mx/4.5.2/../../../../pic32mx/lib\libpic32.a(vector9.o)
 .data          0x00000000        0x0 c:/program files (x86)/microchip/xc32/v1.33/bin/bin/../../lib/gcc/pic32mx/4.5.2/../../../../pic32mx/lib\libpic32.a(vector9.o)
 .bss           0x00000000        0x0 c:/program files (x86)/microchip/xc32/v1.33/bin/bin/../../lib/gcc/pic32mx/4.5.2/../../../../pic32mx/lib\libpic32.a(vector9.o)
 .reginfo       0x00000000       0x18 c:/program files (x86)/microchip/xc32/v1.33/bin/bin/../../lib/gcc/pic32mx/4.5.2/../../../../pic32mx/lib\libpic32.a(vector9.o)
 .text          0x00000000        0x0 c:/program files (x86)/microchip/xc32/v1.33/bin/bin/../../lib/gcc/pic32mx/4.5.2/../../../../pic32mx/lib\libpic32.a(vector10.o)
 .data          0x00000000        0x0 c:/program files (x86)/microchip/xc32/v1.33/bin/bin/../../lib/gcc/pic32mx/4.5.2/../../../../pic32mx/lib\libpic32.a(vector10.o)
 .bss           0x00000000        0x0 c:/program files (x86)/microchip/xc32/v1.33/bin/bin/../../lib/gcc/pic32mx/4.5.2/../../../../pic32mx/lib\libpic32.a(vector10.o)
 .reginfo       0x00000000       0x18 c:/program files (x86)/microchip/xc32/v1.33/bin/bin/../../lib/gcc/pic32mx/4.5.2/../../../../pic32mx/lib\libpic32.a(vector10.o)
 .text          0x00000000        0x0 c:/program files (x86)/microchip/xc32/v1.33/bin/bin/../../lib/gcc/pic32mx/4.5.2/../../../../pic32mx/lib\libpic32.a(vector11.o)
 .data          0x00000000        0x0 c:/program files (x86)/microchip/xc32/v1.33/bin/bin/../../lib/gcc/pic32mx/4.5.2/../../../../pic32mx/lib\libpic32.a(vector11.o)
 .bss           0x00000000        0x0 c:/program files (x86)/microchip/xc32/v1.33/bin/bin/../../lib/gcc/pic32mx/4.5.2/../../../../pic32mx/lib\libpic32.a(vector11.o)
 .reginfo       0x00000000       0x18 c:/program files (x86)/microchip/xc32/v1.33/bin/bin/../../lib/gcc/pic32mx/4.5.2/../../../../pic32mx/lib\libpic32.a(vector11.o)
 .text          0x00000000        0x0 c:/program files (x86)/microchip/xc32/v1.33/bin/bin/../../lib/gcc/pic32mx/4.5.2/../../../../pic32mx/lib\libpic32.a(vector12.o)
 .data          0x00000000        0x0 c:/program files (x86)/microchip/xc32/v1.33/bin/bin/../../lib/gcc/pic32mx/4.5.2/../../../../pic32mx/lib\libpic32.a(vector12.o)
 .bss           0x00000000        0x0 c:/program files (x86)/microchip/xc32/v1.33/bin/bin/../../lib/gcc/pic32mx/4.5.2/../../../../pic32mx/lib\libpic32.a(vector12.o)
 .reginfo       0x00000000       0x18 c:/program files (x86)/microchip/xc32/v1.33/bin/bin/../../lib/gcc/pic32mx/4.5.2/../../../../pic32mx/lib\libpic32.a(vector12.o)
 .text          0x00000000        0x0 c:/program files (x86)/microchip/xc32/v1.33/bin/bin/../../lib/gcc/pic32mx/4.5.2/../../../../pic32mx/lib\libpic32.a(vector13.o)
 .data          0x00000000        0x0 c:/program files (x86)/microchip/xc32/v1.33/bin/bin/../../lib/gcc/pic32mx/4.5.2/../../../../pic32mx/lib\libpic32.a(vector13.o)
 .bss           0x00000000        0x0 c:/program files (x86)/microchip/xc32/v1.33/bin/bin/../../lib/gcc/pic32mx/4.5.2/../../../../pic32mx/lib\libpic32.a(vector13.o)
 .reginfo       0x00000000       0x18 c:/program files (x86)/microchip/xc32/v1.33/bin/bin/../../lib/gcc/pic32mx/4.5.2/../../../../pic32mx/lib\libpic32.a(vector13.o)
 .text          0x00000000        0x0 c:/program files (x86)/microchip/xc32/v1.33/bin/bin/../../lib/gcc/pic32mx/4.5.2/../../../../pic32mx/lib\libpic32.a(vector14.o)
 .data          0x00000000        0x0 c:/program files (x86)/microchip/xc32/v1.33/bin/bin/../../lib/gcc/pic32mx/4.5.2/../../../../pic32mx/lib\libpic32.a(vector14.o)
 .bss           0x00000000        0x0 c:/program files (x86)/microchip/xc32/v1.33/bin/bin/../../lib/gcc/pic32mx/4.5.2/../../../../pic32mx/lib\libpic32.a(vector14.o)
 .reginfo       0x00000000       0x18 c:/program files (x86)/microchip/xc32/v1.33/bin/bin/../../lib/gcc/pic32mx/4.5.2/../../../../pic32mx/lib\libpic32.a(vector14.o)
 .text          0x00000000        0x0 c:/program files (x86)/microchip/xc32/v1.33/bin/bin/../../lib/gcc/pic32mx/4.5.2/../../../../pic32mx/lib\libpic32.a(vector15.o)
 .data          0x00000000        0x0 c:/program files (x86)/microchip/xc32/v1.33/bin/bin/../../lib/gcc/pic32mx/4.5.2/../../../../pic32mx/lib\libpic32.a(vector15.o)
 .bss           0x00000000        0x0 c:/program files (x86)/microchip/xc32/v1.33/bin/bin/../../lib/gcc/pic32mx/4.5.2/../../../../pic32mx/lib\libpic32.a(vector15.o)
 .reginfo       0x00000000       0x18 c:/program files (x86)/microchip/xc32/v1.33/bin/bin/../../lib/gcc/pic32mx/4.5.2/../../../../pic32mx/lib\libpic32.a(vector15.o)
 .text          0x00000000        0x0 c:/program files (x86)/microchip/xc32/v1.33/bin/bin/../../lib/gcc/pic32mx/4.5.2/../../../../pic32mx/lib\libpic32.a(vector16.o)
 .data          0x00000000        0x0 c:/program files (x86)/microchip/xc32/v1.33/bin/bin/../../lib/gcc/pic32mx/4.5.2/../../../../pic32mx/lib\libpic32.a(vector16.o)
 .bss           0x00000000        0x0 c:/program files (x86)/microchip/xc32/v1.33/bin/bin/../../lib/gcc/pic32mx/4.5.2/../../../../pic32mx/lib\libpic32.a(vector16.o)
 .reginfo       0x00000000       0x18 c:/program files (x86)/microchip/xc32/v1.33/bin/bin/../../lib/gcc/pic32mx/4.5.2/../../../../pic32mx/lib\libpic32.a(vector16.o)
 .text          0x00000000        0x0 c:/program files (x86)/microchip/xc32/v1.33/bin/bin/../../lib/gcc/pic32mx/4.5.2/../../../../pic32mx/lib\libpic32.a(vector17.o)
 .data          0x00000000        0x0 c:/program files (x86)/microchip/xc32/v1.33/bin/bin/../../lib/gcc/pic32mx/4.5.2/../../../../pic32mx/lib\libpic32.a(vector17.o)
 .bss           0x00000000        0x0 c:/program files (x86)/microchip/xc32/v1.33/bin/bin/../../lib/gcc/pic32mx/4.5.2/../../../../pic32mx/lib\libpic32.a(vector17.o)
 .reginfo       0x00000000       0x18 c:/program files (x86)/microchip/xc32/v1.33/bin/bin/../../lib/gcc/pic32mx/4.5.2/../../../../pic32mx/lib\libpic32.a(vector17.o)
 .text          0x00000000        0x0 c:/program files (x86)/microchip/xc32/v1.33/bin/bin/../../lib/gcc/pic32mx/4.5.2/../../../../pic32mx/lib\libpic32.a(vector18.o)
 .data          0x00000000        0x0 c:/program files (x86)/microchip/xc32/v1.33/bin/bin/../../lib/gcc/pic32mx/4.5.2/../../../../pic32mx/lib\libpic32.a(vector18.o)
 .bss           0x00000000        0x0 c:/program files (x86)/microchip/xc32/v1.33/bin/bin/../../lib/gcc/pic32mx/4.5.2/../../../../pic32mx/lib\libpic32.a(vector18.o)
 .reginfo       0x00000000       0x18 c:/program files (x86)/microchip/xc32/v1.33/bin/bin/../../lib/gcc/pic32mx/4.5.2/../../../../pic32mx/lib\libpic32.a(vector18.o)
 .text          0x00000000        0x0 c:/program files (x86)/microchip/xc32/v1.33/bin/bin/../../lib/gcc/pic32mx/4.5.2/../../../../pic32mx/lib\libpic32.a(vector19.o)
 .data          0x00000000        0x0 c:/program files (x86)/microchip/xc32/v1.33/bin/bin/../../lib/gcc/pic32mx/4.5.2/../../../../pic32mx/lib\libpic32.a(vector19.o)
 .bss           0x00000000        0x0 c:/program files (x86)/microchip/xc32/v1.33/bin/bin/../../lib/gcc/pic32mx/4.5.2/../../../../pic32mx/lib\libpic32.a(vector19.o)
 .reginfo       0x00000000       0x18 c:/program files (x86)/microchip/xc32/v1.33/bin/bin/../../lib/gcc/pic32mx/4.5.2/../../../../pic32mx/lib\libpic32.a(vector19.o)
 .text          0x00000000        0x0 c:/program files (x86)/microchip/xc32/v1.33/bin/bin/../../lib/gcc/pic32mx/4.5.2/../../../../pic32mx/lib\libpic32.a(vector20.o)
 .data          0x00000000        0x0 c:/program files (x86)/microchip/xc32/v1.33/bin/bin/../../lib/gcc/pic32mx/4.5.2/../../../../pic32mx/lib\libpic32.a(vector20.o)
 .bss           0x00000000        0x0 c:/program files (x86)/microchip/xc32/v1.33/bin/bin/../../lib/gcc/pic32mx/4.5.2/../../../../pic32mx/lib\libpic32.a(vector20.o)
 .reginfo       0x00000000       0x18 c:/program files (x86)/microchip/xc32/v1.33/bin/bin/../../lib/gcc/pic32mx/4.5.2/../../../../pic32mx/lib\libpic32.a(vector20.o)
 .text          0x00000000        0x0 c:/program files (x86)/microchip/xc32/v1.33/bin/bin/../../lib/gcc/pic32mx/4.5.2/../../../../pic32mx/lib\libpic32.a(vector21.o)
 .data          0x00000000        0x0 c:/program files (x86)/microchip/xc32/v1.33/bin/bin/../../lib/gcc/pic32mx/4.5.2/../../../../pic32mx/lib\libpic32.a(vector21.o)
 .bss           0x00000000        0x0 c:/program files (x86)/microchip/xc32/v1.33/bin/bin/../../lib/gcc/pic32mx/4.5.2/../../../../pic32mx/lib\libpic32.a(vector21.o)
 .reginfo       0x00000000       0x18 c:/program files (x86)/microchip/xc32/v1.33/bin/bin/../../lib/gcc/pic32mx/4.5.2/../../../../pic32mx/lib\libpic32.a(vector21.o)
 .text          0x00000000        0x0 c:/program files (x86)/microchip/xc32/v1.33/bin/bin/../../lib/gcc/pic32mx/4.5.2/../../../../pic32mx/lib\libpic32.a(vector22.o)
 .data          0x00000000        0x0 c:/program files (x86)/microchip/xc32/v1.33/bin/bin/../../lib/gcc/pic32mx/4.5.2/../../../../pic32mx/lib\libpic32.a(vector22.o)
 .bss           0x00000000        0x0 c:/program files (x86)/microchip/xc32/v1.33/bin/bin/../../lib/gcc/pic32mx/4.5.2/../../../../pic32mx/lib\libpic32.a(vector22.o)
 .reginfo       0x00000000       0x18 c:/program files (x86)/microchip/xc32/v1.33/bin/bin/../../lib/gcc/pic32mx/4.5.2/../../../../pic32mx/lib\libpic32.a(vector22.o)
 .text          0x00000000        0x0 c:/program files (x86)/microchip/xc32/v1.33/bin/bin/../../lib/gcc/pic32mx/4.5.2/../../../../pic32mx/lib\libpic32.a(vector23.o)
 .data          0x00000000        0x0 c:/program files (x86)/microchip/xc32/v1.33/bin/bin/../../lib/gcc/pic32mx/4.5.2/../../../../pic32mx/lib\libpic32.a(vector23.o)
 .bss           0x00000000        0x0 c:/program files (x86)/microchip/xc32/v1.33/bin/bin/../../lib/gcc/pic32mx/4.5.2/../../../../pic32mx/lib\libpic32.a(vector23.o)
 .reginfo       0x00000000       0x18 c:/program files (x86)/microchip/xc32/v1.33/bin/bin/../../lib/gcc/pic32mx/4.5.2/../../../../pic32mx/lib\libpic32.a(vector23.o)
 .text          0x00000000        0x0 c:/program files (x86)/microchip/xc32/v1.33/bin/bin/../../lib/gcc/pic32mx/4.5.2/../../../../pic32mx/lib\libpic32.a(vector24.o)
 .data          0x00000000        0x0 c:/program files (x86)/microchip/xc32/v1.33/bin/bin/../../lib/gcc/pic32mx/4.5.2/../../../../pic32mx/lib\libpic32.a(vector24.o)
 .bss           0x00000000        0x0 c:/program files (x86)/microchip/xc32/v1.33/bin/bin/../../lib/gcc/pic32mx/4.5.2/../../../../pic32mx/lib\libpic32.a(vector24.o)
 .reginfo       0x00000000       0x18 c:/program files (x86)/microchip/xc32/v1.33/bin/bin/../../lib/gcc/pic32mx/4.5.2/../../../../pic32mx/lib\libpic32.a(vector24.o)
 .text          0x00000000        0x0 c:/program files (x86)/microchip/xc32/v1.33/bin/bin/../../lib/gcc/pic32mx/4.5.2/../../../../pic32mx/lib\libpic32.a(vector25.o)
 .data          0x00000000        0x0 c:/program files (x86)/microchip/xc32/v1.33/bin/bin/../../lib/gcc/pic32mx/4.5.2/../../../../pic32mx/lib\libpic32.a(vector25.o)
 .bss           0x00000000        0x0 c:/program files (x86)/microchip/xc32/v1.33/bin/bin/../../lib/gcc/pic32mx/4.5.2/../../../../pic32mx/lib\libpic32.a(vector25.o)
 .reginfo       0x00000000       0x18 c:/program files (x86)/microchip/xc32/v1.33/bin/bin/../../lib/gcc/pic32mx/4.5.2/../../../../pic32mx/lib\libpic32.a(vector25.o)
 .text          0x00000000        0x0 c:/program files (x86)/microchip/xc32/v1.33/bin/bin/../../lib/gcc/pic32mx/4.5.2/../../../../pic32mx/lib\libpic32.a(vector26.o)
 .data          0x00000000        0x0 c:/program files (x86)/microchip/xc32/v1.33/bin/bin/../../lib/gcc/pic32mx/4.5.2/../../../../pic32mx/lib\libpic32.a(vector26.o)
 .bss           0x00000000        0x0 c:/program files (x86)/microchip/xc32/v1.33/bin/bin/../../lib/gcc/pic32mx/4.5.2/../../../../pic32mx/lib\libpic32.a(vector26.o)
 .reginfo       0x00000000       0x18 c:/program files (x86)/microchip/xc32/v1.33/bin/bin/../../lib/gcc/pic32mx/4.5.2/../../../../pic32mx/lib\libpic32.a(vector26.o)
 .text          0x00000000        0x0 c:/program files (x86)/microchip/xc32/v1.33/bin/bin/../../lib/gcc/pic32mx/4.5.2/../../../../pic32mx/lib\libpic32.a(vector27.o)
 .data          0x00000000        0x0 c:/program files (x86)/microchip/xc32/v1.33/bin/bin/../../lib/gcc/pic32mx/4.5.2/../../../../pic32mx/lib\libpic32.a(vector27.o)
 .bss           0x00000000        0x0 c:/program files (x86)/microchip/xc32/v1.33/bin/bin/../../lib/gcc/pic32mx/4.5.2/../../../../pic32mx/lib\libpic32.a(vector27.o)
 .reginfo       0x00000000       0x18 c:/program files (x86)/microchip/xc32/v1.33/bin/bin/../../lib/gcc/pic32mx/4.5.2/../../../../pic32mx/lib\libpic32.a(vector27.o)
 .text          0x00000000        0x0 c:/program files (x86)/microchip/xc32/v1.33/bin/bin/../../lib/gcc/pic32mx/4.5.2/../../../../pic32mx/lib\libpic32.a(vector28.o)
 .data          0x00000000        0x0 c:/program files (x86)/microchip/xc32/v1.33/bin/bin/../../lib/gcc/pic32mx/4.5.2/../../../../pic32mx/lib\libpic32.a(vector28.o)
 .bss           0x00000000        0x0 c:/program files (x86)/microchip/xc32/v1.33/bin/bin/../../lib/gcc/pic32mx/4.5.2/../../../../pic32mx/lib\libpic32.a(vector28.o)
 .reginfo       0x00000000       0x18 c:/program files (x86)/microchip/xc32/v1.33/bin/bin/../../lib/gcc/pic32mx/4.5.2/../../../../pic32mx/lib\libpic32.a(vector28.o)
 .text          0x00000000        0x0 c:/program files (x86)/microchip/xc32/v1.33/bin/bin/../../lib/gcc/pic32mx/4.5.2/../../../../pic32mx/lib\libpic32.a(vector29.o)
 .data          0x00000000        0x0 c:/program files (x86)/microchip/xc32/v1.33/bin/bin/../../lib/gcc/pic32mx/4.5.2/../../../../pic32mx/lib\libpic32.a(vector29.o)
 .bss           0x00000000        0x0 c:/program files (x86)/microchip/xc32/v1.33/bin/bin/../../lib/gcc/pic32mx/4.5.2/../../../../pic32mx/lib\libpic32.a(vector29.o)
 .reginfo       0x00000000       0x18 c:/program files (x86)/microchip/xc32/v1.33/bin/bin/../../lib/gcc/pic32mx/4.5.2/../../../../pic32mx/lib\libpic32.a(vector29.o)
 .text          0x00000000        0x0 c:/program files (x86)/microchip/xc32/v1.33/bin/bin/../../lib/gcc/pic32mx/4.5.2/../../../../pic32mx/lib\libpic32.a(vector30.o)
 .data          0x00000000        0x0 c:/program files (x86)/microchip/xc32/v1.33/bin/bin/../../lib/gcc/pic32mx/4.5.2/../../../../pic32mx/lib\libpic32.a(vector30.o)
 .bss           0x00000000        0x0 c:/program files (x86)/microchip/xc32/v1.33/bin/bin/../../lib/gcc/pic32mx/4.5.2/../../../../pic32mx/lib\libpic32.a(vector30.o)
 .reginfo       0x00000000       0x18 c:/program files (x86)/microchip/xc32/v1.33/bin/bin/../../lib/gcc/pic32mx/4.5.2/../../../../pic32mx/lib\libpic32.a(vector30.o)
 .text          0x00000000        0x0 c:/program files (x86)/microchip/xc32/v1.33/bin/bin/../../lib/gcc/pic32mx/4.5.2/../../../../pic32mx/lib\libpic32.a(vector31.o)
 .data          0x00000000        0x0 c:/program files (x86)/microchip/xc32/v1.33/bin/bin/../../lib/gcc/pic32mx/4.5.2/../../../../pic32mx/lib\libpic32.a(vector31.o)
 .bss           0x00000000        0x0 c:/program files (x86)/microchip/xc32/v1.33/bin/bin/../../lib/gcc/pic32mx/4.5.2/../../../../pic32mx/lib\libpic32.a(vector31.o)
 .reginfo       0x00000000       0x18 c:/program files (x86)/microchip/xc32/v1.33/bin/bin/../../lib/gcc/pic32mx/4.5.2/../../../../pic32mx/lib\libpic32.a(vector31.o)
 .text          0x00000000        0x0 c:/program files (x86)/microchip/xc32/v1.33/bin/bin/../../lib/gcc/pic32mx/4.5.2/../../../../pic32mx/lib\libpic32.a(vector32.o)
 .data          0x00000000        0x0 c:/program files (x86)/microchip/xc32/v1.33/bin/bin/../../lib/gcc/pic32mx/4.5.2/../../../../pic32mx/lib\libpic32.a(vector32.o)
 .bss           0x00000000        0x0 c:/program files (x86)/microchip/xc32/v1.33/bin/bin/../../lib/gcc/pic32mx/4.5.2/../../../../pic32mx/lib\libpic32.a(vector32.o)
 .reginfo       0x00000000       0x18 c:/program files (x86)/microchip/xc32/v1.33/bin/bin/../../lib/gcc/pic32mx/4.5.2/../../../../pic32mx/lib\libpic32.a(vector32.o)
 .text          0x00000000        0x0 c:/program files (x86)/microchip/xc32/v1.33/bin/bin/../../lib/gcc/pic32mx/4.5.2/../../../../pic32mx/lib\libpic32.a(vector33.o)
 .data          0x00000000        0x0 c:/program files (x86)/microchip/xc32/v1.33/bin/bin/../../lib/gcc/pic32mx/4.5.2/../../../../pic32mx/lib\libpic32.a(vector33.o)
 .bss           0x00000000        0x0 c:/program files (x86)/microchip/xc32/v1.33/bin/bin/../../lib/gcc/pic32mx/4.5.2/../../../../pic32mx/lib\libpic32.a(vector33.o)
 .reginfo       0x00000000       0x18 c:/program files (x86)/microchip/xc32/v1.33/bin/bin/../../lib/gcc/pic32mx/4.5.2/../../../../pic32mx/lib\libpic32.a(vector33.o)
 .text          0x00000000        0x0 c:/program files (x86)/microchip/xc32/v1.33/bin/bin/../../lib/gcc/pic32mx/4.5.2/../../../../pic32mx/lib\libpic32.a(vector34.o)
 .data          0x00000000        0x0 c:/program files (x86)/microchip/xc32/v1.33/bin/bin/../../lib/gcc/pic32mx/4.5.2/../../../../pic32mx/lib\libpic32.a(vector34.o)
 .bss           0x00000000        0x0 c:/program files (x86)/microchip/xc32/v1.33/bin/bin/../../lib/gcc/pic32mx/4.5.2/../../../../pic32mx/lib\libpic32.a(vector34.o)
 .reginfo       0x00000000       0x18 c:/program files (x86)/microchip/xc32/v1.33/bin/bin/../../lib/gcc/pic32mx/4.5.2/../../../../pic32mx/lib\libpic32.a(vector34.o)
 .text          0x00000000        0x0 c:/program files (x86)/microchip/xc32/v1.33/bin/bin/../../lib/gcc/pic32mx/4.5.2/../../../../pic32mx/lib\libpic32.a(vector35.o)
 .data          0x00000000        0x0 c:/program files (x86)/microchip/xc32/v1.33/bin/bin/../../lib/gcc/pic32mx/4.5.2/../../../../pic32mx/lib\libpic32.a(vector35.o)
 .bss           0x00000000        0x0 c:/program files (x86)/microchip/xc32/v1.33/bin/bin/../../lib/gcc/pic32mx/4.5.2/../../../../pic32mx/lib\libpic32.a(vector35.o)
 .reginfo       0x00000000       0x18 c:/program files (x86)/microchip/xc32/v1.33/bin/bin/../../lib/gcc/pic32mx/4.5.2/../../../../pic32mx/lib\libpic32.a(vector35.o)
 .text          0x00000000        0x0 c:/program files (x86)/microchip/xc32/v1.33/bin/bin/../../lib/gcc/pic32mx/4.5.2/../../../../pic32mx/lib\libpic32.a(vector36.o)
 .data          0x00000000        0x0 c:/program files (x86)/microchip/xc32/v1.33/bin/bin/../../lib/gcc/pic32mx/4.5.2/../../../../pic32mx/lib\libpic32.a(vector36.o)
 .bss           0x00000000        0x0 c:/program files (x86)/microchip/xc32/v1.33/bin/bin/../../lib/gcc/pic32mx/4.5.2/../../../../pic32mx/lib\libpic32.a(vector36.o)
 .reginfo       0x00000000       0x18 c:/program files (x86)/microchip/xc32/v1.33/bin/bin/../../lib/gcc/pic32mx/4.5.2/../../../../pic32mx/lib\libpic32.a(vector36.o)
 .text          0x00000000        0x0 c:/program files (x86)/microchip/xc32/v1.33/bin/bin/../../lib/gcc/pic32mx/4.5.2/../../../../pic32mx/lib\libpic32.a(vector37.o)
 .data          0x00000000        0x0 c:/program files (x86)/microchip/xc32/v1.33/bin/bin/../../lib/gcc/pic32mx/4.5.2/../../../../pic32mx/lib\libpic32.a(vector37.o)
 .bss           0x00000000        0x0 c:/program files (x86)/microchip/xc32/v1.33/bin/bin/../../lib/gcc/pic32mx/4.5.2/../../../../pic32mx/lib\libpic32.a(vector37.o)
 .reginfo       0x00000000       0x18 c:/program files (x86)/microchip/xc32/v1.33/bin/bin/../../lib/gcc/pic32mx/4.5.2/../../../../pic32mx/lib\libpic32.a(vector37.o)
 .text          0x00000000        0x0 c:/program files (x86)/microchip/xc32/v1.33/bin/bin/../../lib/gcc/pic32mx/4.5.2/../../../../pic32mx/lib\libpic32.a(vector38.o)
 .data          0x00000000        0x0 c:/program files (x86)/microchip/xc32/v1.33/bin/bin/../../lib/gcc/pic32mx/4.5.2/../../../../pic32mx/lib\libpic32.a(vector38.o)
 .bss           0x00000000        0x0 c:/program files (x86)/microchip/xc32/v1.33/bin/bin/../../lib/gcc/pic32mx/4.5.2/../../../../pic32mx/lib\libpic32.a(vector38.o)
 .reginfo       0x00000000       0x18 c:/program files (x86)/microchip/xc32/v1.33/bin/bin/../../lib/gcc/pic32mx/4.5.2/../../../../pic32mx/lib\libpic32.a(vector38.o)
 .text          0x00000000        0x0 c:/program files (x86)/microchip/xc32/v1.33/bin/bin/../../lib/gcc/pic32mx/4.5.2/../../../../pic32mx/lib\libpic32.a(vector39.o)
 .data          0x00000000        0x0 c:/program files (x86)/microchip/xc32/v1.33/bin/bin/../../lib/gcc/pic32mx/4.5.2/../../../../pic32mx/lib\libpic32.a(vector39.o)
 .bss           0x00000000        0x0 c:/program files (x86)/microchip/xc32/v1.33/bin/bin/../../lib/gcc/pic32mx/4.5.2/../../../../pic32mx/lib\libpic32.a(vector39.o)
 .reginfo       0x00000000       0x18 c:/program files (x86)/microchip/xc32/v1.33/bin/bin/../../lib/gcc/pic32mx/4.5.2/../../../../pic32mx/lib\libpic32.a(vector39.o)
 .text          0x00000000        0x0 c:/program files (x86)/microchip/xc32/v1.33/bin/bin/../../lib/gcc/pic32mx/4.5.2/../../../../pic32mx/lib\libpic32.a(vector40.o)
 .data          0x00000000        0x0 c:/program files (x86)/microchip/xc32/v1.33/bin/bin/../../lib/gcc/pic32mx/4.5.2/../../../../pic32mx/lib\libpic32.a(vector40.o)
 .bss           0x00000000        0x0 c:/program files (x86)/microchip/xc32/v1.33/bin/bin/../../lib/gcc/pic32mx/4.5.2/../../../../pic32mx/lib\libpic32.a(vector40.o)
 .reginfo       0x00000000       0x18 c:/program files (x86)/microchip/xc32/v1.33/bin/bin/../../lib/gcc/pic32mx/4.5.2/../../../../pic32mx/lib\libpic32.a(vector40.o)
 .text          0x00000000        0x0 c:/program files (x86)/microchip/xc32/v1.33/bin/bin/../../lib/gcc/pic32mx/4.5.2/../../../../pic32mx/lib\libpic32.a(vector41.o)
 .data          0x00000000        0x0 c:/program files (x86)/microchip/xc32/v1.33/bin/bin/../../lib/gcc/pic32mx/4.5.2/../../../../pic32mx/lib\libpic32.a(vector41.o)
 .bss           0x00000000        0x0 c:/program files (x86)/microchip/xc32/v1.33/bin/bin/../../lib/gcc/pic32mx/4.5.2/../../../../pic32mx/lib\libpic32.a(vector41.o)
 .reginfo       0x00000000       0x18 c:/program files (x86)/microchip/xc32/v1.33/bin/bin/../../lib/gcc/pic32mx/4.5.2/../../../../pic32mx/lib\libpic32.a(vector41.o)
 .text          0x00000000        0x0 c:/program files (x86)/microchip/xc32/v1.33/bin/bin/../../lib/gcc/pic32mx/4.5.2/../../../../pic32mx/lib\libpic32.a(vector42.o)
 .data          0x00000000        0x0 c:/program files (x86)/microchip/xc32/v1.33/bin/bin/../../lib/gcc/pic32mx/4.5.2/../../../../pic32mx/lib\libpic32.a(vector42.o)
 .bss           0x00000000        0x0 c:/program files (x86)/microchip/xc32/v1.33/bin/bin/../../lib/gcc/pic32mx/4.5.2/../../../../pic32mx/lib\libpic32.a(vector42.o)
 .reginfo       0x00000000       0x18 c:/program files (x86)/microchip/xc32/v1.33/bin/bin/../../lib/gcc/pic32mx/4.5.2/../../../../pic32mx/lib\libpic32.a(vector42.o)
 .text          0x00000000        0x0 c:/program files (x86)/microchip/xc32/v1.33/bin/bin/../../lib/gcc/pic32mx/4.5.2/../../../../pic32mx/lib\libpic32.a(vector43.o)
 .data          0x00000000        0x0 c:/program files (x86)/microchip/xc32/v1.33/bin/bin/../../lib/gcc/pic32mx/4.5.2/../../../../pic32mx/lib\libpic32.a(vector43.o)
 .bss           0x00000000        0x0 c:/program files (x86)/microchip/xc32/v1.33/bin/bin/../../lib/gcc/pic32mx/4.5.2/../../../../pic32mx/lib\libpic32.a(vector43.o)
 .reginfo       0x00000000       0x18 c:/program files (x86)/microchip/xc32/v1.33/bin/bin/../../lib/gcc/pic32mx/4.5.2/../../../../pic32mx/lib\libpic32.a(vector43.o)
 .text          0x00000000        0x0 c:/program files (x86)/microchip/xc32/v1.33/bin/bin/../../lib/gcc/pic32mx/4.5.2/../../../../pic32mx/lib\libpic32.a(vector44.o)
 .data          0x00000000        0x0 c:/program files (x86)/microchip/xc32/v1.33/bin/bin/../../lib/gcc/pic32mx/4.5.2/../../../../pic32mx/lib\libpic32.a(vector44.o)
 .bss           0x00000000        0x0 c:/program files (x86)/microchip/xc32/v1.33/bin/bin/../../lib/gcc/pic32mx/4.5.2/../../../../pic32mx/lib\libpic32.a(vector44.o)
 .reginfo       0x00000000       0x18 c:/program files (x86)/microchip/xc32/v1.33/bin/bin/../../lib/gcc/pic32mx/4.5.2/../../../../pic32mx/lib\libpic32.a(vector44.o)
 .text          0x00000000        0x0 c:/program files (x86)/microchip/xc32/v1.33/bin/bin/../../lib/gcc/pic32mx/4.5.2/../../../../pic32mx/lib\libpic32.a(vector45.o)
 .data          0x00000000        0x0 c:/program files (x86)/microchip/xc32/v1.33/bin/bin/../../lib/gcc/pic32mx/4.5.2/../../../../pic32mx/lib\libpic32.a(vector45.o)
 .bss           0x00000000        0x0 c:/program files (x86)/microchip/xc32/v1.33/bin/bin/../../lib/gcc/pic32mx/4.5.2/../../../../pic32mx/lib\libpic32.a(vector45.o)
 .reginfo       0x00000000       0x18 c:/program files (x86)/microchip/xc32/v1.33/bin/bin/../../lib/gcc/pic32mx/4.5.2/../../../../pic32mx/lib\libpic32.a(vector45.o)
 .text          0x00000000        0x0 c:/program files (x86)/microchip/xc32/v1.33/bin/bin/../../lib/gcc/pic32mx/4.5.2/../../../../pic32mx/lib\libpic32.a(vector46.o)
 .data          0x00000000        0x0 c:/program files (x86)/microchip/xc32/v1.33/bin/bin/../../lib/gcc/pic32mx/4.5.2/../../../../pic32mx/lib\libpic32.a(vector46.o)
 .bss           0x00000000        0x0 c:/program files (x86)/microchip/xc32/v1.33/bin/bin/../../lib/gcc/pic32mx/4.5.2/../../../../pic32mx/lib\libpic32.a(vector46.o)
 .reginfo       0x00000000       0x18 c:/program files (x86)/microchip/xc32/v1.33/bin/bin/../../lib/gcc/pic32mx/4.5.2/../../../../pic32mx/lib\libpic32.a(vector46.o)
 .text          0x00000000        0x0 c:/program files (x86)/microchip/xc32/v1.33/bin/bin/../../lib/gcc/pic32mx/4.5.2/../../../../pic32mx/lib\libpic32.a(vector47.o)
 .data          0x00000000        0x0 c:/program files (x86)/microchip/xc32/v1.33/bin/bin/../../lib/gcc/pic32mx/4.5.2/../../../../pic32mx/lib\libpic32.a(vector47.o)
 .bss           0x00000000        0x0 c:/program files (x86)/microchip/xc32/v1.33/bin/bin/../../lib/gcc/pic32mx/4.5.2/../../../../pic32mx/lib\libpic32.a(vector47.o)
 .reginfo       0x00000000       0x18 c:/program files (x86)/microchip/xc32/v1.33/bin/bin/../../lib/gcc/pic32mx/4.5.2/../../../../pic32mx/lib\libpic32.a(vector47.o)
 .text          0x00000000        0x0 c:/program files (x86)/microchip/xc32/v1.33/bin/bin/../../lib/gcc/pic32mx/4.5.2/../../../../pic32mx/lib\libpic32.a(vector49.o)
 .data          0x00000000        0x0 c:/program files (x86)/microchip/xc32/v1.33/bin/bin/../../lib/gcc/pic32mx/4.5.2/../../../../pic32mx/lib\libpic32.a(vector49.o)
 .bss           0x00000000        0x0 c:/program files (x86)/microchip/xc32/v1.33/bin/bin/../../lib/gcc/pic32mx/4.5.2/../../../../pic32mx/lib\libpic32.a(vector49.o)
 .reginfo       0x00000000       0x18 c:/program files (x86)/microchip/xc32/v1.33/bin/bin/../../lib/gcc/pic32mx/4.5.2/../../../../pic32mx/lib\libpic32.a(vector49.o)
 .text          0x00000000        0x0 c:/program files (x86)/microchip/xc32/v1.33/bin/bin/../../lib/gcc/pic32mx/4.5.2/../../../../pic32mx/lib\libpic32.a(vector50.o)
 .data          0x00000000        0x0 c:/program files (x86)/microchip/xc32/v1.33/bin/bin/../../lib/gcc/pic32mx/4.5.2/../../../../pic32mx/lib\libpic32.a(vector50.o)
 .bss           0x00000000        0x0 c:/program files (x86)/microchip/xc32/v1.33/bin/bin/../../lib/gcc/pic32mx/4.5.2/../../../../pic32mx/lib\libpic32.a(vector50.o)
 .reginfo       0x00000000       0x18 c:/program files (x86)/microchip/xc32/v1.33/bin/bin/../../lib/gcc/pic32mx/4.5.2/../../../../pic32mx/lib\libpic32.a(vector50.o)
 .text          0x00000000        0x0 c:/program files (x86)/microchip/xc32/v1.33/bin/bin/../../lib/gcc/pic32mx/4.5.2/../../../../pic32mx/lib\libpic32.a(vector51.o)
 .data          0x00000000        0x0 c:/program files (x86)/microchip/xc32/v1.33/bin/bin/../../lib/gcc/pic32mx/4.5.2/../../../../pic32mx/lib\libpic32.a(vector51.o)
 .bss           0x00000000        0x0 c:/program files (x86)/microchip/xc32/v1.33/bin/bin/../../lib/gcc/pic32mx/4.5.2/../../../../pic32mx/lib\libpic32.a(vector51.o)
 .reginfo       0x00000000       0x18 c:/program files (x86)/microchip/xc32/v1.33/bin/bin/../../lib/gcc/pic32mx/4.5.2/../../../../pic32mx/lib\libpic32.a(vector51.o)
 .text          0x00000000        0x0 c:/program files (x86)/microchip/xc32/v1.33/bin/bin/../../lib/gcc/pic32mx/4.5.2/../../../../pic32mx/lib\libpic32.a(vector52.o)
 .data          0x00000000        0x0 c:/program files (x86)/microchip/xc32/v1.33/bin/bin/../../lib/gcc/pic32mx/4.5.2/../../../../pic32mx/lib\libpic32.a(vector52.o)
 .bss           0x00000000        0x0 c:/program files (x86)/microchip/xc32/v1.33/bin/bin/../../lib/gcc/pic32mx/4.5.2/../../../../pic32mx/lib\libpic32.a(vector52.o)
 .reginfo       0x00000000       0x18 c:/program files (x86)/microchip/xc32/v1.33/bin/bin/../../lib/gcc/pic32mx/4.5.2/../../../../pic32mx/lib\libpic32.a(vector52.o)
 .text          0x00000000        0x0 c:/program files (x86)/microchip/xc32/v1.33/bin/bin/../../lib/gcc/pic32mx/4.5.2/../../../../pic32mx/lib\libpic32.a(vector53.o)
 .data          0x00000000        0x0 c:/program files (x86)/microchip/xc32/v1.33/bin/bin/../../lib/gcc/pic32mx/4.5.2/../../../../pic32mx/lib\libpic32.a(vector53.o)
 .bss           0x00000000        0x0 c:/program files (x86)/microchip/xc32/v1.33/bin/bin/../../lib/gcc/pic32mx/4.5.2/../../../../pic32mx/lib\libpic32.a(vector53.o)
 .reginfo       0x00000000       0x18 c:/program files (x86)/microchip/xc32/v1.33/bin/bin/../../lib/gcc/pic32mx/4.5.2/../../../../pic32mx/lib\libpic32.a(vector53.o)
 .text          0x00000000        0x0 c:/program files (x86)/microchip/xc32/v1.33/bin/bin/../../lib/gcc/pic32mx/4.5.2/../../../../pic32mx/lib\libpic32.a(vector54.o)
 .data          0x00000000        0x0 c:/program files (x86)/microchip/xc32/v1.33/bin/bin/../../lib/gcc/pic32mx/4.5.2/../../../../pic32mx/lib\libpic32.a(vector54.o)
 .bss           0x00000000        0x0 c:/program files (x86)/microchip/xc32/v1.33/bin/bin/../../lib/gcc/pic32mx/4.5.2/../../../../pic32mx/lib\libpic32.a(vector54.o)
 .reginfo       0x00000000       0x18 c:/program files (x86)/microchip/xc32/v1.33/bin/bin/../../lib/gcc/pic32mx/4.5.2/../../../../pic32mx/lib\libpic32.a(vector54.o)
 .text          0x00000000        0x0 c:/program files (x86)/microchip/xc32/v1.33/bin/bin/../../lib/gcc/pic32mx/4.5.2/../../../../pic32mx/lib\libpic32.a(vector55.o)
 .data          0x00000000        0x0 c:/program files (x86)/microchip/xc32/v1.33/bin/bin/../../lib/gcc/pic32mx/4.5.2/../../../../pic32mx/lib\libpic32.a(vector55.o)
 .bss           0x00000000        0x0 c:/program files (x86)/microchip/xc32/v1.33/bin/bin/../../lib/gcc/pic32mx/4.5.2/../../../../pic32mx/lib\libpic32.a(vector55.o)
 .reginfo       0x00000000       0x18 c:/program files (x86)/microchip/xc32/v1.33/bin/bin/../../lib/gcc/pic32mx/4.5.2/../../../../pic32mx/lib\libpic32.a(vector55.o)
 .text          0x00000000        0x0 c:/program files (x86)/microchip/xc32/v1.33/bin/bin/../../lib/gcc/pic32mx/4.5.2/../../../../pic32mx/lib\libpic32.a(vector56.o)
 .data          0x00000000        0x0 c:/program files (x86)/microchip/xc32/v1.33/bin/bin/../../lib/gcc/pic32mx/4.5.2/../../../../pic32mx/lib\libpic32.a(vector56.o)
 .bss           0x00000000        0x0 c:/program files (x86)/microchip/xc32/v1.33/bin/bin/../../lib/gcc/pic32mx/4.5.2/../../../../pic32mx/lib\libpic32.a(vector56.o)
 .reginfo       0x00000000       0x18 c:/program files (x86)/microchip/xc32/v1.33/bin/bin/../../lib/gcc/pic32mx/4.5.2/../../../../pic32mx/lib\libpic32.a(vector56.o)
 .text          0x00000000        0x0 c:/program files (x86)/microchip/xc32/v1.33/bin/bin/../../lib/gcc/pic32mx/4.5.2/../../../../pic32mx/lib\libpic32.a(vector57.o)
 .data          0x00000000        0x0 c:/program files (x86)/microchip/xc32/v1.33/bin/bin/../../lib/gcc/pic32mx/4.5.2/../../../../pic32mx/lib\libpic32.a(vector57.o)
 .bss           0x00000000        0x0 c:/program files (x86)/microchip/xc32/v1.33/bin/bin/../../lib/gcc/pic32mx/4.5.2/../../../../pic32mx/lib\libpic32.a(vector57.o)
 .reginfo       0x00000000       0x18 c:/program files (x86)/microchip/xc32/v1.33/bin/bin/../../lib/gcc/pic32mx/4.5.2/../../../../pic32mx/lib\libpic32.a(vector57.o)
 .text          0x00000000        0x0 c:/program files (x86)/microchip/xc32/v1.33/bin/bin/../../lib/gcc/pic32mx/4.5.2/../../../../pic32mx/lib\libpic32.a(vector58.o)
 .data          0x00000000        0x0 c:/program files (x86)/microchip/xc32/v1.33/bin/bin/../../lib/gcc/pic32mx/4.5.2/../../../../pic32mx/lib\libpic32.a(vector58.o)
 .bss           0x00000000        0x0 c:/program files (x86)/microchip/xc32/v1.33/bin/bin/../../lib/gcc/pic32mx/4.5.2/../../../../pic32mx/lib\libpic32.a(vector58.o)
 .reginfo       0x00000000       0x18 c:/program files (x86)/microchip/xc32/v1.33/bin/bin/../../lib/gcc/pic32mx/4.5.2/../../../../pic32mx/lib\libpic32.a(vector58.o)
 .text          0x00000000        0x0 c:/program files (x86)/microchip/xc32/v1.33/bin/bin/../../lib/gcc/pic32mx/4.5.2/../../../../pic32mx/lib\libpic32.a(vector59.o)
 .data          0x00000000        0x0 c:/program files (x86)/microchip/xc32/v1.33/bin/bin/../../lib/gcc/pic32mx/4.5.2/../../../../pic32mx/lib\libpic32.a(vector59.o)
 .bss           0x00000000        0x0 c:/program files (x86)/microchip/xc32/v1.33/bin/bin/../../lib/gcc/pic32mx/4.5.2/../../../../pic32mx/lib\libpic32.a(vector59.o)
 .reginfo       0x00000000       0x18 c:/program files (x86)/microchip/xc32/v1.33/bin/bin/../../lib/gcc/pic32mx/4.5.2/../../../../pic32mx/lib\libpic32.a(vector59.o)
 .text          0x00000000        0x0 c:/program files (x86)/microchip/xc32/v1.33/bin/bin/../../lib/gcc/pic32mx/4.5.2/../../../../pic32mx/lib\libpic32.a(vector60.o)
 .data          0x00000000        0x0 c:/program files (x86)/microchip/xc32/v1.33/bin/bin/../../lib/gcc/pic32mx/4.5.2/../../../../pic32mx/lib\libpic32.a(vector60.o)
 .bss           0x00000000        0x0 c:/program files (x86)/microchip/xc32/v1.33/bin/bin/../../lib/gcc/pic32mx/4.5.2/../../../../pic32mx/lib\libpic32.a(vector60.o)
 .reginfo       0x00000000       0x18 c:/program files (x86)/microchip/xc32/v1.33/bin/bin/../../lib/gcc/pic32mx/4.5.2/../../../../pic32mx/lib\libpic32.a(vector60.o)
 .text          0x00000000        0x0 c:/program files (x86)/microchip/xc32/v1.33/bin/bin/../../lib/gcc/pic32mx/4.5.2/../../../../pic32mx/lib\libpic32.a(vector61.o)
 .data          0x00000000        0x0 c:/program files (x86)/microchip/xc32/v1.33/bin/bin/../../lib/gcc/pic32mx/4.5.2/../../../../pic32mx/lib\libpic32.a(vector61.o)
 .bss           0x00000000        0x0 c:/program files (x86)/microchip/xc32/v1.33/bin/bin/../../lib/gcc/pic32mx/4.5.2/../../../../pic32mx/lib\libpic32.a(vector61.o)
 .reginfo       0x00000000       0x18 c:/program files (x86)/microchip/xc32/v1.33/bin/bin/../../lib/gcc/pic32mx/4.5.2/../../../../pic32mx/lib\libpic32.a(vector61.o)
 .text          0x00000000        0x0 c:/program files (x86)/microchip/xc32/v1.33/bin/bin/../../lib/gcc/pic32mx/4.5.2/../../../../pic32mx/lib\libpic32.a(vector62.o)
 .data          0x00000000        0x0 c:/program files (x86)/microchip/xc32/v1.33/bin/bin/../../lib/gcc/pic32mx/4.5.2/../../../../pic32mx/lib\libpic32.a(vector62.o)
 .bss           0x00000000        0x0 c:/program files (x86)/microchip/xc32/v1.33/bin/bin/../../lib/gcc/pic32mx/4.5.2/../../../../pic32mx/lib\libpic32.a(vector62.o)
 .reginfo       0x00000000       0x18 c:/program files (x86)/microchip/xc32/v1.33/bin/bin/../../lib/gcc/pic32mx/4.5.2/../../../../pic32mx/lib\libpic32.a(vector62.o)
 .text          0x00000000        0x0 c:/program files (x86)/microchip/xc32/v1.33/bin/bin/../../lib/gcc/pic32mx/4.5.2/../../../../pic32mx/lib\libpic32.a(vector63.o)
 .data          0x00000000        0x0 c:/program files (x86)/microchip/xc32/v1.33/bin/bin/../../lib/gcc/pic32mx/4.5.2/../../../../pic32mx/lib\libpic32.a(vector63.o)
 .bss           0x00000000        0x0 c:/program files (x86)/microchip/xc32/v1.33/bin/bin/../../lib/gcc/pic32mx/4.5.2/../../../../pic32mx/lib\libpic32.a(vector63.o)
 .reginfo       0x00000000       0x18 c:/program files (x86)/microchip/xc32/v1.33/bin/bin/../../lib/gcc/pic32mx/4.5.2/../../../../pic32mx/lib\libpic32.a(vector63.o)
 .text          0x00000000        0x0 c:/program files (x86)/microchip/xc32/v1.33/bin/bin/../../lib/gcc/pic32mx/4.5.2/../../../../pic32mx/lib\libpic32.a(defaultinterrupt.o)
 .data          0x00000000        0x0 c:/program files (x86)/microchip/xc32/v1.33/bin/bin/../../lib/gcc/pic32mx/4.5.2/../../../../pic32mx/lib\libpic32.a(defaultinterrupt.o)
 .bss           0x00000000        0x0 c:/program files (x86)/microchip/xc32/v1.33/bin/bin/../../lib/gcc/pic32mx/4.5.2/../../../../pic32mx/lib\libpic32.a(defaultinterrupt.o)
 .reginfo       0x00000000       0x18 c:/program files (x86)/microchip/xc32/v1.33/bin/bin/../../lib/gcc/pic32mx/4.5.2/../../../../pic32mx/lib\libpic32.a(defaultinterrupt.o)
 .text          0x00000000        0x0 c:/program files (x86)/microchip/xc32/v1.33/bin/bin/../../lib/gcc/pic32mx/4.5.2/../../../../pic32mx/lib\libc.a(atoi.o)
 .data          0x00000000        0x0 c:/program files (x86)/microchip/xc32/v1.33/bin/bin/../../lib/gcc/pic32mx/4.5.2/../../../../pic32mx/lib\libc.a(atoi.o)
 .bss           0x00000000        0x0 c:/program files (x86)/microchip/xc32/v1.33/bin/bin/../../lib/gcc/pic32mx/4.5.2/../../../../pic32mx/lib\libc.a(atoi.o)
 .reginfo       0x00000000       0x18 c:/program files (x86)/microchip/xc32/v1.33/bin/bin/../../lib/gcc/pic32mx/4.5.2/../../../../pic32mx/lib\libc.a(atoi.o)
 .text          0x00000000        0x0 c:/program files (x86)/microchip/xc32/v1.33/bin/bin/../../lib/gcc/pic32mx/4.5.2/../../../../pic32mx/lib\libc.a(calloc.o)
 .data          0x00000000        0x0 c:/program files (x86)/microchip/xc32/v1.33/bin/bin/../../lib/gcc/pic32mx/4.5.2/../../../../pic32mx/lib\libc.a(calloc.o)
 .bss           0x00000000        0x0 c:/program files (x86)/microchip/xc32/v1.33/bin/bin/../../lib/gcc/pic32mx/4.5.2/../../../../pic32mx/lib\libc.a(calloc.o)
 .reginfo       0x00000000       0x18 c:/program files (x86)/microchip/xc32/v1.33/bin/bin/../../lib/gcc/pic32mx/4.5.2/../../../../pic32mx/lib\libc.a(calloc.o)
 .text          0x00000000        0x0 c:/program files (x86)/microchip/xc32/v1.33/bin/bin/../../lib/gcc/pic32mx/4.5.2/../../../../pic32mx/lib\libc.a(ctype.o)
 .data          0x00000000        0x0 c:/program files (x86)/microchip/xc32/v1.33/bin/bin/../../lib/gcc/pic32mx/4.5.2/../../../../pic32mx/lib\libc.a(ctype.o)
 .bss           0x00000000        0x0 c:/program files (x86)/microchip/xc32/v1.33/bin/bin/../../lib/gcc/pic32mx/4.5.2/../../../../pic32mx/lib\libc.a(ctype.o)
 .reginfo       0x00000000       0x18 c:/program files (x86)/microchip/xc32/v1.33/bin/bin/../../lib/gcc/pic32mx/4.5.2/../../../../pic32mx/lib\libc.a(ctype.o)
 .text          0x00000000        0x0 c:/program files (x86)/microchip/xc32/v1.33/bin/bin/../../lib/gcc/pic32mx/4.5.2/../../../../pic32mx/lib\libc.a(malloc.o)
 .data          0x00000000        0x0 c:/program files (x86)/microchip/xc32/v1.33/bin/bin/../../lib/gcc/pic32mx/4.5.2/../../../../pic32mx/lib\libc.a(malloc.o)
 .reginfo       0x00000000       0x18 c:/program files (x86)/microchip/xc32/v1.33/bin/bin/../../lib/gcc/pic32mx/4.5.2/../../../../pic32mx/lib\libc.a(malloc.o)
 .text.realloc  0x00000000      0x194 c:/program files (x86)/microchip/xc32/v1.33/bin/bin/../../lib/gcc/pic32mx/4.5.2/../../../../pic32mx/lib\libc.a(malloc.o)
 .text          0x00000000        0x0 c:/program files (x86)/microchip/xc32/v1.33/bin/bin/../../lib/gcc/pic32mx/4.5.2/../../../../pic32mx/lib\libc.a(rand.o)
 .data          0x00000000        0x0 c:/program files (x86)/microchip/xc32/v1.33/bin/bin/../../lib/gcc/pic32mx/4.5.2/../../../../pic32mx/lib\libc.a(rand.o)
 .reginfo       0x00000000       0x18 c:/program files (x86)/microchip/xc32/v1.33/bin/bin/../../lib/gcc/pic32mx/4.5.2/../../../../pic32mx/lib\libc.a(rand.o)
 .text          0x00000000        0x0 c:/program files (x86)/microchip/xc32/v1.33/bin/bin/../../lib/gcc/pic32mx/4.5.2/../../../../pic32mx/lib\libc.a(strncpy.o)
 .data          0x00000000        0x0 c:/program files (x86)/microchip/xc32/v1.33/bin/bin/../../lib/gcc/pic32mx/4.5.2/../../../../pic32mx/lib\libc.a(strncpy.o)
 .bss           0x00000000        0x0 c:/program files (x86)/microchip/xc32/v1.33/bin/bin/../../lib/gcc/pic32mx/4.5.2/../../../../pic32mx/lib\libc.a(strncpy.o)
 .reginfo       0x00000000       0x18 c:/program files (x86)/microchip/xc32/v1.33/bin/bin/../../lib/gcc/pic32mx/4.5.2/../../../../pic32mx/lib\libc.a(strncpy.o)
 .text          0x00000000        0x0 c:/program files (x86)/microchip/xc32/v1.33/bin/bin/../../lib/gcc/pic32mx/4.5.2/../../../../pic32mx/lib\libc.a(strtol.o)
 .data          0x00000000        0x0 c:/program files (x86)/microchip/xc32/v1.33/bin/bin/../../lib/gcc/pic32mx/4.5.2/../../../../pic32mx/lib\libc.a(strtol.o)
 .bss           0x00000000        0x0 c:/program files (x86)/microchip/xc32/v1.33/bin/bin/../../lib/gcc/pic32mx/4.5.2/../../../../pic32mx/lib\libc.a(strtol.o)
 .reginfo       0x00000000       0x18 c:/program files (x86)/microchip/xc32/v1.33/bin/bin/../../lib/gcc/pic32mx/4.5.2/../../../../pic32mx/lib\libc.a(strtol.o)
 .text          0x00000000        0x0 c:/program files (x86)/microchip/xc32/v1.33/bin/bin/../../lib/gcc/pic32mx/4.5.2/../../../../pic32mx/lib\libc.a(snprintf_cdnopsuxX.eo)
 .data          0x00000000        0x0 c:/program files (x86)/microchip/xc32/v1.33/bin/bin/../../lib/gcc/pic32mx/4.5.2/../../../../pic32mx/lib\libc.a(snprintf_cdnopsuxX.eo)
 .bss           0x00000000        0x0 c:/program files (x86)/microchip/xc32/v1.33/bin/bin/../../lib/gcc/pic32mx/4.5.2/../../../../pic32mx/lib\libc.a(snprintf_cdnopsuxX.eo)
 .reginfo       0x00000000       0x18 c:/program files (x86)/microchip/xc32/v1.33/bin/bin/../../lib/gcc/pic32mx/4.5.2/../../../../pic32mx/lib\libc.a(snprintf_cdnopsuxX.eo)
 .text          0x00000000        0x0 c:/program files (x86)/microchip/xc32/v1.33/bin/bin/../../lib/gcc/pic32mx/4.5.2/../../../../pic32mx/lib\libc.a(sprintf_cdnopsuxX.eo)
 .data          0x00000000        0x0 c:/program files (x86)/microchip/xc32/v1.33/bin/bin/../../lib/gcc/pic32mx/4.5.2/../../../../pic32mx/lib\libc.a(sprintf_cdnopsuxX.eo)
 .bss           0x00000000        0x0 c:/program files (x86)/microchip/xc32/v1.33/bin/bin/../../lib/gcc/pic32mx/4.5.2/../../../../pic32mx/lib\libc.a(sprintf_cdnopsuxX.eo)
 .reginfo       0x00000000       0x18 c:/program files (x86)/microchip/xc32/v1.33/bin/bin/../../lib/gcc/pic32mx/4.5.2/../../../../pic32mx/lib\libc.a(sprintf_cdnopsuxX.eo)
 .text          0x00000000        0x0 c:/program files (x86)/microchip/xc32/v1.33/bin/bin/../../lib/gcc/pic32mx/4.5.2/../../../../pic32mx/lib\libc.a(vsnprintf_cdnopsuxX.eo)
 .data          0x00000000        0x0 c:/program files (x86)/microchip/xc32/v1.33/bin/bin/../../lib/gcc/pic32mx/4.5.2/../../../../pic32mx/lib\libc.a(vsnprintf_cdnopsuxX.eo)
 .bss           0x00000000        0x0 c:/program files (x86)/microchip/xc32/v1.33/bin/bin/../../lib/gcc/pic32mx/4.5.2/../../../../pic32mx/lib\libc.a(vsnprintf_cdnopsuxX.eo)
 .reginfo       0x00000000       0x18 c:/program files (x86)/microchip/xc32/v1.33/bin/bin/../../lib/gcc/pic32mx/4.5.2/../../../../pic32mx/lib\libc.a(vsnprintf_cdnopsuxX.eo)
 .text          0x00000000        0x0 c:/program files (x86)/microchip/xc32/v1.33/bin/bin/../../lib/gcc/pic32mx/4.5.2/../../../../pic32mx/lib\libc.a(vsnprintf.o)
 .data          0x00000000        0x0 c:/program files (x86)/microchip/xc32/v1.33/bin/bin/../../lib/gcc/pic32mx/4.5.2/../../../../pic32mx/lib\libc.a(vsnprintf.o)
 .bss           0x00000000        0x0 c:/program files (x86)/microchip/xc32/v1.33/bin/bin/../../lib/gcc/pic32mx/4.5.2/../../../../pic32mx/lib\libc.a(vsnprintf.o)
 .reginfo       0x00000000       0x18 c:/program files (x86)/microchip/xc32/v1.33/bin/bin/../../lib/gcc/pic32mx/4.5.2/../../../../pic32mx/lib\libc.a(vsnprintf.o)
 .text          0x00000000        0x0 c:/program files (x86)/microchip/xc32/v1.33/bin/bin/../../lib/gcc/pic32mx/4.5.2/../../../../pic32mx/lib\libc.a(ctypef.o)
 .data          0x00000000        0x0 c:/program files (x86)/microchip/xc32/v1.33/bin/bin/../../lib/gcc/pic32mx/4.5.2/../../../../pic32mx/lib\libc.a(ctypef.o)
 .bss           0x00000000        0x0 c:/program files (x86)/microchip/xc32/v1.33/bin/bin/../../lib/gcc/pic32mx/4.5.2/../../../../pic32mx/lib\libc.a(ctypef.o)
 .reginfo       0x00000000       0x18 c:/program files (x86)/microchip/xc32/v1.33/bin/bin/../../lib/gcc/pic32mx/4.5.2/../../../../pic32mx/lib\libc.a(ctypef.o)
 .text.tolower  0x00000000       0x24 c:/program files (x86)/microchip/xc32/v1.33/bin/bin/../../lib/gcc/pic32mx/4.5.2/../../../../pic32mx/lib\libc.a(ctypef.o)
 .text.isalnum  0x00000000       0x18 c:/program files (x86)/microchip/xc32/v1.33/bin/bin/../../lib/gcc/pic32mx/4.5.2/../../../../pic32mx/lib\libc.a(ctypef.o)
 .text.isalpha  0x00000000       0x18 c:/program files (x86)/microchip/xc32/v1.33/bin/bin/../../lib/gcc/pic32mx/4.5.2/../../../../pic32mx/lib\libc.a(ctypef.o)
 .text.isascii  0x00000000        0x8 c:/program files (x86)/microchip/xc32/v1.33/bin/bin/../../lib/gcc/pic32mx/4.5.2/../../../../pic32mx/lib\libc.a(ctypef.o)
 .text.iscntrl  0x00000000       0x18 c:/program files (x86)/microchip/xc32/v1.33/bin/bin/../../lib/gcc/pic32mx/4.5.2/../../../../pic32mx/lib\libc.a(ctypef.o)
 .text.isdigit  0x00000000       0x18 c:/program files (x86)/microchip/xc32/v1.33/bin/bin/../../lib/gcc/pic32mx/4.5.2/../../../../pic32mx/lib\libc.a(ctypef.o)
 .text.isgraph  0x00000000       0x18 c:/program files (x86)/microchip/xc32/v1.33/bin/bin/../../lib/gcc/pic32mx/4.5.2/../../../../pic32mx/lib\libc.a(ctypef.o)
 .text.islower  0x00000000       0x18 c:/program files (x86)/microchip/xc32/v1.33/bin/bin/../../lib/gcc/pic32mx/4.5.2/../../../../pic32mx/lib\libc.a(ctypef.o)
 .text.isprint  0x00000000       0x18 c:/program files (x86)/microchip/xc32/v1.33/bin/bin/../../lib/gcc/pic32mx/4.5.2/../../../../pic32mx/lib\libc.a(ctypef.o)
 .text.ispunct  0x00000000       0x18 c:/program files (x86)/microchip/xc32/v1.33/bin/bin/../../lib/gcc/pic32mx/4.5.2/../../../../pic32mx/lib\libc.a(ctypef.o)
 .text.isspace  0x00000000       0x18 c:/program files (x86)/microchip/xc32/v1.33/bin/bin/../../lib/gcc/pic32mx/4.5.2/../../../../pic32mx/lib\libc.a(ctypef.o)
 .text.isupper  0x00000000       0x18 c:/program files (x86)/microchip/xc32/v1.33/bin/bin/../../lib/gcc/pic32mx/4.5.2/../../../../pic32mx/lib\libc.a(ctypef.o)
 .text.isxdigit
                0x00000000       0x18 c:/program files (x86)/microchip/xc32/v1.33/bin/bin/../../lib/gcc/pic32mx/4.5.2/../../../../pic32mx/lib\libc.a(ctypef.o)
 .text.toascii  0x00000000        0x8 c:/program files (x86)/microchip/xc32/v1.33/bin/bin/../../lib/gcc/pic32mx/4.5.2/../../../../pic32mx/lib\libc.a(ctypef.o)
 .text._tolower
                0x00000000        0x8 c:/program files (x86)/microchip/xc32/v1.33/bin/bin/../../lib/gcc/pic32mx/4.5.2/../../../../pic32mx/lib\libc.a(ctypef.o)
 .text._toupper
                0x00000000        0x8 c:/program files (x86)/microchip/xc32/v1.33/bin/bin/../../lib/gcc/pic32mx/4.5.2/../../../../pic32mx/lib\libc.a(ctypef.o)
 .text          0x00000000        0x0 c:/program files (x86)/microchip/xc32/v1.33/bin/bin/../../lib/gcc/pic32mx/4.5.2/../../../../pic32mx/lib\libc.a(errno.o)
 .data          0x00000000        0x0 c:/program files (x86)/microchip/xc32/v1.33/bin/bin/../../lib/gcc/pic32mx/4.5.2/../../../../pic32mx/lib\libc.a(errno.o)
 .bss           0x00000000        0x0 c:/program files (x86)/microchip/xc32/v1.33/bin/bin/../../lib/gcc/pic32mx/4.5.2/../../../../pic32mx/lib\libc.a(errno.o)
 .reginfo       0x00000000       0x18 c:/program files (x86)/microchip/xc32/v1.33/bin/bin/../../lib/gcc/pic32mx/4.5.2/../../../../pic32mx/lib\libc.a(errno.o)
 .text          0x00000000        0x0 c:/program files (x86)/microchip/xc32/v1.33/bin/bin/../../lib/gcc/pic32mx/4.5.2/../../../../pic32mx/lib\libc.a(doprnt_cdnopsuxX.eo)
 .data          0x00000000        0x0 c:/program files (x86)/microchip/xc32/v1.33/bin/bin/../../lib/gcc/pic32mx/4.5.2/../../../../pic32mx/lib\libc.a(doprnt_cdnopsuxX.eo)
 .bss           0x00000000        0x0 c:/program files (x86)/microchip/xc32/v1.33/bin/bin/../../lib/gcc/pic32mx/4.5.2/../../../../pic32mx/lib\libc.a(doprnt_cdnopsuxX.eo)
 .reginfo       0x00000000       0x18 c:/program files (x86)/microchip/xc32/v1.33/bin/bin/../../lib/gcc/pic32mx/4.5.2/../../../../pic32mx/lib\libc.a(doprnt_cdnopsuxX.eo)
 .text          0x00000000        0x0 c:/program files (x86)/microchip/xc32/v1.33/bin/bin/../../lib/gcc/pic32mx/4.5.2/../../../../pic32mx/lib\libc.a(doprnt.o)
 .data          0x00000000        0x0 c:/program files (x86)/microchip/xc32/v1.33/bin/bin/../../lib/gcc/pic32mx/4.5.2/../../../../pic32mx/lib\libc.a(doprnt.o)
 .bss           0x00000000        0x0 c:/program files (x86)/microchip/xc32/v1.33/bin/bin/../../lib/gcc/pic32mx/4.5.2/../../../../pic32mx/lib\libc.a(doprnt.o)
 .reginfo       0x00000000       0x18 c:/program files (x86)/microchip/xc32/v1.33/bin/bin/../../lib/gcc/pic32mx/4.5.2/../../../../pic32mx/lib\libc.a(doprnt.o)
 .text          0x00000000        0x0 c:/program files (x86)/microchip/xc32/v1.33/bin/bin/../../lib/gcc/pic32mx/4.5.2/../../../../pic32mx/lib\libc.a(_fputc_simple.o)
 .data          0x00000000        0x0 c:/program files (x86)/microchip/xc32/v1.33/bin/bin/../../lib/gcc/pic32mx/4.5.2/../../../../pic32mx/lib\libc.a(_fputc_simple.o)
 .bss           0x00000000        0x0 c:/program files (x86)/microchip/xc32/v1.33/bin/bin/../../lib/gcc/pic32mx/4.5.2/../../../../pic32mx/lib\libc.a(_fputc_simple.o)
 .reginfo       0x00000000       0x18 c:/program files (x86)/microchip/xc32/v1.33/bin/bin/../../lib/gcc/pic32mx/4.5.2/../../../../pic32mx/lib\libc.a(_fputc_simple.o)
 .text          0x00000000        0x0 c:/program files (x86)/microchip/xc32/v1.33/bin/bin/../../lib/gcc/pic32mx/4.5.2/../../../../pic32mx/lib\libc.a(powersf.o)
 .data          0x00000000        0x0 c:/program files (x86)/microchip/xc32/v1.33/bin/bin/../../lib/gcc/pic32mx/4.5.2/../../../../pic32mx/lib\libc.a(powersf.o)
 .bss           0x00000000        0x0 c:/program files (x86)/microchip/xc32/v1.33/bin/bin/../../lib/gcc/pic32mx/4.5.2/../../../../pic32mx/lib\libc.a(powersf.o)
 .reginfo       0x00000000       0x18 c:/program files (x86)/microchip/xc32/v1.33/bin/bin/../../lib/gcc/pic32mx/4.5.2/../../../../pic32mx/lib\libc.a(powersf.o)
 .text          0x00000000        0x0 c:/program files (x86)/microchip/xc32/v1.33/bin/bin/../../lib/gcc/pic32mx/4.5.2/../../../../pic32mx/lib\libc.a(_iob.o)
 .reginfo       0x00000000       0x18 c:/program files (x86)/microchip/xc32/v1.33/bin/bin/../../lib/gcc/pic32mx/4.5.2/../../../../pic32mx/lib\libc.a(_iob.o)
 .text          0x00000000        0x0 c:/program files (x86)/microchip/xc32/v1.33/bin/bin/../../lib/gcc/pic32mx/4.5.2/../../../../pic32mx/lib\libc.a(_flsbuf_simple.o)
 .data          0x00000000        0x0 c:/program files (x86)/microchip/xc32/v1.33/bin/bin/../../lib/gcc/pic32mx/4.5.2/../../../../pic32mx/lib\libc.a(_flsbuf_simple.o)
 .bss           0x00000000        0x0 c:/program files (x86)/microchip/xc32/v1.33/bin/bin/../../lib/gcc/pic32mx/4.5.2/../../../../pic32mx/lib\libc.a(_flsbuf_simple.o)
 .reginfo       0x00000000       0x18 c:/program files (x86)/microchip/xc32/v1.33/bin/bin/../../lib/gcc/pic32mx/4.5.2/../../../../pic32mx/lib\libc.a(_flsbuf_simple.o)
 .text          0x00000000        0x0 c:/program files (x86)/microchip/xc32/v1.33/bin/bin/../../lib/gcc/pic32mx/4.5.2/../../../../pic32mx/lib\libpic32.a(sbrk.o)
 .data          0x00000000        0x0 c:/program files (x86)/microchip/xc32/v1.33/bin/bin/../../lib/gcc/pic32mx/4.5.2/../../../../pic32mx/lib\libpic32.a(sbrk.o)
 .reginfo       0x00000000       0x18 c:/program files (x86)/microchip/xc32/v1.33/bin/bin/../../lib/gcc/pic32mx/4.5.2/../../../../pic32mx/lib\libpic32.a(sbrk.o)
 .text.getpagesize
                0x00000000        0x8 c:/program files (x86)/microchip/xc32/v1.33/bin/bin/../../lib/gcc/pic32mx/4.5.2/../../../../pic32mx/lib\libpic32.a(sbrk.o)
 .text          0x00000000        0x0 c:/program files (x86)/microchip/xc32/v1.33/bin/bin/../../lib/gcc/pic32mx/4.5.2/../../../../pic32mx/lib\libpic32.a(write.o)
 .data          0x00000000        0x0 c:/program files (x86)/microchip/xc32/v1.33/bin/bin/../../lib/gcc/pic32mx/4.5.2/../../../../pic32mx/lib\libpic32.a(write.o)
 .bss           0x00000000        0x0 c:/program files (x86)/microchip/xc32/v1.33/bin/bin/../../lib/gcc/pic32mx/4.5.2/../../../../pic32mx/lib\libpic32.a(write.o)
 .reginfo       0x00000000       0x18 c:/program files (x86)/microchip/xc32/v1.33/bin/bin/../../lib/gcc/pic32mx/4.5.2/../../../../pic32mx/lib\libpic32.a(write.o)
 .text          0x00000000        0x0 c:/program files (x86)/microchip/xc32/v1.33/bin/bin/../../lib/gcc/pic32mx/4.5.2/../../../../pic32mx/lib\libpic32.a(_mon_putc.o)
 .data          0x00000000        0x0 c:/program files (x86)/microchip/xc32/v1.33/bin/bin/../../lib/gcc/pic32mx/4.5.2/../../../../pic32mx/lib\libpic32.a(_mon_putc.o)
 .bss           0x00000000        0x0 c:/program files (x86)/microchip/xc32/v1.33/bin/bin/../../lib/gcc/pic32mx/4.5.2/../../../../pic32mx/lib\libpic32.a(_mon_putc.o)
 .reginfo       0x00000000       0x18 c:/program files (x86)/microchip/xc32/v1.33/bin/bin/../../lib/gcc/pic32mx/4.5.2/../../../../pic32mx/lib\libpic32.a(_mon_putc.o)
 .text          0x00000000        0x0 c:/program files (x86)/microchip/xc32/v1.33/bin/bin/../../lib/gcc/pic32mx/4.5.2/../../../../pic32mx/lib\libpic32.a(xc32_uart.o)
 .data          0x00000000        0x0 c:/program files (x86)/microchip/xc32/v1.33/bin/bin/../../lib/gcc/pic32mx/4.5.2/../../../../pic32mx/lib\libpic32.a(xc32_uart.o)
 .bss           0x00000000        0x0 c:/program files (x86)/microchip/xc32/v1.33/bin/bin/../../lib/gcc/pic32mx/4.5.2/../../../../pic32mx/lib\libpic32.a(xc32_uart.o)
 .reginfo       0x00000000       0x18 c:/program files (x86)/microchip/xc32/v1.33/bin/bin/../../lib/gcc/pic32mx/4.5.2/../../../../pic32mx/lib\libpic32.a(xc32_uart.o)
 .text          0x00000000        0x0 c:/program files (x86)/microchip/xc32/v1.33/bin/bin/../../lib/gcc/pic32mx/4.5.2/../../../../pic32mx/lib\libm.a(fp32div.o)
 .data          0x00000000        0x0 c:/program files (x86)/microchip/xc32/v1.33/bin/bin/../../lib/gcc/pic32mx/4.5.2/../../../../pic32mx/lib\libm.a(fp32div.o)
 .bss           0x00000000        0x0 c:/program files (x86)/microchip/xc32/v1.33/bin/bin/../../lib/gcc/pic32mx/4.5.2/../../../../pic32mx/lib\libm.a(fp32div.o)
 .reginfo       0x00000000       0x18 c:/program files (x86)/microchip/xc32/v1.33/bin/bin/../../lib/gcc/pic32mx/4.5.2/../../../../pic32mx/lib\libm.a(fp32div.o)
 .text          0x00000000        0x0 c:/program files (x86)/microchip/xc32/v1.33/bin/bin/../../lib/gcc/pic32mx/4.5.2/../../../../pic32mx/lib\libm.a(fp32mul.o)
 .data          0x00000000        0x0 c:/program files (x86)/microchip/xc32/v1.33/bin/bin/../../lib/gcc/pic32mx/4.5.2/../../../../pic32mx/lib\libm.a(fp32mul.o)
 .bss           0x00000000        0x0 c:/program files (x86)/microchip/xc32/v1.33/bin/bin/../../lib/gcc/pic32mx/4.5.2/../../../../pic32mx/lib\libm.a(fp32mul.o)
 .reginfo       0x00000000       0x18 c:/program files (x86)/microchip/xc32/v1.33/bin/bin/../../lib/gcc/pic32mx/4.5.2/../../../../pic32mx/lib\libm.a(fp32mul.o)
 .text          0x00000000        0x0 c:/program files (x86)/microchip/xc32/v1.33/bin/bin/../../lib/gcc/pic32mx/4.5.2/../../../../pic32mx/lib\libm.a(fp32subadd.o)
 .data          0x00000000        0x0 c:/program files (x86)/microchip/xc32/v1.33/bin/bin/../../lib/gcc/pic32mx/4.5.2/../../../../pic32mx/lib\libm.a(fp32subadd.o)
 .bss           0x00000000        0x0 c:/program files (x86)/microchip/xc32/v1.33/bin/bin/../../lib/gcc/pic32mx/4.5.2/../../../../pic32mx/lib\libm.a(fp32subadd.o)
 .reginfo       0x00000000       0x18 c:/program files (x86)/microchip/xc32/v1.33/bin/bin/../../lib/gcc/pic32mx/4.5.2/../../../../pic32mx/lib\libm.a(fp32subadd.o)
 .text          0x00000000        0x0 c:/program files (x86)/microchip/xc32/v1.33/bin/bin/../../lib/gcc/pic32mx/4.5.2/../../../../pic32mx/lib\libm.a(fpcmp.o)
 .data          0x00000000        0x0 c:/program files (x86)/microchip/xc32/v1.33/bin/bin/../../lib/gcc/pic32mx/4.5.2/../../../../pic32mx/lib\libm.a(fpcmp.o)
 .bss           0x00000000        0x0 c:/program files (x86)/microchip/xc32/v1.33/bin/bin/../../lib/gcc/pic32mx/4.5.2/../../../../pic32mx/lib\libm.a(fpcmp.o)
 .reginfo       0x00000000       0x18 c:/program files (x86)/microchip/xc32/v1.33/bin/bin/../../lib/gcc/pic32mx/4.5.2/../../../../pic32mx/lib\libm.a(fpcmp.o)
 .text          0x00000000        0x0 c:/program files (x86)/microchip/xc32/v1.33/bin/bin/../../lib/gcc/pic32mx/4.5.2/../../../../pic32mx/lib\libm.a(fpfrexp.o)
 .data          0x00000000        0x0 c:/program files (x86)/microchip/xc32/v1.33/bin/bin/../../lib/gcc/pic32mx/4.5.2/../../../../pic32mx/lib\libm.a(fpfrexp.o)
 .bss           0x00000000        0x0 c:/program files (x86)/microchip/xc32/v1.33/bin/bin/../../lib/gcc/pic32mx/4.5.2/../../../../pic32mx/lib\libm.a(fpfrexp.o)
 .reginfo       0x00000000       0x18 c:/program files (x86)/microchip/xc32/v1.33/bin/bin/../../lib/gcc/pic32mx/4.5.2/../../../../pic32mx/lib\libm.a(fpfrexp.o)
 .text          0x00000000        0x0 c:/program files (x86)/microchip/xc32/v1.33/bin/bin/../../lib/gcc/pic32mx/4.5.2/../../../../pic32mx/lib\libm.a(fptoul.o)
 .data          0x00000000        0x0 c:/program files (x86)/microchip/xc32/v1.33/bin/bin/../../lib/gcc/pic32mx/4.5.2/../../../../pic32mx/lib\libm.a(fptoul.o)
 .bss           0x00000000        0x0 c:/program files (x86)/microchip/xc32/v1.33/bin/bin/../../lib/gcc/pic32mx/4.5.2/../../../../pic32mx/lib\libm.a(fptoul.o)
 .reginfo       0x00000000       0x18 c:/program files (x86)/microchip/xc32/v1.33/bin/bin/../../lib/gcc/pic32mx/4.5.2/../../../../pic32mx/lib\libm.a(fptoul.o)
 .text          0x00000000        0x0 c:/program files (x86)/microchip/xc32/v1.33/bin/bin/../../lib/gcc/pic32mx/4.5.2/../../../../pic32mx/lib\libe.a(_floatdisf.o)
 .data          0x00000000        0x0 c:/program files (x86)/microchip/xc32/v1.33/bin/bin/../../lib/gcc/pic32mx/4.5.2/../../../../pic32mx/lib\libe.a(_floatdisf.o)
 .bss           0x00000000        0x0 c:/program files (x86)/microchip/xc32/v1.33/bin/bin/../../lib/gcc/pic32mx/4.5.2/../../../../pic32mx/lib\libe.a(_floatdisf.o)
 .reginfo       0x00000000       0x18 c:/program files (x86)/microchip/xc32/v1.33/bin/bin/../../lib/gcc/pic32mx/4.5.2/../../../../pic32mx/lib\libe.a(_floatdisf.o)
 .data          0x00000000        0x0 c:/program files (x86)/microchip/xc32/v1.33/bin/bin/../../lib/gcc/pic32mx/4.5.2\libgcc.a(_floatundisf.o)
 .bss           0x00000000        0x0 c:/program files (x86)/microchip/xc32/v1.33/bin/bin/../../lib/gcc/pic32mx/4.5.2\libgcc.a(_floatundisf.o)
 .reginfo       0x00000000       0x18 c:/program files (x86)/microchip/xc32/v1.33/bin/bin/../../lib/gcc/pic32mx/4.5.2\libgcc.a(_floatundisf.o)
 .data          0x00000000        0x0 c:/program files (x86)/microchip/xc32/v1.33/bin/bin/../../lib/gcc/pic32mx/4.5.2\libgcc.a(_umoddi3.o)
 .bss           0x00000000        0x0 c:/program files (x86)/microchip/xc32/v1.33/bin/bin/../../lib/gcc/pic32mx/4.5.2\libgcc.a(_umoddi3.o)
 .reginfo       0x00000000       0x18 c:/program files (x86)/microchip/xc32/v1.33/bin/bin/../../lib/gcc/pic32mx/4.5.2\libgcc.a(_umoddi3.o)
 .data          0x00000000        0x0 c:/program files (x86)/microchip/xc32/v1.33/bin/bin/../../lib/gcc/pic32mx/4.5.2\libgcc.a(floatunsisf.o)
 .bss           0x00000000        0x0 c:/program files (x86)/microchip/xc32/v1.33/bin/bin/../../lib/gcc/pic32mx/4.5.2\libgcc.a(floatunsisf.o)
 .reginfo       0x00000000       0x18 c:/program files (x86)/microchip/xc32/v1.33/bin/bin/../../lib/gcc/pic32mx/4.5.2\libgcc.a(floatunsisf.o)
 .text          0x00000000        0x0 c:/program files (x86)/microchip/xc32/v1.33/bin/bin/../../lib/gcc/pic32mx/4.5.2/../../../../pic32mx/lib\libm.a(sitofp.o)
 .data          0x00000000        0x0 c:/program files (x86)/microchip/xc32/v1.33/bin/bin/../../lib/gcc/pic32mx/4.5.2/../../../../pic32mx/lib\libm.a(sitofp.o)
 .bss           0x00000000        0x0 c:/program files (x86)/microchip/xc32/v1.33/bin/bin/../../lib/gcc/pic32mx/4.5.2/../../../../pic32mx/lib\libm.a(sitofp.o)
 .reginfo       0x00000000       0x18 c:/program files (x86)/microchip/xc32/v1.33/bin/bin/../../lib/gcc/pic32mx/4.5.2/../../../../pic32mx/lib\libm.a(sitofp.o)

Memory Configuration

Name             Origin             Length             Attributes
kseg0_program_mem 0x9d000000         0x00080000         xr
kseg0_boot_mem   0x9fc00490         0x00000970
exception_mem    0x9fc01000         0x00001000
kseg1_boot_mem   0xbfc00000         0x00000490
debug_exec_mem   0xbfc02000         0x00000ff0
config3          0xbfc02ff0         0x00000004
config2          0xbfc02ff4         0x00000004
config1          0xbfc02ff8         0x00000004
config0          0xbfc02ffc         0x00000004
kseg1_data_mem   0xa0000000         0x00020000         w !x
sfrs             0xbf800000         0x00100000
configsfrs       0xbfc02ff0         0x00000010
*default*        0x00000000         0xffffffff

Linker script and memory map

LOAD c:/program files (x86)/microchip/xc32/v1.33/bin/bin/../../lib/gcc/pic32mx/4.5.2/../../../../pic32mx/lib/./proc/32MX795F512L/crt0_mips32r2.o
LOAD c:/program files (x86)/microchip/xc32/v1.33/bin/bin/../../lib/gcc/pic32mx/4.5.2/../../../../pic32mx/lib\debug-exception-return.o
LOAD build/default/production/_ext/595770632/random.o
LOAD build/default/production/_ext/595770632/arc4.o
LOAD build/default/production/_ext/595770632/crypto.o
LOAD build/default/production/_ext/1986204992/drv_ethmac.o
LOAD build/default/production/_ext/1986204992/drv_ethmac_lib.o
LOAD build/default/production/_ext/810051186/drv_ethphy.o
LOAD build/default/production/_ext/810051186/drv_extphy_smsc8740.o
LOAD build/default/production/_ext/304478105/drv_tmr.o
LOAD build/default/production/_ext/335806368/sys_devcon.o
LOAD build/default/production/_ext/335806368/sys_devcon_pic32mx.o
LOAD build/default/production/_ext/1055666758/sys_int_pic32.o
LOAD build/default/production/_ext/1237536663/sys_ports.o
LOAD build/default/production/_ext/323145514/sys_random.o
LOAD build/default/production/_ext/346722522/sys_reset.o
LOAD build/default/production/_ext/2097170832/sys_tmr.o
LOAD build/default/production/_ext/1144052859/tcp.o
LOAD build/default/production/_ext/1144052859/udp.o
LOAD build/default/production/_ext/1144052859/arp.o
LOAD build/default/production/_ext/1144052859/dhcp.o
LOAD build/default/production/_ext/1144052859/dns.o
LOAD build/default/production/_ext/1144052859/icmp.o
LOAD build/default/production/_ext/1144052859/nbns.o
LOAD build/default/production/_ext/1144052859/zero_conf_helper.o
LOAD build/default/production/_ext/1144052859/zero_conf_link_local.o
LOAD build/default/production/_ext/1144052859/tcpip_announce.o
LOAD build/default/production/_ext/1144052859/tcpip_commands.o
LOAD build/default/production/_ext/1997815295/big_int.o
LOAD build/default/production/_ext/1997815295/big_int_helper_c32.o
LOAD build/default/production/_ext/1997815295/hashes.o
LOAD build/default/production/_ext/1997815295/helpers.o
LOAD build/default/production/_ext/1997815295/lfsr.o
LOAD build/default/production/_ext/1144052859/hash_fnv.o
LOAD build/default/production/_ext/1144052859/oahash.o
LOAD build/default/production/_ext/1144052859/tcpip_heap_alloc.o
LOAD build/default/production/_ext/1144052859/tcpip_helpers.o
LOAD build/default/production/_ext/1144052859/tcpip_helper_c32.o
LOAD build/default/production/_ext/1144052859/tcpip_manager.o
LOAD build/default/production/_ext/1144052859/tcpip_notify.o
LOAD build/default/production/_ext/1144052859/tcpip_packet.o
LOAD build/default/production/_ext/1829665213/system_debug.o
LOAD build/default/production/_ext/918699391/usart.o
LOAD build/default/production/_ext/1829665213/system_command.o
LOAD build/default/production/_ext/1144052859/ipv4.o
LOAD build/default/production/_ext/1360937237/app.o
LOAD build/default/production/_ext/639803181/sys_clk_static.o
LOAD build/default/production/_ext/822048611/sys_ports_static.o
LOAD build/default/production/_ext/1688732426/system_init.o
LOAD build/default/production/_ext/1688732426/system_interrupt.o
LOAD build/default/production/_ext/1360937237/main.o
LOAD build/default/production/_ext/1688732426/system_tasks.o
LOAD ..\..\..\..\..\..\..\..\microchip\harmony\v1_02\bin\framework\peripheral\PIC32MX795F512L_peripherals.a
                0x00000001                __MPLAB_BUILD = 0x1
                0x0000afa0                _min_heap_size = 0xafa0
LOAD c:/program files (x86)/microchip/xc32/v1.33/bin/bin/../../lib/gcc/pic32mx/4.5.2/../../../../pic32mx/lib/./proc/32MX795F512L\default_isr_vectors.o
LOAD c:/program files (x86)/microchip/xc32/v1.33/bin/bin/../../lib/gcc/pic32mx/4.5.2/../../../../pic32mx/lib\pic32_software_reset.o
                0x00000400                PROVIDE (_min_stack_size, 0x400)
LOAD c:/program files (x86)/microchip/xc32/v1.33/bin/bin/../../lib/gcc/pic32mx/4.5.2/../../../../pic32mx/lib/./proc/32MX795F512L\processor.o
START GROUP
LOAD c:/program files (x86)/microchip/xc32/v1.33/bin/bin/../../lib/gcc/pic32mx/4.5.2/../../../../pic32mx/lib\libmchp_peripheral.a
END GROUP
START GROUP
LOAD c:/program files (x86)/microchip/xc32/v1.33/bin/bin/../../lib/gcc/pic32mx/4.5.2/../../../../pic32mx/lib\libmchp_peripheral_32MX795F512L.a
END GROUP
                0x00000001                PROVIDE (_vector_spacing, 0x1)
                0x9fc01000                _ebase_address = 0x9fc01000
                0xbfc00000                _RESET_ADDR = 0xbfc00000
                0xbfc00380                _BEV_EXCPT_ADDR = 0xbfc00380
                0xbfc00480                _DBG_EXCPT_ADDR = 0xbfc00480
                0xbfc02000                _DBG_CODE_ADDR = 0xbfc02000
                0x00000ff0                _DBG_CODE_SIZE = 0xff0
                0x9fc01180                _GEN_EXCPT_ADDR = (_ebase_address + 0x180)

.config_BFC02FF0
                0xbfc02ff0        0x4
 *(.config_BFC02FF0)
 .config_BFC02FF0
                0xbfc02ff0        0x4 build/default/production/_ext/1688732426/system_init.o

.config_BFC02FF4
                0xbfc02ff4        0x4
 *(.config_BFC02FF4)
 .config_BFC02FF4
                0xbfc02ff4        0x4 build/default/production/_ext/1688732426/system_init.o

.config_BFC02FF8
                0xbfc02ff8        0x4
 *(.config_BFC02FF8)
 .config_BFC02FF8
                0xbfc02ff8        0x4 build/default/production/_ext/1688732426/system_init.o

.config_BFC02FFC
                0xbfc02ffc        0x4
 *(.config_BFC02FFC)
 .config_BFC02FFC
                0xbfc02ffc        0x4 build/default/production/_ext/1688732426/system_init.o
                0xbfc02000                PROVIDE (_DBG_CODE_ADDR, 0xbfc02000)
                0x00000ff0                PROVIDE (_DBG_CODE_SIZE, 0xff0)

.reset          0xbfc00000      0x1f0
 *(.reset)
 .reset         0xbfc00000        0x8 c:/program files (x86)/microchip/xc32/v1.33/bin/bin/../../lib/gcc/pic32mx/4.5.2/../../../../pic32mx/lib/./proc/32MX795F512L/crt0_mips32r2.o
                0xbfc00000                _reset
 *(.reset.startup)
 .reset.startup
                0xbfc00008      0x1e8 c:/program files (x86)/microchip/xc32/v1.33/bin/bin/../../lib/gcc/pic32mx/4.5.2/../../../../pic32mx/lib/./proc/32MX795F512L/crt0_mips32r2.o

.bev_excpt      0xbfc00380       0x10
 *(.bev_handler)
 .bev_handler   0xbfc00380       0x10 c:/program files (x86)/microchip/xc32/v1.33/bin/bin/../../lib/gcc/pic32mx/4.5.2/../../../../pic32mx/lib/./proc/32MX795F512L/crt0_mips32r2.o

.dbg_excpt      0xbfc00480        0x0
                0xbfc00480                . = (. + DEFINED (_DEBUGGER)?0x8:0x0)

.dbg_code       0xbfc02000        0x0
                0xbfc02000                . = (. + DEFINED (_DEBUGGER)?_DBG_CODE_SIZE:0x0)

.app_excpt      0x9fc01180       0x10
 *(.gen_handler)
 .gen_handler   0x9fc01180       0x10 c:/program files (x86)/microchip/xc32/v1.33/bin/bin/../../lib/gcc/pic32mx/4.5.2/../../../../pic32mx/lib/./proc/32MX795F512L/crt0_mips32r2.o

.vector_0       0x9fc01200        0x8
 *(.vector_0)
 .vector_0      0x9fc01200        0x8 c:/program files (x86)/microchip/xc32/v1.33/bin/bin/../../lib/gcc/pic32mx/4.5.2/../../../../pic32mx/lib\libpic32.a(vector0.o)
                0x9fc01200                __vector_dispatch_0
                0x00000001                ASSERT (((_vector_spacing == 0x0) || (SIZEOF (.vector_0) <= (_vector_spacing << 0x5))), function at exception vector 0 too large)

.vector_1       0x9fc01220        0x8
 *(.vector_1)
 .vector_1      0x9fc01220        0x8 c:/program files (x86)/microchip/xc32/v1.33/bin/bin/../../lib/gcc/pic32mx/4.5.2/../../../../pic32mx/lib\libpic32.a(vector1.o)
                0x9fc01220                __vector_dispatch_1
                0x00000001                ASSERT (((_vector_spacing == 0x0) || (SIZEOF (.vector_1) <= (_vector_spacing << 0x5))), function at exception vector 1 too large)

.vector_2       0x9fc01240        0x8
 *(.vector_2)
 .vector_2      0x9fc01240        0x8 c:/program files (x86)/microchip/xc32/v1.33/bin/bin/../../lib/gcc/pic32mx/4.5.2/../../../../pic32mx/lib\libpic32.a(vector2.o)
                0x9fc01240                __vector_dispatch_2
                0x00000001                ASSERT (((_vector_spacing == 0x0) || (SIZEOF (.vector_2) <= (_vector_spacing << 0x5))), function at exception vector 2 too large)

.vector_3       0x9fc01260        0x8
 *(.vector_3)
 .vector_3      0x9fc01260        0x8 c:/program files (x86)/microchip/xc32/v1.33/bin/bin/../../lib/gcc/pic32mx/4.5.2/../../../../pic32mx/lib\libpic32.a(vector3.o)
                0x9fc01260                __vector_dispatch_3
                0x00000001                ASSERT (((_vector_spacing == 0x0) || (SIZEOF (.vector_3) <= (_vector_spacing << 0x5))), function at exception vector 3 too large)

.vector_4       0x9fc01280        0x8
 *(.vector_4)
 .vector_4      0x9fc01280        0x8 build/default/production/_ext/1688732426/system_interrupt.o
                0x9fc01280                __vector_dispatch_4
                0x00000001                ASSERT (((_vector_spacing == 0x0) || (SIZEOF (.vector_4) <= (_vector_spacing << 0x5))), function at exception vector 4 too large)

.vector_5       0x9fc012a0        0x8
 *(.vector_5)
 .vector_5      0x9fc012a0        0x8 c:/program files (x86)/microchip/xc32/v1.33/bin/bin/../../lib/gcc/pic32mx/4.5.2/../../../../pic32mx/lib\libpic32.a(vector5.o)
                0x9fc012a0                __vector_dispatch_5
                0x00000001                ASSERT (((_vector_spacing == 0x0) || (SIZEOF (.vector_5) <= (_vector_spacing << 0x5))), function at exception vector 5 too large)

.vector_6       0x9fc012c0        0x8
 *(.vector_6)
 .vector_6      0x9fc012c0        0x8 c:/program files (x86)/microchip/xc32/v1.33/bin/bin/../../lib/gcc/pic32mx/4.5.2/../../../../pic32mx/lib\libpic32.a(vector6.o)
                0x9fc012c0                __vector_dispatch_6
                0x00000001                ASSERT (((_vector_spacing == 0x0) || (SIZEOF (.vector_6) <= (_vector_spacing << 0x5))), function at exception vector 6 too large)

.vector_7       0x9fc012e0        0x8
 *(.vector_7)
 .vector_7      0x9fc012e0        0x8 c:/program files (x86)/microchip/xc32/v1.33/bin/bin/../../lib/gcc/pic32mx/4.5.2/../../../../pic32mx/lib\libpic32.a(vector7.o)
                0x9fc012e0                __vector_dispatch_7
                0x00000001                ASSERT (((_vector_spacing == 0x0) || (SIZEOF (.vector_7) <= (_vector_spacing << 0x5))), function at exception vector 7 too large)

.vector_8       0x9fc01300        0x8
 *(.vector_8)
 .vector_8      0x9fc01300        0x8 c:/program files (x86)/microchip/xc32/v1.33/bin/bin/../../lib/gcc/pic32mx/4.5.2/../../../../pic32mx/lib\libpic32.a(vector8.o)
                0x9fc01300                __vector_dispatch_8
                0x00000001                ASSERT (((_vector_spacing == 0x0) || (SIZEOF (.vector_8) <= (_vector_spacing << 0x5))), function at exception vector 8 too large)

.vector_9       0x9fc01320        0x8
 *(.vector_9)
 .vector_9      0x9fc01320        0x8 c:/program files (x86)/microchip/xc32/v1.33/bin/bin/../../lib/gcc/pic32mx/4.5.2/../../../../pic32mx/lib\libpic32.a(vector9.o)
                0x9fc01320                __vector_dispatch_9
                0x00000001                ASSERT (((_vector_spacing == 0x0) || (SIZEOF (.vector_9) <= (_vector_spacing << 0x5))), function at exception vector 9 too large)

.vector_10      0x9fc01340        0x8
 *(.vector_10)
 .vector_10     0x9fc01340        0x8 c:/program files (x86)/microchip/xc32/v1.33/bin/bin/../../lib/gcc/pic32mx/4.5.2/../../../../pic32mx/lib\libpic32.a(vector10.o)
                0x9fc01340                __vector_dispatch_10
                0x00000001                ASSERT (((_vector_spacing == 0x0) || (SIZEOF (.vector_10) <= (_vector_spacing << 0x5))), function at exception vector 10 too large)

.vector_11      0x9fc01360        0x8
 *(.vector_11)
 .vector_11     0x9fc01360        0x8 c:/program files (x86)/microchip/xc32/v1.33/bin/bin/../../lib/gcc/pic32mx/4.5.2/../../../../pic32mx/lib\libpic32.a(vector11.o)
                0x9fc01360                __vector_dispatch_11
                0x00000001                ASSERT (((_vector_spacing == 0x0) || (SIZEOF (.vector_11) <= (_vector_spacing << 0x5))), function at exception vector 11 too large)

.vector_12      0x9fc01380        0x8
 *(.vector_12)
 .vector_12     0x9fc01380        0x8 c:/program files (x86)/microchip/xc32/v1.33/bin/bin/../../lib/gcc/pic32mx/4.5.2/../../../../pic32mx/lib\libpic32.a(vector12.o)
                0x9fc01380                __vector_dispatch_12
                0x00000001                ASSERT (((_vector_spacing == 0x0) || (SIZEOF (.vector_12) <= (_vector_spacing << 0x5))), function at exception vector 12 too large)

.vector_13      0x9fc013a0        0x8
 *(.vector_13)
 .vector_13     0x9fc013a0        0x8 c:/program files (x86)/microchip/xc32/v1.33/bin/bin/../../lib/gcc/pic32mx/4.5.2/../../../../pic32mx/lib\libpic32.a(vector13.o)
                0x9fc013a0                __vector_dispatch_13
                0x00000001                ASSERT (((_vector_spacing == 0x0) || (SIZEOF (.vector_13) <= (_vector_spacing << 0x5))), function at exception vector 13 too large)

.vector_14      0x9fc013c0        0x8
 *(.vector_14)
 .vector_14     0x9fc013c0        0x8 c:/program files (x86)/microchip/xc32/v1.33/bin/bin/../../lib/gcc/pic32mx/4.5.2/../../../../pic32mx/lib\libpic32.a(vector14.o)
                0x9fc013c0                __vector_dispatch_14
                0x00000001                ASSERT (((_vector_spacing == 0x0) || (SIZEOF (.vector_14) <= (_vector_spacing << 0x5))), function at exception vector 14 too large)

.vector_15      0x9fc013e0        0x8
 *(.vector_15)
 .vector_15     0x9fc013e0        0x8 c:/program files (x86)/microchip/xc32/v1.33/bin/bin/../../lib/gcc/pic32mx/4.5.2/../../../../pic32mx/lib\libpic32.a(vector15.o)
                0x9fc013e0                __vector_dispatch_15
                0x00000001                ASSERT (((_vector_spacing == 0x0) || (SIZEOF (.vector_15) <= (_vector_spacing << 0x5))), function at exception vector 15 too large)

.vector_16      0x9fc01400        0x8
 *(.vector_16)
 .vector_16     0x9fc01400        0x8 c:/program files (x86)/microchip/xc32/v1.33/bin/bin/../../lib/gcc/pic32mx/4.5.2/../../../../pic32mx/lib\libpic32.a(vector16.o)
                0x9fc01400                __vector_dispatch_16
                0x00000001                ASSERT (((_vector_spacing == 0x0) || (SIZEOF (.vector_16) <= (_vector_spacing << 0x5))), function at exception vector 16 too large)

.vector_17      0x9fc01420        0x8
 *(.vector_17)
 .vector_17     0x9fc01420        0x8 c:/program files (x86)/microchip/xc32/v1.33/bin/bin/../../lib/gcc/pic32mx/4.5.2/../../../../pic32mx/lib\libpic32.a(vector17.o)
                0x9fc01420                __vector_dispatch_17
                0x00000001                ASSERT (((_vector_spacing == 0x0) || (SIZEOF (.vector_17) <= (_vector_spacing << 0x5))), function at exception vector 17 too large)

.vector_18      0x9fc01440        0x8
 *(.vector_18)
 .vector_18     0x9fc01440        0x8 c:/program files (x86)/microchip/xc32/v1.33/bin/bin/../../lib/gcc/pic32mx/4.5.2/../../../../pic32mx/lib\libpic32.a(vector18.o)
                0x9fc01440                __vector_dispatch_18
                0x00000001                ASSERT (((_vector_spacing == 0x0) || (SIZEOF (.vector_18) <= (_vector_spacing << 0x5))), function at exception vector 18 too large)

.vector_19      0x9fc01460        0x8
 *(.vector_19)
 .vector_19     0x9fc01460        0x8 c:/program files (x86)/microchip/xc32/v1.33/bin/bin/../../lib/gcc/pic32mx/4.5.2/../../../../pic32mx/lib\libpic32.a(vector19.o)
                0x9fc01460                __vector_dispatch_19
                0x00000001                ASSERT (((_vector_spacing == 0x0) || (SIZEOF (.vector_19) <= (_vector_spacing << 0x5))), function at exception vector 19 too large)

.vector_20      0x9fc01480        0x8
 *(.vector_20)
 .vector_20     0x9fc01480        0x8 c:/program files (x86)/microchip/xc32/v1.33/bin/bin/../../lib/gcc/pic32mx/4.5.2/../../../../pic32mx/lib\libpic32.a(vector20.o)
                0x9fc01480                __vector_dispatch_20
                0x00000001                ASSERT (((_vector_spacing == 0x0) || (SIZEOF (.vector_20) <= (_vector_spacing << 0x5))), function at exception vector 20 too large)

.vector_21      0x9fc014a0        0x8
 *(.vector_21)
 .vector_21     0x9fc014a0        0x8 c:/program files (x86)/microchip/xc32/v1.33/bin/bin/../../lib/gcc/pic32mx/4.5.2/../../../../pic32mx/lib\libpic32.a(vector21.o)
                0x9fc014a0                __vector_dispatch_21
                0x00000001                ASSERT (((_vector_spacing == 0x0) || (SIZEOF (.vector_21) <= (_vector_spacing << 0x5))), function at exception vector 21 too large)

.vector_22      0x9fc014c0        0x8
 *(.vector_22)
 .vector_22     0x9fc014c0        0x8 c:/program files (x86)/microchip/xc32/v1.33/bin/bin/../../lib/gcc/pic32mx/4.5.2/../../../../pic32mx/lib\libpic32.a(vector22.o)
                0x9fc014c0                __vector_dispatch_22
                0x00000001                ASSERT (((_vector_spacing == 0x0) || (SIZEOF (.vector_22) <= (_vector_spacing << 0x5))), function at exception vector 22 too large)

.vector_23      0x9fc014e0        0x8
 *(.vector_23)
 .vector_23     0x9fc014e0        0x8 c:/program files (x86)/microchip/xc32/v1.33/bin/bin/../../lib/gcc/pic32mx/4.5.2/../../../../pic32mx/lib\libpic32.a(vector23.o)
                0x9fc014e0                __vector_dispatch_23
                0x00000001                ASSERT (((_vector_spacing == 0x0) || (SIZEOF (.vector_23) <= (_vector_spacing << 0x5))), function at exception vector 23 too large)

.vector_24      0x9fc01500        0x8
 *(.vector_24)
 .vector_24     0x9fc01500        0x8 c:/program files (x86)/microchip/xc32/v1.33/bin/bin/../../lib/gcc/pic32mx/4.5.2/../../../../pic32mx/lib\libpic32.a(vector24.o)
                0x9fc01500                __vector_dispatch_24
                0x00000001                ASSERT (((_vector_spacing == 0x0) || (SIZEOF (.vector_24) <= (_vector_spacing << 0x5))), function at exception vector 24 too large)

.vector_25      0x9fc01520        0x8
 *(.vector_25)
 .vector_25     0x9fc01520        0x8 c:/program files (x86)/microchip/xc32/v1.33/bin/bin/../../lib/gcc/pic32mx/4.5.2/../../../../pic32mx/lib\libpic32.a(vector25.o)
                0x9fc01520                __vector_dispatch_25
                0x00000001                ASSERT (((_vector_spacing == 0x0) || (SIZEOF (.vector_25) <= (_vector_spacing << 0x5))), function at exception vector 25 too large)

.vector_26      0x9fc01540        0x8
 *(.vector_26)
 .vector_26     0x9fc01540        0x8 c:/program files (x86)/microchip/xc32/v1.33/bin/bin/../../lib/gcc/pic32mx/4.5.2/../../../../pic32mx/lib\libpic32.a(vector26.o)
                0x9fc01540                __vector_dispatch_26
                0x00000001                ASSERT (((_vector_spacing == 0x0) || (SIZEOF (.vector_26) <= (_vector_spacing << 0x5))), function at exception vector 26 too large)

.vector_27      0x9fc01560        0x8
 *(.vector_27)
 .vector_27     0x9fc01560        0x8 c:/program files (x86)/microchip/xc32/v1.33/bin/bin/../../lib/gcc/pic32mx/4.5.2/../../../../pic32mx/lib\libpic32.a(vector27.o)
                0x9fc01560                __vector_dispatch_27
                0x00000001                ASSERT (((_vector_spacing == 0x0) || (SIZEOF (.vector_27) <= (_vector_spacing << 0x5))), function at exception vector 27 too large)

.vector_28      0x9fc01580        0x8
 *(.vector_28)
 .vector_28     0x9fc01580        0x8 c:/program files (x86)/microchip/xc32/v1.33/bin/bin/../../lib/gcc/pic32mx/4.5.2/../../../../pic32mx/lib\libpic32.a(vector28.o)
                0x9fc01580                __vector_dispatch_28
                0x00000001                ASSERT (((_vector_spacing == 0x0) || (SIZEOF (.vector_28) <= (_vector_spacing << 0x5))), function at exception vector 28 too large)

.vector_29      0x9fc015a0        0x8
 *(.vector_29)
 .vector_29     0x9fc015a0        0x8 c:/program files (x86)/microchip/xc32/v1.33/bin/bin/../../lib/gcc/pic32mx/4.5.2/../../../../pic32mx/lib\libpic32.a(vector29.o)
                0x9fc015a0                __vector_dispatch_29
                0x00000001                ASSERT (((_vector_spacing == 0x0) || (SIZEOF (.vector_29) <= (_vector_spacing << 0x5))), function at exception vector 29 too large)

.vector_30      0x9fc015c0        0x8
 *(.vector_30)
 .vector_30     0x9fc015c0        0x8 c:/program files (x86)/microchip/xc32/v1.33/bin/bin/../../lib/gcc/pic32mx/4.5.2/../../../../pic32mx/lib\libpic32.a(vector30.o)
                0x9fc015c0                __vector_dispatch_30
                0x00000001                ASSERT (((_vector_spacing == 0x0) || (SIZEOF (.vector_30) <= (_vector_spacing << 0x5))), function at exception vector 30 too large)

.vector_31      0x9fc015e0        0x8
 *(.vector_31)
 .vector_31     0x9fc015e0        0x8 c:/program files (x86)/microchip/xc32/v1.33/bin/bin/../../lib/gcc/pic32mx/4.5.2/../../../../pic32mx/lib\libpic32.a(vector31.o)
                0x9fc015e0                __vector_dispatch_31
                0x00000001                ASSERT (((_vector_spacing == 0x0) || (SIZEOF (.vector_31) <= (_vector_spacing << 0x5))), function at exception vector 31 too large)

.vector_32      0x9fc01600        0x8
 *(.vector_32)
 .vector_32     0x9fc01600        0x8 c:/program files (x86)/microchip/xc32/v1.33/bin/bin/../../lib/gcc/pic32mx/4.5.2/../../../../pic32mx/lib\libpic32.a(vector32.o)
                0x9fc01600                __vector_dispatch_32
                0x00000001                ASSERT (((_vector_spacing == 0x0) || (SIZEOF (.vector_32) <= (_vector_spacing << 0x5))), function at exception vector 32 too large)

.vector_33      0x9fc01620        0x8
 *(.vector_33)
 .vector_33     0x9fc01620        0x8 c:/program files (x86)/microchip/xc32/v1.33/bin/bin/../../lib/gcc/pic32mx/4.5.2/../../../../pic32mx/lib\libpic32.a(vector33.o)
                0x9fc01620                __vector_dispatch_33
                0x00000001                ASSERT (((_vector_spacing == 0x0) || (SIZEOF (.vector_33) <= (_vector_spacing << 0x5))), function at exception vector 33 too large)

.vector_34      0x9fc01640        0x8
 *(.vector_34)
 .vector_34     0x9fc01640        0x8 c:/program files (x86)/microchip/xc32/v1.33/bin/bin/../../lib/gcc/pic32mx/4.5.2/../../../../pic32mx/lib\libpic32.a(vector34.o)
                0x9fc01640                __vector_dispatch_34
                0x00000001                ASSERT (((_vector_spacing == 0x0) || (SIZEOF (.vector_34) <= (_vector_spacing << 0x5))), function at exception vector 34 too large)

.vector_35      0x9fc01660        0x8
 *(.vector_35)
 .vector_35     0x9fc01660        0x8 c:/program files (x86)/microchip/xc32/v1.33/bin/bin/../../lib/gcc/pic32mx/4.5.2/../../../../pic32mx/lib\libpic32.a(vector35.o)
                0x9fc01660                __vector_dispatch_35
                0x00000001                ASSERT (((_vector_spacing == 0x0) || (SIZEOF (.vector_35) <= (_vector_spacing << 0x5))), function at exception vector 35 too large)

.vector_36      0x9fc01680        0x8
 *(.vector_36)
 .vector_36     0x9fc01680        0x8 c:/program files (x86)/microchip/xc32/v1.33/bin/bin/../../lib/gcc/pic32mx/4.5.2/../../../../pic32mx/lib\libpic32.a(vector36.o)
                0x9fc01680                __vector_dispatch_36
                0x00000001                ASSERT (((_vector_spacing == 0x0) || (SIZEOF (.vector_36) <= (_vector_spacing << 0x5))), function at exception vector 36 too large)

.vector_37      0x9fc016a0        0x8
 *(.vector_37)
 .vector_37     0x9fc016a0        0x8 c:/program files (x86)/microchip/xc32/v1.33/bin/bin/../../lib/gcc/pic32mx/4.5.2/../../../../pic32mx/lib\libpic32.a(vector37.o)
                0x9fc016a0                __vector_dispatch_37
                0x00000001                ASSERT (((_vector_spacing == 0x0) || (SIZEOF (.vector_37) <= (_vector_spacing << 0x5))), function at exception vector 37 too large)

.vector_38      0x9fc016c0        0x8
 *(.vector_38)
 .vector_38     0x9fc016c0        0x8 c:/program files (x86)/microchip/xc32/v1.33/bin/bin/../../lib/gcc/pic32mx/4.5.2/../../../../pic32mx/lib\libpic32.a(vector38.o)
                0x9fc016c0                __vector_dispatch_38
                0x00000001                ASSERT (((_vector_spacing == 0x0) || (SIZEOF (.vector_38) <= (_vector_spacing << 0x5))), function at exception vector 38 too large)

.vector_39      0x9fc016e0        0x8
 *(.vector_39)
 .vector_39     0x9fc016e0        0x8 c:/program files (x86)/microchip/xc32/v1.33/bin/bin/../../lib/gcc/pic32mx/4.5.2/../../../../pic32mx/lib\libpic32.a(vector39.o)
                0x9fc016e0                __vector_dispatch_39
                0x00000001                ASSERT (((_vector_spacing == 0x0) || (SIZEOF (.vector_39) <= (_vector_spacing << 0x5))), function at exception vector 39 too large)

.vector_40      0x9fc01700        0x8
 *(.vector_40)
 .vector_40     0x9fc01700        0x8 c:/program files (x86)/microchip/xc32/v1.33/bin/bin/../../lib/gcc/pic32mx/4.5.2/../../../../pic32mx/lib\libpic32.a(vector40.o)
                0x9fc01700                __vector_dispatch_40
                0x00000001                ASSERT (((_vector_spacing == 0x0) || (SIZEOF (.vector_40) <= (_vector_spacing << 0x5))), function at exception vector 40 too large)

.vector_41      0x9fc01720        0x8
 *(.vector_41)
 .vector_41     0x9fc01720        0x8 c:/program files (x86)/microchip/xc32/v1.33/bin/bin/../../lib/gcc/pic32mx/4.5.2/../../../../pic32mx/lib\libpic32.a(vector41.o)
                0x9fc01720                __vector_dispatch_41
                0x00000001                ASSERT (((_vector_spacing == 0x0) || (SIZEOF (.vector_41) <= (_vector_spacing << 0x5))), function at exception vector 41 too large)

.vector_42      0x9fc01740        0x8
 *(.vector_42)
 .vector_42     0x9fc01740        0x8 c:/program files (x86)/microchip/xc32/v1.33/bin/bin/../../lib/gcc/pic32mx/4.5.2/../../../../pic32mx/lib\libpic32.a(vector42.o)
                0x9fc01740                __vector_dispatch_42
                0x00000001                ASSERT (((_vector_spacing == 0x0) || (SIZEOF (.vector_42) <= (_vector_spacing << 0x5))), function at exception vector 42 too large)

.vector_43      0x9fc01760        0x8
 *(.vector_43)
 .vector_43     0x9fc01760        0x8 c:/program files (x86)/microchip/xc32/v1.33/bin/bin/../../lib/gcc/pic32mx/4.5.2/../../../../pic32mx/lib\libpic32.a(vector43.o)
                0x9fc01760                __vector_dispatch_43
                0x00000001                ASSERT (((_vector_spacing == 0x0) || (SIZEOF (.vector_43) <= (_vector_spacing << 0x5))), function at exception vector 43 too large)

.vector_44      0x9fc01780        0x8
 *(.vector_44)
 .vector_44     0x9fc01780        0x8 c:/program files (x86)/microchip/xc32/v1.33/bin/bin/../../lib/gcc/pic32mx/4.5.2/../../../../pic32mx/lib\libpic32.a(vector44.o)
                0x9fc01780                __vector_dispatch_44
                0x00000001                ASSERT (((_vector_spacing == 0x0) || (SIZEOF (.vector_44) <= (_vector_spacing << 0x5))), function at exception vector 44 too large)

.vector_45      0x9fc017a0        0x8
 *(.vector_45)
 .vector_45     0x9fc017a0        0x8 c:/program files (x86)/microchip/xc32/v1.33/bin/bin/../../lib/gcc/pic32mx/4.5.2/../../../../pic32mx/lib\libpic32.a(vector45.o)
                0x9fc017a0                __vector_dispatch_45
                0x00000001                ASSERT (((_vector_spacing == 0x0) || (SIZEOF (.vector_45) <= (_vector_spacing << 0x5))), function at exception vector 45 too large)

.vector_46      0x9fc017c0        0x8
 *(.vector_46)
 .vector_46     0x9fc017c0        0x8 c:/program files (x86)/microchip/xc32/v1.33/bin/bin/../../lib/gcc/pic32mx/4.5.2/../../../../pic32mx/lib\libpic32.a(vector46.o)
                0x9fc017c0                __vector_dispatch_46
                0x00000001                ASSERT (((_vector_spacing == 0x0) || (SIZEOF (.vector_46) <= (_vector_spacing << 0x5))), function at exception vector 46 too large)

.vector_47      0x9fc017e0        0x8
 *(.vector_47)
 .vector_47     0x9fc017e0        0x8 c:/program files (x86)/microchip/xc32/v1.33/bin/bin/../../lib/gcc/pic32mx/4.5.2/../../../../pic32mx/lib\libpic32.a(vector47.o)
                0x9fc017e0                __vector_dispatch_47
                0x00000001                ASSERT (((_vector_spacing == 0x0) || (SIZEOF (.vector_47) <= (_vector_spacing << 0x5))), function at exception vector 47 too large)

.vector_48      0x9fc01800        0x8
 *(.vector_48)
 .vector_48     0x9fc01800        0x8 build/default/production/_ext/1688732426/system_interrupt.o
                0x9fc01800                __vector_dispatch_48
                0x00000001                ASSERT (((_vector_spacing == 0x0) || (SIZEOF (.vector_48) <= (_vector_spacing << 0x5))), function at exception vector 48 too large)

.vector_49      0x9fc01820        0x8
 *(.vector_49)
 .vector_49     0x9fc01820        0x8 c:/program files (x86)/microchip/xc32/v1.33/bin/bin/../../lib/gcc/pic32mx/4.5.2/../../../../pic32mx/lib\libpic32.a(vector49.o)
                0x9fc01820                __vector_dispatch_49
                0x00000001                ASSERT (((_vector_spacing == 0x0) || (SIZEOF (.vector_49) <= (_vector_spacing << 0x5))), function at exception vector 49 too large)

.vector_50      0x9fc01840        0x8
 *(.vector_50)
 .vector_50     0x9fc01840        0x8 c:/program files (x86)/microchip/xc32/v1.33/bin/bin/../../lib/gcc/pic32mx/4.5.2/../../../../pic32mx/lib\libpic32.a(vector50.o)
                0x9fc01840                __vector_dispatch_50
                0x00000001                ASSERT (((_vector_spacing == 0x0) || (SIZEOF (.vector_50) <= (_vector_spacing << 0x5))), function at exception vector 50 too large)

.vector_51      0x9fc01860        0x8
 *(.vector_51)
 .vector_51     0x9fc01860        0x8 c:/program files (x86)/microchip/xc32/v1.33/bin/bin/../../lib/gcc/pic32mx/4.5.2/../../../../pic32mx/lib\libpic32.a(vector51.o)
                0x9fc01860                __vector_dispatch_51
                0x00000001                ASSERT (((_vector_spacing == 0x0) || (SIZEOF (.vector_51) <= (_vector_spacing << 0x5))), function at exception vector 51 too large)

.vector_52      0x9fc01880        0x8
 *(.vector_52)
 .vector_52     0x9fc01880        0x8 c:/program files (x86)/microchip/xc32/v1.33/bin/bin/../../lib/gcc/pic32mx/4.5.2/../../../../pic32mx/lib\libpic32.a(vector52.o)
                0x9fc01880                __vector_dispatch_52
                0x00000001                ASSERT (((_vector_spacing == 0x0) || (SIZEOF (.vector_52) <= (_vector_spacing << 0x5))), function at exception vector 52 too large)

.vector_53      0x9fc018a0        0x8
 *(.vector_53)
 .vector_53     0x9fc018a0        0x8 c:/program files (x86)/microchip/xc32/v1.33/bin/bin/../../lib/gcc/pic32mx/4.5.2/../../../../pic32mx/lib\libpic32.a(vector53.o)
                0x9fc018a0                __vector_dispatch_53
                0x00000001                ASSERT (((_vector_spacing == 0x0) || (SIZEOF (.vector_53) <= (_vector_spacing << 0x5))), function at exception vector 53 too large)

.vector_54      0x9fc018c0        0x8
 *(.vector_54)
 .vector_54     0x9fc018c0        0x8 c:/program files (x86)/microchip/xc32/v1.33/bin/bin/../../lib/gcc/pic32mx/4.5.2/../../../../pic32mx/lib\libpic32.a(vector54.o)
                0x9fc018c0                __vector_dispatch_54
                0x00000001                ASSERT (((_vector_spacing == 0x0) || (SIZEOF (.vector_54) <= (_vector_spacing << 0x5))), function at exception vector 54 too large)

.vector_55      0x9fc018e0        0x8
 *(.vector_55)
 .vector_55     0x9fc018e0        0x8 c:/program files (x86)/microchip/xc32/v1.33/bin/bin/../../lib/gcc/pic32mx/4.5.2/../../../../pic32mx/lib\libpic32.a(vector55.o)
                0x9fc018e0                __vector_dispatch_55
                0x00000001                ASSERT (((_vector_spacing == 0x0) || (SIZEOF (.vector_55) <= (_vector_spacing << 0x5))), function at exception vector 55 too large)

.vector_56      0x9fc01900        0x8
 *(.vector_56)
 .vector_56     0x9fc01900        0x8 c:/program files (x86)/microchip/xc32/v1.33/bin/bin/../../lib/gcc/pic32mx/4.5.2/../../../../pic32mx/lib\libpic32.a(vector56.o)
                0x9fc01900                __vector_dispatch_56
                0x00000001                ASSERT (((_vector_spacing == 0x0) || (SIZEOF (.vector_56) <= (_vector_spacing << 0x5))), function at exception vector 56 too large)

.vector_57      0x9fc01920        0x8
 *(.vector_57)
 .vector_57     0x9fc01920        0x8 c:/program files (x86)/microchip/xc32/v1.33/bin/bin/../../lib/gcc/pic32mx/4.5.2/../../../../pic32mx/lib\libpic32.a(vector57.o)
                0x9fc01920                __vector_dispatch_57
                0x00000001                ASSERT (((_vector_spacing == 0x0) || (SIZEOF (.vector_57) <= (_vector_spacing << 0x5))), function at exception vector 57 too large)

.vector_58      0x9fc01940        0x8
 *(.vector_58)
 .vector_58     0x9fc01940        0x8 c:/program files (x86)/microchip/xc32/v1.33/bin/bin/../../lib/gcc/pic32mx/4.5.2/../../../../pic32mx/lib\libpic32.a(vector58.o)
                0x9fc01940                __vector_dispatch_58
                0x00000001                ASSERT (((_vector_spacing == 0x0) || (SIZEOF (.vector_58) <= (_vector_spacing << 0x5))), function at exception vector 58 too large)

.vector_59      0x9fc01960        0x8
 *(.vector_59)
 .vector_59     0x9fc01960        0x8 c:/program files (x86)/microchip/xc32/v1.33/bin/bin/../../lib/gcc/pic32mx/4.5.2/../../../../pic32mx/lib\libpic32.a(vector59.o)
                0x9fc01960                __vector_dispatch_59
                0x00000001                ASSERT (((_vector_spacing == 0x0) || (SIZEOF (.vector_59) <= (_vector_spacing << 0x5))), function at exception vector 59 too large)

.vector_60      0x9fc01980        0x8
 *(.vector_60)
 .vector_60     0x9fc01980        0x8 c:/program files (x86)/microchip/xc32/v1.33/bin/bin/../../lib/gcc/pic32mx/4.5.2/../../../../pic32mx/lib\libpic32.a(vector60.o)
                0x9fc01980                __vector_dispatch_60
                0x00000001                ASSERT (((_vector_spacing == 0x0) || (SIZEOF (.vector_60) <= (_vector_spacing << 0x5))), function at exception vector 60 too large)

.vector_61      0x9fc019a0        0x8
 *(.vector_61)
 .vector_61     0x9fc019a0        0x8 c:/program files (x86)/microchip/xc32/v1.33/bin/bin/../../lib/gcc/pic32mx/4.5.2/../../../../pic32mx/lib\libpic32.a(vector61.o)
                0x9fc019a0                __vector_dispatch_61
                0x00000001                ASSERT (((_vector_spacing == 0x0) || (SIZEOF (.vector_61) <= (_vector_spacing << 0x5))), function at exception vector 61 too large)

.vector_62      0x9fc019c0        0x8
 *(.vector_62)
 .vector_62     0x9fc019c0        0x8 c:/program files (x86)/microchip/xc32/v1.33/bin/bin/../../lib/gcc/pic32mx/4.5.2/../../../../pic32mx/lib\libpic32.a(vector62.o)
                0x9fc019c0                __vector_dispatch_62
                0x00000001                ASSERT (((_vector_spacing == 0x0) || (SIZEOF (.vector_62) <= (_vector_spacing << 0x5))), function at exception vector 62 too large)

.vector_63      0x9fc019e0        0x8
 *(.vector_63)
 .vector_63     0x9fc019e0        0x8 c:/program files (x86)/microchip/xc32/v1.33/bin/bin/../../lib/gcc/pic32mx/4.5.2/../../../../pic32mx/lib\libpic32.a(vector63.o)
                0x9fc019e0                __vector_dispatch_63
                0x00000001                ASSERT (((_vector_spacing == 0x0) || (SIZEOF (.vector_63) <= (_vector_spacing << 0x5))), function at exception vector 63 too large)

.startup
 *(.startup)

.text           0x9d000000        0x0
 *(.stub .gnu.linkonce.t.*)
 *(.text.*personality*)
 *(.mips16.fn.*)
 *(.mips16.call.*)
 *(.gnu.warning)
                0x9d000000                . = ALIGN (0x4)

.init           0x9d000000        0x0
 *crti.o(.init)
 *crtbegin.o(.init)
 *(EXCLUDE_FILE(*crtn.o *crtend?.o *crtend.o) .init)
 *crtend.o(.init)
 *crtn.o(.init)
                0x9d000000                . = ALIGN (0x4)

.fini           0x9d000000        0x0
 *(.fini)
                0x9d000000                . = ALIGN (0x4)

.preinit_array  0x9d000000        0x0
                0x9d000000                PROVIDE (__preinit_array_start, .)
 *(.preinit_array)
                0x9d000000                PROVIDE (__preinit_array_end, .)
                0x9d000000                . = ALIGN (0x4)

.init_array     0x9d000000        0x0
                0x9d000000                PROVIDE (__init_array_start, .)
 *(SORT(.init_array.*))
 *(.init_array)
                0x9d000000                PROVIDE (__init_array_end, .)
                0x9d000000                . = ALIGN (0x4)

.fini_array     0x9d000000        0x0
                0x9d000000                PROVIDE (__fini_array_start, .)
 *(SORT(.fini_array.*))
 *(.fini_array)
                0x9d000000                PROVIDE (__fini_array_end, .)
                0x9d000000                . = ALIGN (0x4)

.ctors          0x9d000000        0x0
 *crtbegin.o(.ctors)
 *crtbegin?.o(.ctors)
 *(EXCLUDE_FILE(*crtend?.o *crtend.o) .ctors)
 *(SORT(.ctors.*))
 *(.ctors)
                0x9d000000                . = ALIGN (0x4)

.dtors          0x9d000000        0x0
 *crtbegin.o(.dtors)
 *crtbegin?.o(.dtors)
 *(EXCLUDE_FILE(*crtend?.o *crtend.o) .dtors)
 *(SORT(.dtors.*))
 *(.dtors)
                0x9d000000                . = ALIGN (0x4)

.rodata         0x9d000000        0x0
 *(.gnu.linkonce.r.*)
 *(.rodata1)
                0x9d000000                . = ALIGN (0x4)

.sdata2         0x9fc00490        0x0
 *(.sdata2 .sdata2.* .gnu.linkonce.s2.*)
                0x9fc00490                . = ALIGN (0x4)

.sbss2          0x9fc00490        0x0
 *(.sbss2 .sbss2.* .gnu.linkonce.sb2.*)
                0x9fc00490                . = ALIGN (0x4)

.eh_frame_hdr
 *(.eh_frame_hdr)
                0x9fc00490                . = ALIGN (0x4)

.eh_frame
 *(.eh_frame)
                0x9fc00490                . = ALIGN (0x4)

.gcc_except_table
 *(.gcc_except_table .gcc_except_table.*)
                0x9fc00490                . = ALIGN (0x4)

.dbg_data       0xa0000000        0x0
                0xa0000000                . = (. + DEFINED (_DEBUGGER)?0x200:0x0)

.jcr            0xa0000000        0x0
 *(.jcr)
                0xa0000000                . = ALIGN (0x4)

.eh_frame       0xa0000000       0x30
 *(.eh_frame)
 .eh_frame      0xa0000000       0x20 c:/program files (x86)/microchip/xc32/v1.33/bin/bin/../../lib/gcc/pic32mx/4.5.2\libgcc.a(_udivdi3.o)
 .eh_frame      0xa0000020       0x10 c:/program files (x86)/microchip/xc32/v1.33/bin/bin/../../lib/gcc/pic32mx/4.5.2\libgcc.a(_umoddi3.o)
                0xa0000030                . = ALIGN (0x4)

.gcc_except_table
 *(.gcc_except_table .gcc_except_table.*)
                0xa0000030                . = ALIGN (0x4)

.persist        0xa0000030        0x0
                0xa0000030                _persist_begin = .
 *(.persist .persist.*)
 *(.pbss .pbss.*)
                0xa0000030                . = ALIGN (0x4)
                0xa0000030                _persist_end = .

.data           0xa0000030        0x0
 *(.gnu.linkonce.d.*)
 *(.data1)
                0xa0000030                . = ALIGN (0x4)
                0xa0000030                . = .
                0xa0008020                _gp = (ALIGN (0x10) + 0x7ff0)

.got            0xa0000030        0x0
 *(.got.plt)
 *(.got)
                0xa0000030                . = ALIGN (0x4)

.sdata          0xa0000030       0x2c
                0xa0000030                _sdata_begin = .
 *(.sdata .sdata.* .gnu.linkonce.s.*)
 .sdata         0xa0000030        0x8 build/default/production/_ext/1144052859/arp.o
 .sdata         0xa0000038        0x1 build/default/production/_ext/1144052859/zero_conf_helper.o
                0xa0000038                zeroconf_dbg_level
 *fill*         0xa0000039        0x3 
 .sdata         0xa000003c        0x8 build/default/production/_ext/1144052859/zero_conf_link_local.o
 .sdata         0xa0000044        0x4 build/default/production/_ext/1144052859/tcpip_commands.o
 .sdata         0xa0000048        0x4 build/default/production/_ext/1997815295/lfsr.o
 .sdata         0xa000004c        0x8 build/default/production/_ext/1144052859/tcpip_manager.o
 .sdata         0xa0000054        0x4 c:/program files (x86)/microchip/xc32/v1.33/bin/bin/../../lib/gcc/pic32mx/4.5.2/../../../../pic32mx/lib\libc.a(_iob.o)
                0xa0000054                _Files
 .sdata         0xa0000058        0x4 c:/program files (x86)/microchip/xc32/v1.33/bin/bin/../../lib/gcc/pic32mx/4.5.2/../../../../pic32mx/lib\libpic32.a(xc32_uart.o)
                0xa0000058                __XC_UART
                0xa000005c                . = ALIGN (0x4)
                0xa000005c                _sdata_end = .

.lit8
 *(.lit8)

.lit4
 *(.lit4)
                0xa000005c                . = ALIGN (0x4)
                0xa000005c                _data_end = .
                0xa000005c                _bss_begin = .

.sbss           0xa000005c      0x1a8
                0xa000005c                _sbss_begin = .
 *(.dynsbss)
 *(.sbss .sbss.* .gnu.linkonce.sb.*)
 .sbss          0xa000005c        0x4 build/default/production/_ext/1986204992/drv_ethmac.o
 .sbss          0xa0000060        0x4 build/default/production/_ext/304478105/drv_tmr.o
 .sbss          0xa0000064       0x24 build/default/production/_ext/1144052859/tcp.o
 .sbss          0xa0000088       0x1c build/default/production/_ext/1144052859/udp.o
 .sbss          0xa00000a4       0x20 build/default/production/_ext/1144052859/dhcp.o
 .sbss          0xa00000c4        0xc build/default/production/_ext/1144052859/dns.o
 .sbss          0xa00000d0        0x8 build/default/production/_ext/1144052859/icmp.o
 .sbss          0xa00000d8        0xc build/default/production/_ext/1144052859/nbns.o
 .sbss          0xa00000e4        0xc build/default/production/_ext/1144052859/zero_conf_link_local.o
 .sbss          0xa00000f0       0x20 build/default/production/_ext/1144052859/tcpip_announce.o
 .sbss          0xa0000110       0x58 build/default/production/_ext/1144052859/tcpip_commands.o
 .sbss          0xa0000168       0x24 build/default/production/_ext/1144052859/tcpip_manager.o
 .sbss          0xa000018c       0x1c build/default/production/_ext/1144052859/tcpip_packet.o
 .sbss          0xa00001a8        0x8 build/default/production/_ext/1829665213/system_debug.o
 .sbss          0xa00001b0       0x10 build/default/production/_ext/1829665213/system_command.o
 .sbss          0xa00001c0       0x10 build/default/production/_ext/1144052859/ipv4.o
 .sbss          0xa00001d0       0x10 c:/program files (x86)/microchip/xc32/v1.33/bin/bin/../../lib/gcc/pic32mx/4.5.2/../../../../pic32mx/lib\libc.a(malloc.o)
                0xa00001d0                __allocp
                0xa00001d4                __alloct
                0xa00001d8                __allocx
 .sbss          0xa00001e0        0x4 c:/program files (x86)/microchip/xc32/v1.33/bin/bin/../../lib/gcc/pic32mx/4.5.2/../../../../pic32mx/lib\libc.a(errno.o)
                0xa00001e0                errno
 .sbss          0xa00001e4        0x1 c:/program files (x86)/microchip/xc32/v1.33/bin/bin/../../lib/gcc/pic32mx/4.5.2/../../../../pic32mx/lib\libc.a(_iob.o)
                0xa00001e4                _outdone
 *fill*         0xa00001e5        0x3 
 .sbss          0xa00001e8        0x8 c:/program files (x86)/microchip/xc32/v1.33/bin/bin/../../lib/gcc/pic32mx/4.5.2/../../../../pic32mx/lib\libpic32.a(sbrk.o)
                0xa00001e8                _minbrk
                0xa00001ec                _maxbrk
 *(.scommon)
 .scommon       0xa00001f0        0x4 build/default/production/_ext/1986204992/drv_ethmac.o
                0xa00001f0                modeSeljunk
 .scommon       0xa00001f4        0x0 build/default/production/_ext/1986204992/drv_ethmac_lib.o
 .scommon       0xa00001f4        0x0 build/default/production/_ext/810051186/drv_ethphy.o
 .scommon       0xa00001f4        0x0 build/default/production/_ext/810051186/drv_extphy_smsc8740.o
 .scommon       0xa00001f4        0x0 build/default/production/_ext/304478105/drv_tmr.o
 .scommon       0xa00001f4        0x8 build/default/production/_ext/335806368/sys_devcon.o
                0xa00001f4                sysDevconObj
 .scommon       0xa00001fc        0x0 build/default/production/_ext/1144052859/tcp.o
 .scommon       0xa00001fc        0x0 build/default/production/_ext/1144052859/udp.o
 .scommon       0xa00001fc        0x0 build/default/production/_ext/1144052859/arp.o
 .scommon       0xa00001fc        0x0 build/default/production/_ext/1144052859/dhcp.o
 .scommon       0xa00001fc        0x0 build/default/production/_ext/1144052859/dns.o
 .scommon       0xa00001fc        0x0 build/default/production/_ext/1144052859/icmp.o
 .scommon       0xa00001fc        0x0 build/default/production/_ext/1144052859/nbns.o
 .scommon       0xa00001fc        0x0 build/default/production/_ext/1144052859/zero_conf_helper.o
 .scommon       0xa00001fc        0x0 build/default/production/_ext/1144052859/zero_conf_link_local.o
 .scommon       0xa00001fc        0x0 build/default/production/_ext/1144052859/tcpip_announce.o
 .scommon       0xa00001fc        0x4 build/default/production/_ext/1144052859/tcpip_commands.o
                0xa00001fc                icmpStartTick
 .scommon       0xa0000200        0x0 build/default/production/_ext/1144052859/tcpip_heap_alloc.o
 .scommon       0xa0000200        0x0 build/default/production/_ext/1144052859/tcpip_helpers.o
 .scommon       0xa0000200        0x0 build/default/production/_ext/1144052859/tcpip_manager.o
 .scommon       0xa0000200        0x0 build/default/production/_ext/1144052859/tcpip_notify.o
 .scommon       0xa0000200        0x0 build/default/production/_ext/1144052859/tcpip_packet.o
 .scommon       0xa0000200        0x0 build/default/production/_ext/1829665213/system_debug.o
 .scommon       0xa0000200        0x0 build/default/production/_ext/918699391/usart.o
 .scommon       0xa0000200        0x0 build/default/production/_ext/1829665213/system_command.o
 .scommon       0xa0000200        0x0 build/default/production/_ext/1144052859/ipv4.o
 .scommon       0xa0000200        0x4 build/default/production/_ext/1360937237/app.o
                0xa0000200                appData
 .scommon       0xa0000204        0x0 build/default/production/_ext/639803181/sys_clk_static.o
 .scommon       0xa0000204        0x0 build/default/production/_ext/1688732426/system_init.o
 .scommon       0xa0000204        0x0 build/default/production/_ext/1688732426/system_interrupt.o
 .scommon       0xa0000204        0x0 build/default/production/_ext/1688732426/system_tasks.o
 .scommon       0xa0000204        0x0 ..\..\..\..\..\..\..\..\microchip\harmony\v1_02\bin\framework\peripheral\PIC32MX795F512L_peripherals.a(plib_eth_lib.o)
                0xa0000204                _sbss_end = .
                0xa0000204                . = ALIGN (0x4)

.bss            0xa0000204      0x17c
 *(.dynbss)
 *(COMMON)
 COMMON         0xa0000204       0x64 build/default/production/_ext/810051186/drv_ethphy.o
                0xa0000204                gDrvETHPHYClientObj
                0xa0000238                gDrvETHPHYObj
 COMMON         0xa0000268      0x108 build/default/production/_ext/323145514/sys_random.o
                0xa0000268                sysRandCtx
 COMMON         0xa0000370       0x10 build/default/production/_ext/1688732426/system_init.o
                0xa0000370                sysObj
                0xa0000380                . = ALIGN ((. != 0x0)?0x4:0x1)
                0xa0000380                . = ALIGN (0x4)
                0xa0000380                _end = .
                0xa0000380                _bss_end = .
                0x00020000                _bmxdudba_address = 0x20000
                0x00020000                _bmxdupba_address = 0x20000

/DISCARD/
 *(.pdr)
 *(.rel.dyn)
 *(.note.GNU-stack)
 *(.note.GNU-stack)
 *(.gnu_debuglink)
 *(.gnu.lto_*)
 *(.discard)

.gptab.sdata
 *(.gptab.data)
 *(.gptab.sdata)

.gptab.sbss
 *(.gptab.bss)
 *(.gptab.sbss)

.mdebug.abi32   0xa0000380        0x0
 *(.mdebug.abi32)
 .mdebug.abi32  0xa0000380        0x0 build/default/production/_ext/595770632/random.o
 .mdebug.abi32  0xa0000380        0x0 build/default/production/_ext/595770632/arc4.o
 .mdebug.abi32  0xa0000380        0x0 build/default/production/_ext/595770632/crypto.o
 .mdebug.abi32  0xa0000380        0x0 build/default/production/_ext/1986204992/drv_ethmac.o
 .mdebug.abi32  0xa0000380        0x0 build/default/production/_ext/1986204992/drv_ethmac_lib.o
 .mdebug.abi32  0xa0000380        0x0 build/default/production/_ext/810051186/drv_ethphy.o
 .mdebug.abi32  0xa0000380        0x0 build/default/production/_ext/810051186/drv_extphy_smsc8740.o
 .mdebug.abi32  0xa0000380        0x0 build/default/production/_ext/304478105/drv_tmr.o
 .mdebug.abi32  0xa0000380        0x0 build/default/production/_ext/335806368/sys_devcon.o
 .mdebug.abi32  0xa0000380        0x0 build/default/production/_ext/335806368/sys_devcon_pic32mx.o
 .mdebug.abi32  0xa0000380        0x0 build/default/production/_ext/1055666758/sys_int_pic32.o
 .mdebug.abi32  0xa0000380        0x0 build/default/production/_ext/1237536663/sys_ports.o
 .mdebug.abi32  0xa0000380        0x0 build/default/production/_ext/323145514/sys_random.o
 .mdebug.abi32  0xa0000380        0x0 build/default/production/_ext/346722522/sys_reset.o
 .mdebug.abi32  0xa0000380        0x0 build/default/production/_ext/2097170832/sys_tmr.o
 .mdebug.abi32  0xa0000380        0x0 build/default/production/_ext/1144052859/tcp.o
 .mdebug.abi32  0xa0000380        0x0 build/default/production/_ext/1144052859/udp.o
 .mdebug.abi32  0xa0000380        0x0 build/default/production/_ext/1144052859/arp.o
 .mdebug.abi32  0xa0000380        0x0 build/default/production/_ext/1144052859/dhcp.o
 .mdebug.abi32  0xa0000380        0x0 build/default/production/_ext/1144052859/dns.o
 .mdebug.abi32  0xa0000380        0x0 build/default/production/_ext/1144052859/icmp.o
 .mdebug.abi32  0xa0000380        0x0 build/default/production/_ext/1144052859/nbns.o
 .mdebug.abi32  0xa0000380        0x0 build/default/production/_ext/1144052859/zero_conf_helper.o
 .mdebug.abi32  0xa0000380        0x0 build/default/production/_ext/1144052859/zero_conf_link_local.o
 .mdebug.abi32  0xa0000380        0x0 build/default/production/_ext/1144052859/tcpip_announce.o
 .mdebug.abi32  0xa0000380        0x0 build/default/production/_ext/1144052859/tcpip_commands.o
 .mdebug.abi32  0xa0000380        0x0 build/default/production/_ext/1997815295/big_int.o
 .mdebug.abi32  0xa0000380        0x0 build/default/production/_ext/1997815295/hashes.o
 .mdebug.abi32  0xa0000380        0x0 build/default/production/_ext/1997815295/helpers.o
 .mdebug.abi32  0xa0000380        0x0 build/default/production/_ext/1997815295/lfsr.o
 .mdebug.abi32  0xa0000380        0x0 build/default/production/_ext/1144052859/hash_fnv.o
 .mdebug.abi32  0xa0000380        0x0 build/default/production/_ext/1144052859/oahash.o
 .mdebug.abi32  0xa0000380        0x0 build/default/production/_ext/1144052859/tcpip_heap_alloc.o
 .mdebug.abi32  0xa0000380        0x0 build/default/production/_ext/1144052859/tcpip_helpers.o
 .mdebug.abi32  0xa0000380        0x0 build/default/production/_ext/1144052859/tcpip_manager.o
 .mdebug.abi32  0xa0000380        0x0 build/default/production/_ext/1144052859/tcpip_notify.o
 .mdebug.abi32  0xa0000380        0x0 build/default/production/_ext/1144052859/tcpip_packet.o
 .mdebug.abi32  0xa0000380        0x0 build/default/production/_ext/1829665213/system_debug.o
 .mdebug.abi32  0xa0000380        0x0 build/default/production/_ext/918699391/usart.o
 .mdebug.abi32  0xa0000380        0x0 build/default/production/_ext/1829665213/system_command.o
 .mdebug.abi32  0xa0000380        0x0 build/default/production/_ext/1144052859/ipv4.o
 .mdebug.abi32  0xa0000380        0x0 build/default/production/_ext/1360937237/app.o
 .mdebug.abi32  0xa0000380        0x0 build/default/production/_ext/639803181/sys_clk_static.o
 .mdebug.abi32  0xa0000380        0x0 build/default/production/_ext/822048611/sys_ports_static.o
 .mdebug.abi32  0xa0000380        0x0 build/default/production/_ext/1688732426/system_init.o
 .mdebug.abi32  0xa0000380        0x0 build/default/production/_ext/1688732426/system_interrupt.o
 .mdebug.abi32  0xa0000380        0x0 build/default/production/_ext/1360937237/main.o
 .mdebug.abi32  0xa0000380        0x0 build/default/production/_ext/1688732426/system_tasks.o
 .mdebug.abi32  0xa0000380        0x0 ..\..\..\..\..\..\..\..\microchip\harmony\v1_02\bin\framework\peripheral\PIC32MX795F512L_peripherals.a(plib_eth_lib.o)
 .mdebug.abi32  0xa0000380        0x0 c:/program files (x86)/microchip/xc32/v1.33/bin/bin/../../lib/gcc/pic32mx/4.5.2\libgcc.a(_udivdi3.o)
 .mdebug.abi32  0xa0000380        0x0 c:/program files (x86)/microchip/xc32/v1.33/bin/bin/../../lib/gcc/pic32mx/4.5.2/../../../../pic32mx/lib\libpic32.a(default-bootstrap-exception-handler.o)
 .mdebug.abi32  0xa0000380        0x0 c:/program files (x86)/microchip/xc32/v1.33/bin/bin/../../lib/gcc/pic32mx/4.5.2/../../../../pic32mx/lib\libpic32.a(default-on-reset.o)
 .mdebug.abi32  0xa0000380        0x0 c:/program files (x86)/microchip/xc32/v1.33/bin/bin/../../lib/gcc/pic32mx/4.5.2/../../../../pic32mx/lib\libpic32.a(default-on-bootstrap.o)
 .mdebug.abi32  0xa0000380        0x0 c:/program files (x86)/microchip/xc32/v1.33/bin/bin/../../lib/gcc/pic32mx/4.5.2/../../../../pic32mx/lib\libpic32.a(defaultinterrupt.o)
 .mdebug.abi32  0xa0000380        0x0 c:/program files (x86)/microchip/xc32/v1.33/bin/bin/../../lib/gcc/pic32mx/4.5.2/../../../../pic32mx/lib\libc.a(atoi.o)
 .mdebug.abi32  0xa0000380        0x0 c:/program files (x86)/microchip/xc32/v1.33/bin/bin/../../lib/gcc/pic32mx/4.5.2/../../../../pic32mx/lib\libc.a(calloc.o)
 .mdebug.abi32  0xa0000380        0x0 c:/program files (x86)/microchip/xc32/v1.33/bin/bin/../../lib/gcc/pic32mx/4.5.2/../../../../pic32mx/lib\libc.a(ctype.o)
 .mdebug.abi32  0xa0000380        0x0 c:/program files (x86)/microchip/xc32/v1.33/bin/bin/../../lib/gcc/pic32mx/4.5.2/../../../../pic32mx/lib\libc.a(malloc.o)
 .mdebug.abi32  0xa0000380        0x0 c:/program files (x86)/microchip/xc32/v1.33/bin/bin/../../lib/gcc/pic32mx/4.5.2/../../../../pic32mx/lib\libc.a(rand.o)
 .mdebug.abi32  0xa0000380        0x0 c:/program files (x86)/microchip/xc32/v1.33/bin/bin/../../lib/gcc/pic32mx/4.5.2/../../../../pic32mx/lib\libc.a(strncpy.o)
 .mdebug.abi32  0xa0000380        0x0 c:/program files (x86)/microchip/xc32/v1.33/bin/bin/../../lib/gcc/pic32mx/4.5.2/../../../../pic32mx/lib\libc.a(strtol.o)
 .mdebug.abi32  0xa0000380        0x0 c:/program files (x86)/microchip/xc32/v1.33/bin/bin/../../lib/gcc/pic32mx/4.5.2/../../../../pic32mx/lib\libc.a(snprintf_cdnopsuxX.eo)
 .mdebug.abi32  0xa0000380        0x0 c:/program files (x86)/microchip/xc32/v1.33/bin/bin/../../lib/gcc/pic32mx/4.5.2/../../../../pic32mx/lib\libc.a(sprintf_cdnopsuxX.eo)
 .mdebug.abi32  0xa0000380        0x0 c:/program files (x86)/microchip/xc32/v1.33/bin/bin/../../lib/gcc/pic32mx/4.5.2/../../../../pic32mx/lib\libc.a(vsnprintf_cdnopsuxX.eo)
 .mdebug.abi32  0xa0000380        0x0 c:/program files (x86)/microchip/xc32/v1.33/bin/bin/../../lib/gcc/pic32mx/4.5.2/../../../../pic32mx/lib\libc.a(vsnprintf.o)
 .mdebug.abi32  0xa0000380        0x0 c:/program files (x86)/microchip/xc32/v1.33/bin/bin/../../lib/gcc/pic32mx/4.5.2/../../../../pic32mx/lib\libc.a(ctypef.o)
 .mdebug.abi32  0xa0000380        0x0 c:/program files (x86)/microchip/xc32/v1.33/bin/bin/../../lib/gcc/pic32mx/4.5.2/../../../../pic32mx/lib\libc.a(errno.o)
 .mdebug.abi32  0xa0000380        0x0 c:/program files (x86)/microchip/xc32/v1.33/bin/bin/../../lib/gcc/pic32mx/4.5.2/../../../../pic32mx/lib\libc.a(doprnt_cdnopsuxX.eo)
 .mdebug.abi32  0xa0000380        0x0 c:/program files (x86)/microchip/xc32/v1.33/bin/bin/../../lib/gcc/pic32mx/4.5.2/../../../../pic32mx/lib\libc.a(doprnt.o)
 .mdebug.abi32  0xa0000380        0x0 c:/program files (x86)/microchip/xc32/v1.33/bin/bin/../../lib/gcc/pic32mx/4.5.2/../../../../pic32mx/lib\libc.a(_fputc_simple.o)
 .mdebug.abi32  0xa0000380        0x0 c:/program files (x86)/microchip/xc32/v1.33/bin/bin/../../lib/gcc/pic32mx/4.5.2/../../../../pic32mx/lib\libc.a(powersf.o)
 .mdebug.abi32  0xa0000380        0x0 c:/program files (x86)/microchip/xc32/v1.33/bin/bin/../../lib/gcc/pic32mx/4.5.2/../../../../pic32mx/lib\libc.a(_iob.o)
 .mdebug.abi32  0xa0000380        0x0 c:/program files (x86)/microchip/xc32/v1.33/bin/bin/../../lib/gcc/pic32mx/4.5.2/../../../../pic32mx/lib\libc.a(_flsbuf_simple.o)
 .mdebug.abi32  0xa0000380        0x0 c:/program files (x86)/microchip/xc32/v1.33/bin/bin/../../lib/gcc/pic32mx/4.5.2/../../../../pic32mx/lib\libpic32.a(sbrk.o)
 .mdebug.abi32  0xa0000380        0x0 c:/program files (x86)/microchip/xc32/v1.33/bin/bin/../../lib/gcc/pic32mx/4.5.2/../../../../pic32mx/lib\libpic32.a(write.o)
 .mdebug.abi32  0xa0000380        0x0 c:/program files (x86)/microchip/xc32/v1.33/bin/bin/../../lib/gcc/pic32mx/4.5.2/../../../../pic32mx/lib\libpic32.a(_mon_putc.o)
 .mdebug.abi32  0xa0000380        0x0 c:/program files (x86)/microchip/xc32/v1.33/bin/bin/../../lib/gcc/pic32mx/4.5.2/../../../../pic32mx/lib\libpic32.a(xc32_uart.o)
 .mdebug.abi32  0xa0000380        0x0 c:/program files (x86)/microchip/xc32/v1.33/bin/bin/../../lib/gcc/pic32mx/4.5.2/../../../../pic32mx/lib\libe.a(_floatdisf.o)
 .mdebug.abi32  0xa0000380        0x0 c:/program files (x86)/microchip/xc32/v1.33/bin/bin/../../lib/gcc/pic32mx/4.5.2\libgcc.a(_floatundisf.o)
 .mdebug.abi32  0xa0000380        0x0 c:/program files (x86)/microchip/xc32/v1.33/bin/bin/../../lib/gcc/pic32mx/4.5.2\libgcc.a(_umoddi3.o)
 .mdebug.abi32  0xa0000380        0x0 c:/program files (x86)/microchip/xc32/v1.33/bin/bin/../../lib/gcc/pic32mx/4.5.2\libgcc.a(floatunsisf.o)

.mdebug.abiN32
 *(.mdebug.abiN32)

.mdebug.abi64
 *(.mdebug.abi64)

.mdebug.abiO64
 *(.mdebug.abiO64)

.mdebug.eabi32
 *(.mdebug.eabi32)

.mdebug.eabi64
 *(.mdebug.eabi64)

.gcc_compiled_long32
 *(.gcc_compiled_long32)

.gcc_compiled_long64
 *(.gcc_compiled_long64)

.stab
 *(.stab)

.stabstr
 *(.stabstr)

.stab.excl
 *(.stab.excl)

.stab.exclstr
 *(.stab.exclstr)

.stab.index
 *(.stab.index)

.stab.indexstr
 *(.stab.indexstr)

.comment        0x00000000      0x2b5
 *(.comment)
 .comment       0x00000000       0x3c build/default/production/_ext/595770632/random.o
                                 0x3d (size before relaxing)
 .comment       0x00000000       0x3d build/default/production/_ext/595770632/arc4.o
 .comment       0x00000000       0x3d build/default/production/_ext/595770632/crypto.o
 .comment       0x00000000       0x3d build/default/production/_ext/1986204992/drv_ethmac.o
 .comment       0x00000000       0x3d build/default/production/_ext/1986204992/drv_ethmac_lib.o
 .comment       0x00000000       0x3d build/default/production/_ext/810051186/drv_ethphy.o
 .comment       0x00000000       0x3d build/default/production/_ext/810051186/drv_extphy_smsc8740.o
 .comment       0x00000000       0x3d build/default/production/_ext/304478105/drv_tmr.o
 .comment       0x00000000       0x3d build/default/production/_ext/335806368/sys_devcon.o
 .comment       0x00000000       0x3d build/default/production/_ext/335806368/sys_devcon_pic32mx.o
 .comment       0x00000000       0x3d build/default/production/_ext/1055666758/sys_int_pic32.o
 .comment       0x00000000       0x3d build/default/production/_ext/1237536663/sys_ports.o
 .comment       0x00000000       0x3d build/default/production/_ext/323145514/sys_random.o
 .comment       0x00000000       0x3d build/default/production/_ext/346722522/sys_reset.o
 .comment       0x00000000       0x3d build/default/production/_ext/2097170832/sys_tmr.o
 .comment       0x00000000       0x3d build/default/production/_ext/1144052859/tcp.o
 .comment       0x00000000       0x3d build/default/production/_ext/1144052859/udp.o
 .comment       0x00000000       0x3d build/default/production/_ext/1144052859/arp.o
 .comment       0x00000000       0x3d build/default/production/_ext/1144052859/dhcp.o
 .comment       0x00000000       0x3d build/default/production/_ext/1144052859/dns.o
 .comment       0x00000000       0x3d build/default/production/_ext/1144052859/icmp.o
 .comment       0x00000000       0x3d build/default/production/_ext/1144052859/nbns.o
 .comment       0x00000000       0x3d build/default/production/_ext/1144052859/zero_conf_helper.o
 .comment       0x00000000       0x3d build/default/production/_ext/1144052859/zero_conf_link_local.o
 .comment       0x00000000       0x3d build/default/production/_ext/1144052859/tcpip_announce.o
 .comment       0x00000000       0x3d build/default/production/_ext/1144052859/tcpip_commands.o
 .comment       0x00000000       0x3d build/default/production/_ext/1997815295/big_int.o
 .comment       0x00000000       0x3d build/default/production/_ext/1997815295/hashes.o
 .comment       0x00000000       0x3d build/default/production/_ext/1997815295/helpers.o
 .comment       0x00000000       0x3d build/default/production/_ext/1997815295/lfsr.o
 .comment       0x00000000       0x3d build/default/production/_ext/1144052859/hash_fnv.o
 .comment       0x00000000       0x3d build/default/production/_ext/1144052859/oahash.o
 .comment       0x00000000       0x3d build/default/production/_ext/1144052859/tcpip_heap_alloc.o
 .comment       0x00000000       0x3d build/default/production/_ext/1144052859/tcpip_helpers.o
 .comment       0x00000000       0x3d build/default/production/_ext/1144052859/tcpip_manager.o
 .comment       0x00000000       0x3d build/default/production/_ext/1144052859/tcpip_notify.o
 .comment       0x00000000       0x3d build/default/production/_ext/1144052859/tcpip_packet.o
 .comment       0x00000000       0x3d build/default/production/_ext/1829665213/system_debug.o
 .comment       0x00000000       0x3d build/default/production/_ext/918699391/usart.o
 .comment       0x00000000       0x3d build/default/production/_ext/1829665213/system_command.o
 .comment       0x00000000       0x3d build/default/production/_ext/1144052859/ipv4.o
 .comment       0x00000000       0x3d build/default/production/_ext/1360937237/app.o
 .comment       0x00000000       0x3d build/default/production/_ext/639803181/sys_clk_static.o
 .comment       0x00000000       0x3d build/default/production/_ext/822048611/sys_ports_static.o
 .comment       0x00000000       0x3d build/default/production/_ext/1688732426/system_init.o
 .comment       0x00000000       0x3d build/default/production/_ext/1688732426/system_interrupt.o
 .comment       0x00000000       0x3d build/default/production/_ext/1360937237/main.o
 .comment       0x00000000       0x3d build/default/production/_ext/1688732426/system_tasks.o
 .comment       0x0000003c       0x3c ..\..\..\..\..\..\..\..\microchip\harmony\v1_02\bin\framework\peripheral\PIC32MX795F512L_peripherals.a(plib_eth_lib.o)
                                 0x3d (size before relaxing)
 .comment       0x00000000       0x3d c:/program files (x86)/microchip/xc32/v1.33/bin/bin/../../lib/gcc/pic32mx/4.5.2\libgcc.a(_udivdi3.o)
 .comment       0x00000078       0x18 c:/program files (x86)/microchip/xc32/v1.33/bin/bin/../../lib/gcc/pic32mx/4.5.2/../../../../pic32mx/lib\libpic32.a(memcmp.o)
                                 0x19 (size before relaxing)
 .comment       0x00000090       0x18 c:/program files (x86)/microchip/xc32/v1.33/bin/bin/../../lib/gcc/pic32mx/4.5.2/../../../../pic32mx/lib\libpic32.a(memset.o)
                                 0x19 (size before relaxing)
 .comment       0x000000a8       0x55 c:/program files (x86)/microchip/xc32/v1.33/bin/bin/../../lib/gcc/pic32mx/4.5.2/../../../../pic32mx/lib\libpic32.a(strcmp.o)
                                 0x56 (size before relaxing)
 .comment       0x000000fd       0x19 c:/program files (x86)/microchip/xc32/v1.33/bin/bin/../../lib/gcc/pic32mx/4.5.2/../../../../pic32mx/lib\libpic32.a(strcpy.o)
                                 0x1a (size before relaxing)
 .comment       0x00000116       0x19 c:/program files (x86)/microchip/xc32/v1.33/bin/bin/../../lib/gcc/pic32mx/4.5.2/../../../../pic32mx/lib\libpic32.a(strlen.o)
                                 0x1a (size before relaxing)
 .comment       0x00000000       0x3d c:/program files (x86)/microchip/xc32/v1.33/bin/bin/../../lib/gcc/pic32mx/4.5.2/../../../../pic32mx/lib\libpic32.a(default-bootstrap-exception-handler.o)
 .comment       0x00000000       0x3d c:/program files (x86)/microchip/xc32/v1.33/bin/bin/../../lib/gcc/pic32mx/4.5.2/../../../../pic32mx/lib\libpic32.a(default-on-reset.o)
 .comment       0x00000000       0x3d c:/program files (x86)/microchip/xc32/v1.33/bin/bin/../../lib/gcc/pic32mx/4.5.2/../../../../pic32mx/lib\libpic32.a(default-on-bootstrap.o)
 .comment       0x00000000       0x3d c:/program files (x86)/microchip/xc32/v1.33/bin/bin/../../lib/gcc/pic32mx/4.5.2/../../../../pic32mx/lib\libpic32.a(defaultinterrupt.o)
 .comment       0x00000000       0x3d c:/program files (x86)/microchip/xc32/v1.33/bin/bin/../../lib/gcc/pic32mx/4.5.2/../../../../pic32mx/lib\libc.a(atoi.o)
 .comment       0x00000000       0x3d c:/program files (x86)/microchip/xc32/v1.33/bin/bin/../../lib/gcc/pic32mx/4.5.2/../../../../pic32mx/lib\libc.a(calloc.o)
 .comment       0x0000012f       0x4e c:/program files (x86)/microchip/xc32/v1.33/bin/bin/../../lib/gcc/pic32mx/4.5.2/../../../../pic32mx/lib\libc.a(ctype.o)
                                 0x8b (size before relaxing)
 .comment       0x00000000       0x3d c:/program files (x86)/microchip/xc32/v1.33/bin/bin/../../lib/gcc/pic32mx/4.5.2/../../../../pic32mx/lib\libc.a(malloc.o)
 .comment       0x00000000       0x3d c:/program files (x86)/microchip/xc32/v1.33/bin/bin/../../lib/gcc/pic32mx/4.5.2/../../../../pic32mx/lib\libc.a(rand.o)
 .comment       0x00000000       0x3d c:/program files (x86)/microchip/xc32/v1.33/bin/bin/../../lib/gcc/pic32mx/4.5.2/../../../../pic32mx/lib\libc.a(strncpy.o)
 .comment       0x00000000       0x3d c:/program files (x86)/microchip/xc32/v1.33/bin/bin/../../lib/gcc/pic32mx/4.5.2/../../../../pic32mx/lib\libc.a(strtol.o)
 .comment       0x00000000       0x3d c:/program files (x86)/microchip/xc32/v1.33/bin/bin/../../lib/gcc/pic32mx/4.5.2/../../../../pic32mx/lib\libc.a(snprintf_cdnopsuxX.eo)
 .comment       0x00000000       0x3d c:/program files (x86)/microchip/xc32/v1.33/bin/bin/../../lib/gcc/pic32mx/4.5.2/../../../../pic32mx/lib\libc.a(sprintf_cdnopsuxX.eo)
 .comment       0x00000000       0x3d c:/program files (x86)/microchip/xc32/v1.33/bin/bin/../../lib/gcc/pic32mx/4.5.2/../../../../pic32mx/lib\libc.a(vsnprintf_cdnopsuxX.eo)
 .comment       0x00000000       0x3d c:/program files (x86)/microchip/xc32/v1.33/bin/bin/../../lib/gcc/pic32mx/4.5.2/../../../../pic32mx/lib\libc.a(vsnprintf.o)
 .comment       0x0000017d       0x4f c:/program files (x86)/microchip/xc32/v1.33/bin/bin/../../lib/gcc/pic32mx/4.5.2/../../../../pic32mx/lib\libc.a(ctypef.o)
                                 0x8c (size before relaxing)
 .comment       0x00000000       0x3d c:/program files (x86)/microchip/xc32/v1.33/bin/bin/../../lib/gcc/pic32mx/4.5.2/../../../../pic32mx/lib\libc.a(errno.o)
 .comment       0x00000000       0x3d c:/program files (x86)/microchip/xc32/v1.33/bin/bin/../../lib/gcc/pic32mx/4.5.2/../../../../pic32mx/lib\libc.a(doprnt_cdnopsuxX.eo)
 .comment       0x00000000       0x3d c:/program files (x86)/microchip/xc32/v1.33/bin/bin/../../lib/gcc/pic32mx/4.5.2/../../../../pic32mx/lib\libc.a(doprnt.o)
 .comment       0x00000000       0x3d c:/program files (x86)/microchip/xc32/v1.33/bin/bin/../../lib/gcc/pic32mx/4.5.2/../../../../pic32mx/lib\libc.a(_fputc_simple.o)
 .comment       0x00000000       0x3d c:/program files (x86)/microchip/xc32/v1.33/bin/bin/../../lib/gcc/pic32mx/4.5.2/../../../../pic32mx/lib\libc.a(powersf.o)
 .comment       0x00000000       0x3d c:/program files (x86)/microchip/xc32/v1.33/bin/bin/../../lib/gcc/pic32mx/4.5.2/../../../../pic32mx/lib\libc.a(_iob.o)
 .comment       0x00000000       0x3d c:/program files (x86)/microchip/xc32/v1.33/bin/bin/../../lib/gcc/pic32mx/4.5.2/../../../../pic32mx/lib\libc.a(_flsbuf_simple.o)
 .comment       0x000001cc       0x4b c:/program files (x86)/microchip/xc32/v1.33/bin/bin/../../lib/gcc/pic32mx/4.5.2/../../../../pic32mx/lib\libpic32.a(sbrk.o)
                                 0x88 (size before relaxing)
 .comment       0x00000000       0x3d c:/program files (x86)/microchip/xc32/v1.33/bin/bin/../../lib/gcc/pic32mx/4.5.2/../../../../pic32mx/lib\libpic32.a(write.o)
 .comment       0x00000000       0x3d c:/program files (x86)/microchip/xc32/v1.33/bin/bin/../../lib/gcc/pic32mx/4.5.2/../../../../pic32mx/lib\libpic32.a(_mon_putc.o)
 .comment       0x00000000       0x3d c:/program files (x86)/microchip/xc32/v1.33/bin/bin/../../lib/gcc/pic32mx/4.5.2/../../../../pic32mx/lib\libpic32.a(xc32_uart.o)
 .comment       0x00000217       0x9e c:/program files (x86)/microchip/xc32/v1.33/bin/bin/../../lib/gcc/pic32mx/4.5.2/../../../../pic32mx/lib\libe.a(_floatdisf.o)
                                 0xdb (size before relaxing)
 .comment       0x00000000       0x3d c:/program files (x86)/microchip/xc32/v1.33/bin/bin/../../lib/gcc/pic32mx/4.5.2\libgcc.a(_floatundisf.o)
 .comment       0x00000000       0x3d c:/program files (x86)/microchip/xc32/v1.33/bin/bin/../../lib/gcc/pic32mx/4.5.2\libgcc.a(_umoddi3.o)
 .comment       0x00000000       0x3d c:/program files (x86)/microchip/xc32/v1.33/bin/bin/../../lib/gcc/pic32mx/4.5.2\libgcc.a(floatunsisf.o)

.debug
 *(.debug)

.line
 *(.line)

.debug_srcinfo
 *(.debug_srcinfo)

.debug_sfnames
 *(.debug_sfnames)

.debug_aranges  0x00000000     0x23d0
 *(.debug_aranges)
 .debug_aranges
                0x00000000       0x38 build/default/production/_ext/595770632/random.o
 .debug_aranges
                0x00000038       0x28 build/default/production/_ext/595770632/arc4.o
 .debug_aranges
                0x00000060       0x58 build/default/production/_ext/595770632/crypto.o
 .debug_aranges
                0x000000b8      0x1a0 build/default/production/_ext/1986204992/drv_ethmac.o
 .debug_aranges
                0x00000258       0xf0 build/default/production/_ext/1986204992/drv_ethmac_lib.o
 .debug_aranges
                0x00000348      0x2c8 build/default/production/_ext/810051186/drv_ethphy.o
 .debug_aranges
                0x00000610       0x30 build/default/production/_ext/810051186/drv_extphy_smsc8740.o
 .debug_aranges
                0x00000640      0x198 build/default/production/_ext/304478105/drv_tmr.o
 .debug_aranges
                0x000007d8       0x78 build/default/production/_ext/335806368/sys_devcon.o
 .debug_aranges
                0x00000850       0x20 build/default/production/_ext/335806368/sys_devcon_pic32mx.o
 .debug_aranges
                0x00000870       0x38 build/default/production/_ext/1055666758/sys_int_pic32.o
 .debug_aranges
                0x000008a8       0xf8 build/default/production/_ext/1237536663/sys_ports.o
 .debug_aranges
                0x000009a0       0x68 build/default/production/_ext/323145514/sys_random.o
 .debug_aranges
                0x00000a08       0x20 build/default/production/_ext/346722522/sys_reset.o
 .debug_aranges
                0x00000a28       0xc8 build/default/production/_ext/2097170832/sys_tmr.o
 .debug_aranges
                0x00000af0      0x230 build/default/production/_ext/1144052859/tcp.o
 .debug_aranges
                0x00000d20      0x1b8 build/default/production/_ext/1144052859/udp.o
 .debug_aranges
                0x00000ed8      0x130 build/default/production/_ext/1144052859/arp.o
 .debug_aranges
                0x00001008       0xe0 build/default/production/_ext/1144052859/dhcp.o
 .debug_aranges
                0x000010e8      0x148 build/default/production/_ext/1144052859/dns.o
 .debug_aranges
                0x00001230       0x58 build/default/production/_ext/1144052859/icmp.o
 .debug_aranges
                0x00001288       0x38 build/default/production/_ext/1144052859/nbns.o
 .debug_aranges
                0x000012c0       0x20 build/default/production/_ext/1144052859/zero_conf_helper.o
 .debug_aranges
                0x000012e0       0x78 build/default/production/_ext/1144052859/zero_conf_link_local.o
 .debug_aranges
                0x00001358       0x50 build/default/production/_ext/1144052859/tcpip_announce.o
 .debug_aranges
                0x000013a8       0xd8 build/default/production/_ext/1144052859/tcpip_commands.o
 .debug_aranges
                0x00001480       0x80 build/default/production/_ext/1997815295/big_int.o
 .debug_aranges
                0x00001500       0x60 build/default/production/_ext/1997815295/hashes.o
 .debug_aranges
                0x00001560       0x58 build/default/production/_ext/1997815295/helpers.o
 .debug_aranges
                0x000015b8       0x28 build/default/production/_ext/1997815295/lfsr.o
 .debug_aranges
                0x000015e0       0x28 build/default/production/_ext/1144052859/hash_fnv.o
 .debug_aranges
                0x00001608       0x58 build/default/production/_ext/1144052859/oahash.o
 .debug_aranges
                0x00001660       0x60 build/default/production/_ext/1144052859/tcpip_heap_alloc.o
 .debug_aranges
                0x000016c0      0x1c8 build/default/production/_ext/1144052859/tcpip_helpers.o
 .debug_aranges
                0x00001888       0x20 build/default/production/_ext/1144052859/tcpip_helper_c32.o
 .debug_aranges
                0x000018a8      0x2f8 build/default/production/_ext/1144052859/tcpip_manager.o
 .debug_aranges
                0x00001ba0       0x40 build/default/production/_ext/1144052859/tcpip_notify.o
 .debug_aranges
                0x00001be0       0xa8 build/default/production/_ext/1144052859/tcpip_packet.o
 .debug_aranges
                0x00001c88       0xa0 build/default/production/_ext/1829665213/system_debug.o
 .debug_aranges
                0x00001d28       0x50 build/default/production/_ext/918699391/usart.o
 .debug_aranges
                0x00001d78       0xa8 build/default/production/_ext/1829665213/system_command.o
 .debug_aranges
                0x00001e20       0x68 build/default/production/_ext/1144052859/ipv4.o
 .debug_aranges
                0x00001e88       0x28 build/default/production/_ext/1360937237/app.o
 .debug_aranges
                0x00001eb0       0x38 build/default/production/_ext/639803181/sys_clk_static.o
 .debug_aranges
                0x00001ee8       0x20 build/default/production/_ext/822048611/sys_ports_static.o
 .debug_aranges
                0x00001f08       0x28 build/default/production/_ext/1688732426/system_init.o
 .debug_aranges
                0x00001f30       0x30 build/default/production/_ext/1688732426/system_interrupt.o
 .debug_aranges
                0x00001f60       0x20 build/default/production/_ext/1360937237/main.o
 .debug_aranges
                0x00001f80       0x20 build/default/production/_ext/1688732426/system_tasks.o
 .debug_aranges
                0x00001fa0       0x20 c:/program files (x86)/microchip/xc32/v1.33/bin/bin/../../lib/gcc/pic32mx/4.5.2\libgcc.a(_udivdi3.o)
 .debug_aranges
                0x00001fc0       0x20 c:/program files (x86)/microchip/xc32/v1.33/bin/bin/../../lib/gcc/pic32mx/4.5.2/../../../../pic32mx/lib\libpic32.a(default-bootstrap-exception-handler.o)
 .debug_aranges
                0x00001fe0       0x20 c:/program files (x86)/microchip/xc32/v1.33/bin/bin/../../lib/gcc/pic32mx/4.5.2/../../../../pic32mx/lib\libpic32.a(default-on-reset.o)
 .debug_aranges
                0x00002000       0x20 c:/program files (x86)/microchip/xc32/v1.33/bin/bin/../../lib/gcc/pic32mx/4.5.2/../../../../pic32mx/lib\libpic32.a(default-on-bootstrap.o)
 .debug_aranges
                0x00002020       0x20 c:/program files (x86)/microchip/xc32/v1.33/bin/bin/../../lib/gcc/pic32mx/4.5.2/../../../../pic32mx/lib\libpic32.a(defaultinterrupt.o)
 .debug_aranges
                0x00002040       0x20 c:/program files (x86)/microchip/xc32/v1.33/bin/bin/../../lib/gcc/pic32mx/4.5.2/../../../../pic32mx/lib\libc.a(atoi.o)
 .debug_aranges
                0x00002060       0x20 c:/program files (x86)/microchip/xc32/v1.33/bin/bin/../../lib/gcc/pic32mx/4.5.2/../../../../pic32mx/lib\libc.a(calloc.o)
 .debug_aranges
                0x00002080       0x30 c:/program files (x86)/microchip/xc32/v1.33/bin/bin/../../lib/gcc/pic32mx/4.5.2/../../../../pic32mx/lib\libc.a(malloc.o)
 .debug_aranges
                0x000020b0       0x28 c:/program files (x86)/microchip/xc32/v1.33/bin/bin/../../lib/gcc/pic32mx/4.5.2/../../../../pic32mx/lib\libc.a(rand.o)
 .debug_aranges
                0x000020d8       0x20 c:/program files (x86)/microchip/xc32/v1.33/bin/bin/../../lib/gcc/pic32mx/4.5.2/../../../../pic32mx/lib\libc.a(strncpy.o)
 .debug_aranges
                0x000020f8       0x28 c:/program files (x86)/microchip/xc32/v1.33/bin/bin/../../lib/gcc/pic32mx/4.5.2/../../../../pic32mx/lib\libc.a(strtol.o)
 .debug_aranges
                0x00002120       0x20 c:/program files (x86)/microchip/xc32/v1.33/bin/bin/../../lib/gcc/pic32mx/4.5.2/../../../../pic32mx/lib\libc.a(snprintf_cdnopsuxX.eo)
 .debug_aranges
                0x00002140       0x20 c:/program files (x86)/microchip/xc32/v1.33/bin/bin/../../lib/gcc/pic32mx/4.5.2/../../../../pic32mx/lib\libc.a(sprintf_cdnopsuxX.eo)
 .debug_aranges
                0x00002160       0x20 c:/program files (x86)/microchip/xc32/v1.33/bin/bin/../../lib/gcc/pic32mx/4.5.2/../../../../pic32mx/lib\libc.a(vsnprintf_cdnopsuxX.eo)
 .debug_aranges
                0x00002180       0x20 c:/program files (x86)/microchip/xc32/v1.33/bin/bin/../../lib/gcc/pic32mx/4.5.2/../../../../pic32mx/lib\libc.a(vsnprintf.o)
 .debug_aranges
                0x000021a0       0xa0 c:/program files (x86)/microchip/xc32/v1.33/bin/bin/../../lib/gcc/pic32mx/4.5.2/../../../../pic32mx/lib\libc.a(ctypef.o)
 .debug_aranges
                0x00002240       0x20 c:/program files (x86)/microchip/xc32/v1.33/bin/bin/../../lib/gcc/pic32mx/4.5.2/../../../../pic32mx/lib\libc.a(doprnt_cdnopsuxX.eo)
 .debug_aranges
                0x00002260       0x30 c:/program files (x86)/microchip/xc32/v1.33/bin/bin/../../lib/gcc/pic32mx/4.5.2/../../../../pic32mx/lib\libc.a(doprnt.o)
 .debug_aranges
                0x00002290       0x20 c:/program files (x86)/microchip/xc32/v1.33/bin/bin/../../lib/gcc/pic32mx/4.5.2/../../../../pic32mx/lib\libc.a(_fputc_simple.o)
 .debug_aranges
                0x000022b0       0x20 c:/program files (x86)/microchip/xc32/v1.33/bin/bin/../../lib/gcc/pic32mx/4.5.2/../../../../pic32mx/lib\libc.a(_flsbuf_simple.o)
 .debug_aranges
                0x000022d0       0x40 c:/program files (x86)/microchip/xc32/v1.33/bin/bin/../../lib/gcc/pic32mx/4.5.2/../../../../pic32mx/lib\libpic32.a(sbrk.o)
 .debug_aranges
                0x00002310       0x20 c:/program files (x86)/microchip/xc32/v1.33/bin/bin/../../lib/gcc/pic32mx/4.5.2/../../../../pic32mx/lib\libpic32.a(write.o)
 .debug_aranges
                0x00002330       0x20 c:/program files (x86)/microchip/xc32/v1.33/bin/bin/../../lib/gcc/pic32mx/4.5.2/../../../../pic32mx/lib\libpic32.a(_mon_putc.o)
 .debug_aranges
                0x00002350       0x20 c:/program files (x86)/microchip/xc32/v1.33/bin/bin/../../lib/gcc/pic32mx/4.5.2/../../../../pic32mx/lib\libe.a(_floatdisf.o)
 .debug_aranges
                0x00002370       0x20 c:/program files (x86)/microchip/xc32/v1.33/bin/bin/../../lib/gcc/pic32mx/4.5.2\libgcc.a(_floatundisf.o)
 .debug_aranges
                0x00002390       0x20 c:/program files (x86)/microchip/xc32/v1.33/bin/bin/../../lib/gcc/pic32mx/4.5.2\libgcc.a(_umoddi3.o)
 .debug_aranges
                0x000023b0       0x20 c:/program files (x86)/microchip/xc32/v1.33/bin/bin/../../lib/gcc/pic32mx/4.5.2\libgcc.a(floatunsisf.o)

.debug_pubnames
                0x00000000     0x5116
 *(.debug_pubnames)
 .debug_pubnames
                0x00000000       0x5a build/default/production/_ext/595770632/random.o
 .debug_pubnames
                0x0000005a       0x31 build/default/production/_ext/595770632/arc4.o
 .debug_pubnames
                0x0000008b       0xd4 build/default/production/_ext/595770632/crypto.o
 .debug_pubnames
                0x0000015f      0x34b build/default/production/_ext/1986204992/drv_ethmac.o
 .debug_pubnames
                0x000004aa      0x2cc build/default/production/_ext/1986204992/drv_ethmac_lib.o
 .debug_pubnames
                0x00000776      0x41f build/default/production/_ext/810051186/drv_ethphy.o
 .debug_pubnames
                0x00000b95       0x76 build/default/production/_ext/810051186/drv_extphy_smsc8740.o
 .debug_pubnames
                0x00000c0b      0x464 build/default/production/_ext/304478105/drv_tmr.o
 .debug_pubnames
                0x0000106f      0x160 build/default/production/_ext/335806368/sys_devcon.o
 .debug_pubnames
                0x000011cf       0x33 build/default/production/_ext/335806368/sys_devcon_pic32mx.o
 .debug_pubnames
                0x00001202       0x7f build/default/production/_ext/1055666758/sys_int_pic32.o
 .debug_pubnames
                0x00001281      0x376 build/default/production/_ext/1237536663/sys_ports.o
 .debug_pubnames
                0x000015f7      0x13f build/default/production/_ext/323145514/sys_random.o
 .debug_pubnames
                0x00001736       0x2e build/default/production/_ext/346722522/sys_reset.o
 .debug_pubnames
                0x00001764      0x1e5 build/default/production/_ext/2097170832/sys_tmr.o
 .debug_pubnames
                0x00001949      0x3e5 build/default/production/_ext/1144052859/tcp.o
 .debug_pubnames
                0x00001d2e      0x3a1 build/default/production/_ext/1144052859/udp.o
 .debug_pubnames
                0x000020cf      0x28c build/default/production/_ext/1144052859/arp.o
 .debug_pubnames
                0x0000235b      0x1af build/default/production/_ext/1144052859/dhcp.o
 .debug_pubnames
                0x0000250a      0x284 build/default/production/_ext/1144052859/dns.o
 .debug_pubnames
                0x0000278e       0xd0 build/default/production/_ext/1144052859/icmp.o
 .debug_pubnames
                0x0000285e       0x6c build/default/production/_ext/1144052859/nbns.o
 .debug_pubnames
                0x000028ca       0x4b build/default/production/_ext/1144052859/zero_conf_helper.o
 .debug_pubnames
                0x00002915       0xcb build/default/production/_ext/1144052859/zero_conf_link_local.o
 .debug_pubnames
                0x000029e0       0xa7 build/default/production/_ext/1144052859/tcpip_announce.o
 .debug_pubnames
                0x00002a87       0xa6 build/default/production/_ext/1144052859/tcpip_commands.o
 .debug_pubnames
                0x00002b2d       0xeb build/default/production/_ext/1997815295/big_int.o
 .debug_pubnames
                0x00002c18       0x97 build/default/production/_ext/1997815295/hashes.o
 .debug_pubnames
                0x00002caf       0x81 build/default/production/_ext/1997815295/helpers.o
 .debug_pubnames
                0x00002d30       0x30 build/default/production/_ext/1997815295/lfsr.o
 .debug_pubnames
                0x00002d60       0x33 build/default/production/_ext/1144052859/hash_fnv.o
 .debug_pubnames
                0x00002d93       0xc9 build/default/production/_ext/1144052859/oahash.o
 .debug_pubnames
                0x00002e5c       0xed build/default/production/_ext/1144052859/tcpip_heap_alloc.o
 .debug_pubnames
                0x00002f49      0x885 build/default/production/_ext/1144052859/tcpip_helpers.o
 .debug_pubnames
                0x000037ce      0xa80 build/default/production/_ext/1144052859/tcpip_manager.o
 .debug_pubnames
                0x0000424e       0xc2 build/default/production/_ext/1144052859/tcpip_notify.o
 .debug_pubnames
                0x00004310      0x209 build/default/production/_ext/1144052859/tcpip_packet.o
 .debug_pubnames
                0x00004519      0x178 build/default/production/_ext/1829665213/system_debug.o
 .debug_pubnames
                0x00004691       0xa4 build/default/production/_ext/918699391/usart.o
 .debug_pubnames
                0x00004735       0xae build/default/production/_ext/1829665213/system_command.o
 .debug_pubnames
                0x000047e3      0x100 build/default/production/_ext/1144052859/ipv4.o
 .debug_pubnames
                0x000048e3       0x4f build/default/production/_ext/1360937237/app.o
 .debug_pubnames
                0x00004932       0xa2 build/default/production/_ext/639803181/sys_clk_static.o
 .debug_pubnames
                0x000049d4       0x2b build/default/production/_ext/822048611/sys_ports_static.o
 .debug_pubnames
                0x000049ff      0x1a1 build/default/production/_ext/1688732426/system_init.o
 .debug_pubnames
                0x00004ba0       0x72 build/default/production/_ext/1688732426/system_interrupt.o
 .debug_pubnames
                0x00004c12       0x1b build/default/production/_ext/1360937237/main.o
 .debug_pubnames
                0x00004c2d       0x30 build/default/production/_ext/1688732426/system_tasks.o
 .debug_pubnames
                0x00004c5d       0x20 c:/program files (x86)/microchip/xc32/v1.33/bin/bin/../../lib/gcc/pic32mx/4.5.2\libgcc.a(_udivdi3.o)
 .debug_pubnames
                0x00004c7d       0x33 c:/program files (x86)/microchip/xc32/v1.33/bin/bin/../../lib/gcc/pic32mx/4.5.2/../../../../pic32mx/lib\libpic32.a(default-bootstrap-exception-handler.o)
 .debug_pubnames
                0x00004cb0       0x20 c:/program files (x86)/microchip/xc32/v1.33/bin/bin/../../lib/gcc/pic32mx/4.5.2/../../../../pic32mx/lib\libpic32.a(default-on-reset.o)
 .debug_pubnames
                0x00004cd0       0x24 c:/program files (x86)/microchip/xc32/v1.33/bin/bin/../../lib/gcc/pic32mx/4.5.2/../../../../pic32mx/lib\libpic32.a(default-on-bootstrap.o)
 .debug_pubnames
                0x00004cf4       0x28 c:/program files (x86)/microchip/xc32/v1.33/bin/bin/../../lib/gcc/pic32mx/4.5.2/../../../../pic32mx/lib\libpic32.a(defaultinterrupt.o)
 .debug_pubnames
                0x00004d1c       0x1b c:/program files (x86)/microchip/xc32/v1.33/bin/bin/../../lib/gcc/pic32mx/4.5.2/../../../../pic32mx/lib\libc.a(atoi.o)
 .debug_pubnames
                0x00004d37       0x1d c:/program files (x86)/microchip/xc32/v1.33/bin/bin/../../lib/gcc/pic32mx/4.5.2/../../../../pic32mx/lib\libc.a(calloc.o)
 .debug_pubnames
                0x00004d54       0x32 c:/program files (x86)/microchip/xc32/v1.33/bin/bin/../../lib/gcc/pic32mx/4.5.2/../../../../pic32mx/lib\libc.a(malloc.o)
 .debug_pubnames
                0x00004d86       0x25 c:/program files (x86)/microchip/xc32/v1.33/bin/bin/../../lib/gcc/pic32mx/4.5.2/../../../../pic32mx/lib\libc.a(rand.o)
 .debug_pubnames
                0x00004dab       0x1e c:/program files (x86)/microchip/xc32/v1.33/bin/bin/../../lib/gcc/pic32mx/4.5.2/../../../../pic32mx/lib\libc.a(strncpy.o)
 .debug_pubnames
                0x00004dc9       0x29 c:/program files (x86)/microchip/xc32/v1.33/bin/bin/../../lib/gcc/pic32mx/4.5.2/../../../../pic32mx/lib\libc.a(strtol.o)
 .debug_pubnames
                0x00004df2       0x2a c:/program files (x86)/microchip/xc32/v1.33/bin/bin/../../lib/gcc/pic32mx/4.5.2/../../../../pic32mx/lib\libc.a(snprintf_cdnopsuxX.eo)
 .debug_pubnames
                0x00004e1c       0x29 c:/program files (x86)/microchip/xc32/v1.33/bin/bin/../../lib/gcc/pic32mx/4.5.2/../../../../pic32mx/lib\libc.a(sprintf_cdnopsuxX.eo)
 .debug_pubnames
                0x00004e45       0x2b c:/program files (x86)/microchip/xc32/v1.33/bin/bin/../../lib/gcc/pic32mx/4.5.2/../../../../pic32mx/lib\libc.a(vsnprintf_cdnopsuxX.eo)
 .debug_pubnames
                0x00004e70       0x20 c:/program files (x86)/microchip/xc32/v1.33/bin/bin/../../lib/gcc/pic32mx/4.5.2/../../../../pic32mx/lib\libc.a(vsnprintf.o)
 .debug_pubnames
                0x00004e90       0xe1 c:/program files (x86)/microchip/xc32/v1.33/bin/bin/../../lib/gcc/pic32mx/4.5.2/../../../../pic32mx/lib\libc.a(ctypef.o)
 .debug_pubnames
                0x00004f71       0x2a c:/program files (x86)/microchip/xc32/v1.33/bin/bin/../../lib/gcc/pic32mx/4.5.2/../../../../pic32mx/lib\libc.a(doprnt_cdnopsuxX.eo)
 .debug_pubnames
                0x00004f9b       0x1f c:/program files (x86)/microchip/xc32/v1.33/bin/bin/../../lib/gcc/pic32mx/4.5.2/../../../../pic32mx/lib\libc.a(doprnt.o)
 .debug_pubnames
                0x00004fba       0x1c c:/program files (x86)/microchip/xc32/v1.33/bin/bin/../../lib/gcc/pic32mx/4.5.2/../../../../pic32mx/lib\libc.a(_fputc_simple.o)
 .debug_pubnames
                0x00004fd6       0x1e c:/program files (x86)/microchip/xc32/v1.33/bin/bin/../../lib/gcc/pic32mx/4.5.2/../../../../pic32mx/lib\libc.a(_flsbuf_simple.o)
 .debug_pubnames
                0x00004ff4       0x5c c:/program files (x86)/microchip/xc32/v1.33/bin/bin/../../lib/gcc/pic32mx/4.5.2/../../../../pic32mx/lib\libpic32.a(sbrk.o)
 .debug_pubnames
                0x00005050       0x1c c:/program files (x86)/microchip/xc32/v1.33/bin/bin/../../lib/gcc/pic32mx/4.5.2/../../../../pic32mx/lib\libpic32.a(write.o)
 .debug_pubnames
                0x0000506c       0x20 c:/program files (x86)/microchip/xc32/v1.33/bin/bin/../../lib/gcc/pic32mx/4.5.2/../../../../pic32mx/lib\libpic32.a(_mon_putc.o)
 .debug_pubnames
                0x0000508c       0x22 c:/program files (x86)/microchip/xc32/v1.33/bin/bin/../../lib/gcc/pic32mx/4.5.2/../../../../pic32mx/lib\libe.a(_floatdisf.o)
 .debug_pubnames
                0x000050ae       0x24 c:/program files (x86)/microchip/xc32/v1.33/bin/bin/../../lib/gcc/pic32mx/4.5.2\libgcc.a(_floatundisf.o)
 .debug_pubnames
                0x000050d2       0x20 c:/program files (x86)/microchip/xc32/v1.33/bin/bin/../../lib/gcc/pic32mx/4.5.2\libgcc.a(_umoddi3.o)
 .debug_pubnames
                0x000050f2       0x24 c:/program files (x86)/microchip/xc32/v1.33/bin/bin/../../lib/gcc/pic32mx/4.5.2\libgcc.a(floatunsisf.o)

.debug_info     0x00000000    0x85988
 *(.debug_info .gnu.linkonce.wi.*)
 .debug_info    0x00000000      0x3c9 build/default/production/_ext/595770632/random.o
 .debug_info    0x000003c9      0x398 build/default/production/_ext/595770632/arc4.o
 .debug_info    0x00000761      0xae7 build/default/production/_ext/595770632/crypto.o
 .debug_info    0x00001248     0x7708 build/default/production/_ext/1986204992/drv_ethmac.o
 .debug_info    0x00008950     0x804b build/default/production/_ext/1986204992/drv_ethmac_lib.o
 .debug_info    0x0001099b     0x5b1c build/default/production/_ext/810051186/drv_ethphy.o
 .debug_info    0x000164b7      0xebe build/default/production/_ext/810051186/drv_extphy_smsc8740.o
 .debug_info    0x00017375     0x6e7f build/default/production/_ext/304478105/drv_tmr.o
 .debug_info    0x0001e1f4     0x1194 build/default/production/_ext/335806368/sys_devcon.o
 .debug_info    0x0001f388      0xf90 build/default/production/_ext/335806368/sys_devcon_pic32mx.o
 .debug_info    0x00020318     0x14bc build/default/production/_ext/1055666758/sys_int_pic32.o
 .debug_info    0x000217d4     0x3354 build/default/production/_ext/1237536663/sys_ports.o
 .debug_info    0x00024b28      0x742 build/default/production/_ext/323145514/sys_random.o
 .debug_info    0x0002526a      0x598 build/default/production/_ext/346722522/sys_reset.o
 .debug_info    0x00025802     0x220f build/default/production/_ext/2097170832/sys_tmr.o
 .debug_info    0x00027a11     0x7733 build/default/production/_ext/1144052859/tcp.o
 .debug_info    0x0002f144     0x699b build/default/production/_ext/1144052859/udp.o
 .debug_info    0x00035adf     0x55fa build/default/production/_ext/1144052859/arp.o
 .debug_info    0x0003b0d9     0x4e51 build/default/production/_ext/1144052859/dhcp.o
 .debug_info    0x0003ff2a     0x5f2b build/default/production/_ext/1144052859/dns.o
 .debug_info    0x00045e55     0x43f0 build/default/production/_ext/1144052859/icmp.o
 .debug_info    0x0004a245     0x3600 build/default/production/_ext/1144052859/nbns.o
 .debug_info    0x0004d845     0x1077 build/default/production/_ext/1144052859/zero_conf_helper.o
 .debug_info    0x0004e8bc     0x3965 build/default/production/_ext/1144052859/zero_conf_link_local.o
 .debug_info    0x00052221     0x36b5 build/default/production/_ext/1144052859/tcpip_announce.o
 .debug_info    0x000558d6     0x5c55 build/default/production/_ext/1144052859/tcpip_commands.o
 .debug_info    0x0005b52b      0x759 build/default/production/_ext/1997815295/big_int.o
 .debug_info    0x0005bc84      0x861 build/default/production/_ext/1997815295/hashes.o
 .debug_info    0x0005c4e5      0x545 build/default/production/_ext/1997815295/helpers.o
 .debug_info    0x0005ca2a      0x242 build/default/production/_ext/1997815295/lfsr.o
 .debug_info    0x0005cc6c      0x296 build/default/production/_ext/1144052859/hash_fnv.o
 .debug_info    0x0005cf02      0x803 build/default/production/_ext/1144052859/oahash.o
 .debug_info    0x0005d705     0x1c96 build/default/production/_ext/1144052859/tcpip_heap_alloc.o
 .debug_info    0x0005f39b     0x4726 build/default/production/_ext/1144052859/tcpip_helpers.o
 .debug_info    0x00063ac1       0xd3 build/default/production/_ext/1144052859/tcpip_helper_c32.o
 .debug_info    0x00063b94     0x850b build/default/production/_ext/1144052859/tcpip_manager.o
 .debug_info    0x0006c09f     0x12d4 build/default/production/_ext/1144052859/tcpip_notify.o
 .debug_info    0x0006d373     0x2719 build/default/production/_ext/1144052859/tcpip_packet.o
 .debug_info    0x0006fa8c     0x1924 build/default/production/_ext/1829665213/system_debug.o
 .debug_info    0x000713b0     0x1aac build/default/production/_ext/918699391/usart.o
 .debug_info    0x00072e5c     0x1efd build/default/production/_ext/1829665213/system_command.o
 .debug_info    0x00074d59     0x4754 build/default/production/_ext/1144052859/ipv4.o
 .debug_info    0x000794ad     0x1017 build/default/production/_ext/1360937237/app.o
 .debug_info    0x0007a4c4     0x18be build/default/production/_ext/639803181/sys_clk_static.o
 .debug_info    0x0007bd82      0xf38 build/default/production/_ext/822048611/sys_ports_static.o
 .debug_info    0x0007ccba     0x38dd build/default/production/_ext/1688732426/system_init.o
 .debug_info    0x00080597     0x1bdb build/default/production/_ext/1688732426/system_interrupt.o
 .debug_info    0x00082172      0x16c build/default/production/_ext/1360937237/main.o
 .debug_info    0x000822de     0x104b build/default/production/_ext/1688732426/system_tasks.o
 .debug_info    0x00083329      0x782 c:/program files (x86)/microchip/xc32/v1.33/bin/bin/../../lib/gcc/pic32mx/4.5.2\libgcc.a(_udivdi3.o)
 .debug_info    0x00083aab       0xe2 c:/program files (x86)/microchip/xc32/v1.33/bin/bin/../../lib/gcc/pic32mx/4.5.2/../../../../pic32mx/lib\libpic32.a(default-bootstrap-exception-handler.o)
 .debug_info    0x00083b8d       0xbc c:/program files (x86)/microchip/xc32/v1.33/bin/bin/../../lib/gcc/pic32mx/4.5.2/../../../../pic32mx/lib\libpic32.a(default-on-reset.o)
 .debug_info    0x00083c49       0xc4 c:/program files (x86)/microchip/xc32/v1.33/bin/bin/../../lib/gcc/pic32mx/4.5.2/../../../../pic32mx/lib\libpic32.a(default-on-bootstrap.o)
 .debug_info    0x00083d0d       0xd6 c:/program files (x86)/microchip/xc32/v1.33/bin/bin/../../lib/gcc/pic32mx/4.5.2/../../../../pic32mx/lib\libpic32.a(defaultinterrupt.o)
 .debug_info    0x00083de3       0xb1 c:/program files (x86)/microchip/xc32/v1.33/bin/bin/../../lib/gcc/pic32mx/4.5.2/../../../../pic32mx/lib\libc.a(atoi.o)
 .debug_info    0x00083e94       0xb5 c:/program files (x86)/microchip/xc32/v1.33/bin/bin/../../lib/gcc/pic32mx/4.5.2/../../../../pic32mx/lib\libc.a(calloc.o)
 .debug_info    0x00083f49        0x0 c:/program files (x86)/microchip/xc32/v1.33/bin/bin/../../lib/gcc/pic32mx/4.5.2/../../../../pic32mx/lib\libc.a(ctype.o)
 .debug_info    0x00083f49       0xe4 c:/program files (x86)/microchip/xc32/v1.33/bin/bin/../../lib/gcc/pic32mx/4.5.2/../../../../pic32mx/lib\libc.a(malloc.o)
 .debug_info    0x0008402d       0xcb c:/program files (x86)/microchip/xc32/v1.33/bin/bin/../../lib/gcc/pic32mx/4.5.2/../../../../pic32mx/lib\libc.a(rand.o)
 .debug_info    0x000840f8       0xb7 c:/program files (x86)/microchip/xc32/v1.33/bin/bin/../../lib/gcc/pic32mx/4.5.2/../../../../pic32mx/lib\libc.a(strncpy.o)
 .debug_info    0x000841af       0xcb c:/program files (x86)/microchip/xc32/v1.33/bin/bin/../../lib/gcc/pic32mx/4.5.2/../../../../pic32mx/lib\libc.a(strtol.o)
 .debug_info    0x0008427a       0xc4 c:/program files (x86)/microchip/xc32/v1.33/bin/bin/../../lib/gcc/pic32mx/4.5.2/../../../../pic32mx/lib\libc.a(snprintf_cdnopsuxX.eo)
 .debug_info    0x0008433e       0xc2 c:/program files (x86)/microchip/xc32/v1.33/bin/bin/../../lib/gcc/pic32mx/4.5.2/../../../../pic32mx/lib\libc.a(sprintf_cdnopsuxX.eo)
 .debug_info    0x00084400       0xc6 c:/program files (x86)/microchip/xc32/v1.33/bin/bin/../../lib/gcc/pic32mx/4.5.2/../../../../pic32mx/lib\libc.a(vsnprintf_cdnopsuxX.eo)
 .debug_info    0x000844c6       0xbb c:/program files (x86)/microchip/xc32/v1.33/bin/bin/../../lib/gcc/pic32mx/4.5.2/../../../../pic32mx/lib\libc.a(vsnprintf.o)
 .debug_info    0x00084581      0x219 c:/program files (x86)/microchip/xc32/v1.33/bin/bin/../../lib/gcc/pic32mx/4.5.2/../../../../pic32mx/lib\libc.a(ctypef.o)
 .debug_info    0x0008479a        0x0 c:/program files (x86)/microchip/xc32/v1.33/bin/bin/../../lib/gcc/pic32mx/4.5.2/../../../../pic32mx/lib\libc.a(errno.o)
 .debug_info    0x0008479a       0xc3 c:/program files (x86)/microchip/xc32/v1.33/bin/bin/../../lib/gcc/pic32mx/4.5.2/../../../../pic32mx/lib\libc.a(doprnt_cdnopsuxX.eo)
 .debug_info    0x0008485d       0xe1 c:/program files (x86)/microchip/xc32/v1.33/bin/bin/../../lib/gcc/pic32mx/4.5.2/../../../../pic32mx/lib\libc.a(doprnt.o)
 .debug_info    0x0008493e       0xb3 c:/program files (x86)/microchip/xc32/v1.33/bin/bin/../../lib/gcc/pic32mx/4.5.2/../../../../pic32mx/lib\libc.a(_fputc_simple.o)
 .debug_info    0x000849f1        0x0 c:/program files (x86)/microchip/xc32/v1.33/bin/bin/../../lib/gcc/pic32mx/4.5.2/../../../../pic32mx/lib\libc.a(powersf.o)
 .debug_info    0x000849f1        0x0 c:/program files (x86)/microchip/xc32/v1.33/bin/bin/../../lib/gcc/pic32mx/4.5.2/../../../../pic32mx/lib\libc.a(_iob.o)
 .debug_info    0x000849f1       0xb6 c:/program files (x86)/microchip/xc32/v1.33/bin/bin/../../lib/gcc/pic32mx/4.5.2/../../../../pic32mx/lib\libc.a(_flsbuf_simple.o)
 .debug_info    0x00084aa7      0x115 c:/program files (x86)/microchip/xc32/v1.33/bin/bin/../../lib/gcc/pic32mx/4.5.2/../../../../pic32mx/lib\libpic32.a(sbrk.o)
 .debug_info    0x00084bbc       0xad c:/program files (x86)/microchip/xc32/v1.33/bin/bin/../../lib/gcc/pic32mx/4.5.2/../../../../pic32mx/lib\libpic32.a(write.o)
 .debug_info    0x00084c69       0xb5 c:/program files (x86)/microchip/xc32/v1.33/bin/bin/../../lib/gcc/pic32mx/4.5.2/../../../../pic32mx/lib\libpic32.a(_mon_putc.o)
 .debug_info    0x00084d1e        0x0 c:/program files (x86)/microchip/xc32/v1.33/bin/bin/../../lib/gcc/pic32mx/4.5.2/../../../../pic32mx/lib\libpic32.a(xc32_uart.o)
 .debug_info    0x00084d1e       0xcb c:/program files (x86)/microchip/xc32/v1.33/bin/bin/../../lib/gcc/pic32mx/4.5.2/../../../../pic32mx/lib\libe.a(_floatdisf.o)
 .debug_info    0x00084de9      0x2c2 c:/program files (x86)/microchip/xc32/v1.33/bin/bin/../../lib/gcc/pic32mx/4.5.2\libgcc.a(_floatundisf.o)
 .debug_info    0x000850ab      0x7b8 c:/program files (x86)/microchip/xc32/v1.33/bin/bin/../../lib/gcc/pic32mx/4.5.2\libgcc.a(_umoddi3.o)
 .debug_info    0x00085863      0x125 c:/program files (x86)/microchip/xc32/v1.33/bin/bin/../../lib/gcc/pic32mx/4.5.2\libgcc.a(floatunsisf.o)

.debug_abbrev   0x00000000     0x7fd7
 *(.debug_abbrev)
 .debug_abbrev  0x00000000       0xda build/default/production/_ext/595770632/random.o
 .debug_abbrev  0x000000da      0x13d build/default/production/_ext/595770632/arc4.o
 .debug_abbrev  0x00000217       0xe6 build/default/production/_ext/595770632/crypto.o
 .debug_abbrev  0x000002fd      0x474 build/default/production/_ext/1986204992/drv_ethmac.o
 .debug_abbrev  0x00000771      0x498 build/default/production/_ext/1986204992/drv_ethmac_lib.o
 .debug_abbrev  0x00000c09      0x43a build/default/production/_ext/810051186/drv_ethphy.o
 .debug_abbrev  0x00001043      0x163 build/default/production/_ext/810051186/drv_extphy_smsc8740.o
 .debug_abbrev  0x000011a6      0x404 build/default/production/_ext/304478105/drv_tmr.o
 .debug_abbrev  0x000015aa      0x245 build/default/production/_ext/335806368/sys_devcon.o
 .debug_abbrev  0x000017ef      0x178 build/default/production/_ext/335806368/sys_devcon_pic32mx.o
 .debug_abbrev  0x00001967      0x168 build/default/production/_ext/1055666758/sys_int_pic32.o
 .debug_abbrev  0x00001acf      0x1ec build/default/production/_ext/1237536663/sys_ports.o
 .debug_abbrev  0x00001cbb      0x1cb build/default/production/_ext/323145514/sys_random.o
 .debug_abbrev  0x00001e86      0x121 build/default/production/_ext/346722522/sys_reset.o
 .debug_abbrev  0x00001fa7      0x3c6 build/default/production/_ext/2097170832/sys_tmr.o
 .debug_abbrev  0x0000236d      0x4a8 build/default/production/_ext/1144052859/tcp.o
 .debug_abbrev  0x00002815      0x4e5 build/default/production/_ext/1144052859/udp.o
 .debug_abbrev  0x00002cfa      0x48f build/default/production/_ext/1144052859/arp.o
 .debug_abbrev  0x00003189      0x42b build/default/production/_ext/1144052859/dhcp.o
 .debug_abbrev  0x000035b4      0x496 build/default/production/_ext/1144052859/dns.o
 .debug_abbrev  0x00003a4a      0x40b build/default/production/_ext/1144052859/icmp.o
 .debug_abbrev  0x00003e55      0x36a build/default/production/_ext/1144052859/nbns.o
 .debug_abbrev  0x000041bf       0xcf build/default/production/_ext/1144052859/zero_conf_helper.o
 .debug_abbrev  0x0000428e      0x3c3 build/default/production/_ext/1144052859/zero_conf_link_local.o
 .debug_abbrev  0x00004651      0x377 build/default/production/_ext/1144052859/tcpip_announce.o
 .debug_abbrev  0x000049c8      0x3f1 build/default/production/_ext/1144052859/tcpip_commands.o
 .debug_abbrev  0x00004db9      0x146 build/default/production/_ext/1997815295/big_int.o
 .debug_abbrev  0x00004eff      0x1f5 build/default/production/_ext/1997815295/hashes.o
 .debug_abbrev  0x000050f4      0x128 build/default/production/_ext/1997815295/helpers.o
 .debug_abbrev  0x0000521c       0x81 build/default/production/_ext/1997815295/lfsr.o
 .debug_abbrev  0x0000529d       0xa8 build/default/production/_ext/1144052859/hash_fnv.o
 .debug_abbrev  0x00005345      0x206 build/default/production/_ext/1144052859/oahash.o
 .debug_abbrev  0x0000554b      0x284 build/default/production/_ext/1144052859/tcpip_heap_alloc.o
 .debug_abbrev  0x000057cf      0x362 build/default/production/_ext/1144052859/tcpip_helpers.o
 .debug_abbrev  0x00005b31       0x14 build/default/production/_ext/1144052859/tcpip_helper_c32.o
 .debug_abbrev  0x00005b45      0x4f7 build/default/production/_ext/1144052859/tcpip_manager.o
 .debug_abbrev  0x0000603c      0x14b build/default/production/_ext/1144052859/tcpip_notify.o
 .debug_abbrev  0x00006187      0x28c build/default/production/_ext/1144052859/tcpip_packet.o
 .debug_abbrev  0x00006413      0x27f build/default/production/_ext/1829665213/system_debug.o
 .debug_abbrev  0x00006692      0x1f4 build/default/production/_ext/918699391/usart.o
 .debug_abbrev  0x00006886      0x2ff build/default/production/_ext/1829665213/system_command.o
 .debug_abbrev  0x00006b85      0x424 build/default/production/_ext/1144052859/ipv4.o
 .debug_abbrev  0x00006fa9       0xcf build/default/production/_ext/1360937237/app.o
 .debug_abbrev  0x00007078      0x214 build/default/production/_ext/639803181/sys_clk_static.o
 .debug_abbrev  0x0000728c      0x115 build/default/production/_ext/822048611/sys_ports_static.o
 .debug_abbrev  0x000073a1      0x2a6 build/default/production/_ext/1688732426/system_init.o
 .debug_abbrev  0x00007647      0x17f build/default/production/_ext/1688732426/system_interrupt.o
 .debug_abbrev  0x000077c6       0x38 build/default/production/_ext/1360937237/main.o
 .debug_abbrev  0x000077fe       0xcf build/default/production/_ext/1688732426/system_tasks.o
 .debug_abbrev  0x000078cd      0x132 c:/program files (x86)/microchip/xc32/v1.33/bin/bin/../../lib/gcc/pic32mx/4.5.2\libgcc.a(_udivdi3.o)
 .debug_abbrev  0x000079ff       0x25 c:/program files (x86)/microchip/xc32/v1.33/bin/bin/../../lib/gcc/pic32mx/4.5.2/../../../../pic32mx/lib\libpic32.a(default-bootstrap-exception-handler.o)
 .debug_abbrev  0x00007a24       0x25 c:/program files (x86)/microchip/xc32/v1.33/bin/bin/../../lib/gcc/pic32mx/4.5.2/../../../../pic32mx/lib\libpic32.a(default-on-reset.o)
 .debug_abbrev  0x00007a49       0x25 c:/program files (x86)/microchip/xc32/v1.33/bin/bin/../../lib/gcc/pic32mx/4.5.2/../../../../pic32mx/lib\libpic32.a(default-on-bootstrap.o)
 .debug_abbrev  0x00007a6e       0x25 c:/program files (x86)/microchip/xc32/v1.33/bin/bin/../../lib/gcc/pic32mx/4.5.2/../../../../pic32mx/lib\libpic32.a(defaultinterrupt.o)
 .debug_abbrev  0x00007a93       0x25 c:/program files (x86)/microchip/xc32/v1.33/bin/bin/../../lib/gcc/pic32mx/4.5.2/../../../../pic32mx/lib\libc.a(atoi.o)
 .debug_abbrev  0x00007ab8       0x25 c:/program files (x86)/microchip/xc32/v1.33/bin/bin/../../lib/gcc/pic32mx/4.5.2/../../../../pic32mx/lib\libc.a(calloc.o)
 .debug_abbrev  0x00007add        0x1 c:/program files (x86)/microchip/xc32/v1.33/bin/bin/../../lib/gcc/pic32mx/4.5.2/../../../../pic32mx/lib\libc.a(ctype.o)
 .debug_abbrev  0x00007ade       0x41 c:/program files (x86)/microchip/xc32/v1.33/bin/bin/../../lib/gcc/pic32mx/4.5.2/../../../../pic32mx/lib\libc.a(malloc.o)
 .debug_abbrev  0x00007b1f       0x41 c:/program files (x86)/microchip/xc32/v1.33/bin/bin/../../lib/gcc/pic32mx/4.5.2/../../../../pic32mx/lib\libc.a(rand.o)
 .debug_abbrev  0x00007b60       0x25 c:/program files (x86)/microchip/xc32/v1.33/bin/bin/../../lib/gcc/pic32mx/4.5.2/../../../../pic32mx/lib\libc.a(strncpy.o)
 .debug_abbrev  0x00007b85       0x25 c:/program files (x86)/microchip/xc32/v1.33/bin/bin/../../lib/gcc/pic32mx/4.5.2/../../../../pic32mx/lib\libc.a(strtol.o)
 .debug_abbrev  0x00007baa       0x25 c:/program files (x86)/microchip/xc32/v1.33/bin/bin/../../lib/gcc/pic32mx/4.5.2/../../../../pic32mx/lib\libc.a(snprintf_cdnopsuxX.eo)
 .debug_abbrev  0x00007bcf       0x25 c:/program files (x86)/microchip/xc32/v1.33/bin/bin/../../lib/gcc/pic32mx/4.5.2/../../../../pic32mx/lib\libc.a(sprintf_cdnopsuxX.eo)
 .debug_abbrev  0x00007bf4       0x25 c:/program files (x86)/microchip/xc32/v1.33/bin/bin/../../lib/gcc/pic32mx/4.5.2/../../../../pic32mx/lib\libc.a(vsnprintf_cdnopsuxX.eo)
 .debug_abbrev  0x00007c19       0x25 c:/program files (x86)/microchip/xc32/v1.33/bin/bin/../../lib/gcc/pic32mx/4.5.2/../../../../pic32mx/lib\libc.a(vsnprintf.o)
 .debug_abbrev  0x00007c3e       0x25 c:/program files (x86)/microchip/xc32/v1.33/bin/bin/../../lib/gcc/pic32mx/4.5.2/../../../../pic32mx/lib\libc.a(ctypef.o)
 .debug_abbrev  0x00007c63        0x1 c:/program files (x86)/microchip/xc32/v1.33/bin/bin/../../lib/gcc/pic32mx/4.5.2/../../../../pic32mx/lib\libc.a(errno.o)
 .debug_abbrev  0x00007c64       0x25 c:/program files (x86)/microchip/xc32/v1.33/bin/bin/../../lib/gcc/pic32mx/4.5.2/../../../../pic32mx/lib\libc.a(doprnt_cdnopsuxX.eo)
 .debug_abbrev  0x00007c89       0x36 c:/program files (x86)/microchip/xc32/v1.33/bin/bin/../../lib/gcc/pic32mx/4.5.2/../../../../pic32mx/lib\libc.a(doprnt.o)
 .debug_abbrev  0x00007cbf       0x25 c:/program files (x86)/microchip/xc32/v1.33/bin/bin/../../lib/gcc/pic32mx/4.5.2/../../../../pic32mx/lib\libc.a(_fputc_simple.o)
 .debug_abbrev  0x00007ce4        0x1 c:/program files (x86)/microchip/xc32/v1.33/bin/bin/../../lib/gcc/pic32mx/4.5.2/../../../../pic32mx/lib\libc.a(powersf.o)
 .debug_abbrev  0x00007ce5        0x1 c:/program files (x86)/microchip/xc32/v1.33/bin/bin/../../lib/gcc/pic32mx/4.5.2/../../../../pic32mx/lib\libc.a(_iob.o)
 .debug_abbrev  0x00007ce6       0x25 c:/program files (x86)/microchip/xc32/v1.33/bin/bin/../../lib/gcc/pic32mx/4.5.2/../../../../pic32mx/lib\libc.a(_flsbuf_simple.o)
 .debug_abbrev  0x00007d0b       0x38 c:/program files (x86)/microchip/xc32/v1.33/bin/bin/../../lib/gcc/pic32mx/4.5.2/../../../../pic32mx/lib\libpic32.a(sbrk.o)
 .debug_abbrev  0x00007d43       0x25 c:/program files (x86)/microchip/xc32/v1.33/bin/bin/../../lib/gcc/pic32mx/4.5.2/../../../../pic32mx/lib\libpic32.a(write.o)
 .debug_abbrev  0x00007d68       0x25 c:/program files (x86)/microchip/xc32/v1.33/bin/bin/../../lib/gcc/pic32mx/4.5.2/../../../../pic32mx/lib\libpic32.a(_mon_putc.o)
 .debug_abbrev  0x00007d8d        0x1 c:/program files (x86)/microchip/xc32/v1.33/bin/bin/../../lib/gcc/pic32mx/4.5.2/../../../../pic32mx/lib\libpic32.a(xc32_uart.o)
 .debug_abbrev  0x00007d8e       0x32 c:/program files (x86)/microchip/xc32/v1.33/bin/bin/../../lib/gcc/pic32mx/4.5.2/../../../../pic32mx/lib\libe.a(_floatdisf.o)
 .debug_abbrev  0x00007dc0       0x79 c:/program files (x86)/microchip/xc32/v1.33/bin/bin/../../lib/gcc/pic32mx/4.5.2\libgcc.a(_floatundisf.o)
 .debug_abbrev  0x00007e39      0x13f c:/program files (x86)/microchip/xc32/v1.33/bin/bin/../../lib/gcc/pic32mx/4.5.2\libgcc.a(_umoddi3.o)
 .debug_abbrev  0x00007f78       0x5f c:/program files (x86)/microchip/xc32/v1.33/bin/bin/../../lib/gcc/pic32mx/4.5.2\libgcc.a(floatunsisf.o)

.debug_line     0x00000000    0x12982
 *(.debug_line)
 .debug_line    0x00000000       0xe0 build/default/production/_ext/595770632/random.o
 .debug_line    0x000000e0       0xc2 build/default/production/_ext/595770632/arc4.o
 .debug_line    0x000001a2      0x168 build/default/production/_ext/595770632/crypto.o
 .debug_line    0x0000030a      0xd2a build/default/production/_ext/1986204992/drv_ethmac.o
 .debug_line    0x00001034      0xeab build/default/production/_ext/1986204992/drv_ethmac_lib.o
 .debug_line    0x00001edf      0xe86 build/default/production/_ext/810051186/drv_ethphy.o
 .debug_line    0x00002d65      0x2e0 build/default/production/_ext/810051186/drv_extphy_smsc8740.o
 .debug_line    0x00003045     0x160f build/default/production/_ext/304478105/drv_tmr.o
 .debug_line    0x00004654      0x5a4 build/default/production/_ext/335806368/sys_devcon.o
 .debug_line    0x00004bf8      0x439 build/default/production/_ext/335806368/sys_devcon_pic32mx.o
 .debug_line    0x00005031      0x317 build/default/production/_ext/1055666758/sys_int_pic32.o
 .debug_line    0x00005348      0x865 build/default/production/_ext/1237536663/sys_ports.o
 .debug_line    0x00005bad      0x293 build/default/production/_ext/323145514/sys_random.o
 .debug_line    0x00005e40      0x2fa build/default/production/_ext/346722522/sys_reset.o
 .debug_line    0x0000613a      0x5db build/default/production/_ext/2097170832/sys_tmr.o
 .debug_line    0x00006715     0x1097 build/default/production/_ext/1144052859/tcp.o
 .debug_line    0x000077ac      0xbc0 build/default/production/_ext/1144052859/udp.o
 .debug_line    0x0000836c      0x918 build/default/production/_ext/1144052859/arp.o
 .debug_line    0x00008c84      0x869 build/default/production/_ext/1144052859/dhcp.o
 .debug_line    0x000094ed      0xa41 build/default/production/_ext/1144052859/dns.o
 .debug_line    0x00009f2e      0x4ad build/default/production/_ext/1144052859/icmp.o
 .debug_line    0x0000a3db      0x458 build/default/production/_ext/1144052859/nbns.o
 .debug_line    0x0000a833      0x201 build/default/production/_ext/1144052859/zero_conf_helper.o
 .debug_line    0x0000aa34      0x59a build/default/production/_ext/1144052859/zero_conf_link_local.o
 .debug_line    0x0000afce      0x490 build/default/production/_ext/1144052859/tcpip_announce.o
 .debug_line    0x0000b45e      0xa91 build/default/production/_ext/1144052859/tcpip_commands.o
 .debug_line    0x0000beef      0x22d build/default/production/_ext/1997815295/big_int.o
 .debug_line    0x0000c11c      0x29d build/default/production/_ext/1997815295/hashes.o
 .debug_line    0x0000c3b9      0x1f2 build/default/production/_ext/1997815295/helpers.o
 .debug_line    0x0000c5ab       0xde build/default/production/_ext/1997815295/lfsr.o
 .debug_line    0x0000c689      0x137 build/default/production/_ext/1144052859/hash_fnv.o
 .debug_line    0x0000c7c0      0x1f3 build/default/production/_ext/1144052859/oahash.o
 .debug_line    0x0000c9b3      0x44b build/default/production/_ext/1144052859/tcpip_heap_alloc.o
 .debug_line    0x0000cdfe      0xb7a build/default/production/_ext/1144052859/tcpip_helpers.o
 .debug_line    0x0000d978      0x119 build/default/production/_ext/1144052859/tcpip_helper_c32.o
 .debug_line    0x0000da91     0x1002 build/default/production/_ext/1144052859/tcpip_manager.o
 .debug_line    0x0000ea93      0x2f4 build/default/production/_ext/1144052859/tcpip_notify.o
 .debug_line    0x0000ed87      0x481 build/default/production/_ext/1144052859/tcpip_packet.o
 .debug_line    0x0000f208      0x47c build/default/production/_ext/1829665213/system_debug.o
 .debug_line    0x0000f684      0x2d9 build/default/production/_ext/918699391/usart.o
 .debug_line    0x0000f95d      0x525 build/default/production/_ext/1829665213/system_command.o
 .debug_line    0x0000fe82      0x616 build/default/production/_ext/1144052859/ipv4.o
 .debug_line    0x00010498      0x1ca build/default/production/_ext/1360937237/app.o
 .debug_line    0x00010662      0x41c build/default/production/_ext/639803181/sys_clk_static.o
 .debug_line    0x00010a7e      0x2e4 build/default/production/_ext/822048611/sys_ports_static.o
 .debug_line    0x00010d62      0x64f build/default/production/_ext/1688732426/system_init.o
 .debug_line    0x000113b1      0x3b2 build/default/production/_ext/1688732426/system_interrupt.o
 .debug_line    0x00011763       0x7f build/default/production/_ext/1360937237/main.o
 .debug_line    0x000117e2      0x281 build/default/production/_ext/1688732426/system_tasks.o
 .debug_line    0x00011a63      0x168 c:/program files (x86)/microchip/xc32/v1.33/bin/bin/../../lib/gcc/pic32mx/4.5.2\libgcc.a(_udivdi3.o)
 .debug_line    0x00011bcb       0x97 c:/program files (x86)/microchip/xc32/v1.33/bin/bin/../../lib/gcc/pic32mx/4.5.2/../../../../pic32mx/lib\libpic32.a(default-bootstrap-exception-handler.o)
 .debug_line    0x00011c62       0x84 c:/program files (x86)/microchip/xc32/v1.33/bin/bin/../../lib/gcc/pic32mx/4.5.2/../../../../pic32mx/lib\libpic32.a(default-on-reset.o)
 .debug_line    0x00011ce6       0x88 c:/program files (x86)/microchip/xc32/v1.33/bin/bin/../../lib/gcc/pic32mx/4.5.2/../../../../pic32mx/lib\libpic32.a(default-on-bootstrap.o)
 .debug_line    0x00011d6e       0x96 c:/program files (x86)/microchip/xc32/v1.33/bin/bin/../../lib/gcc/pic32mx/4.5.2/../../../../pic32mx/lib\libpic32.a(defaultinterrupt.o)
 .debug_line    0x00011e04       0x6e c:/program files (x86)/microchip/xc32/v1.33/bin/bin/../../lib/gcc/pic32mx/4.5.2/../../../../pic32mx/lib\libc.a(atoi.o)
 .debug_line    0x00011e72       0x70 c:/program files (x86)/microchip/xc32/v1.33/bin/bin/../../lib/gcc/pic32mx/4.5.2/../../../../pic32mx/lib\libc.a(calloc.o)
 .debug_line    0x00011ee2        0x0 c:/program files (x86)/microchip/xc32/v1.33/bin/bin/../../lib/gcc/pic32mx/4.5.2/../../../../pic32mx/lib\libc.a(ctype.o)
 .debug_line    0x00011ee2       0x70 c:/program files (x86)/microchip/xc32/v1.33/bin/bin/../../lib/gcc/pic32mx/4.5.2/../../../../pic32mx/lib\libc.a(malloc.o)
 .debug_line    0x00011f52       0x6e c:/program files (x86)/microchip/xc32/v1.33/bin/bin/../../lib/gcc/pic32mx/4.5.2/../../../../pic32mx/lib\libc.a(rand.o)
 .debug_line    0x00011fc0       0x71 c:/program files (x86)/microchip/xc32/v1.33/bin/bin/../../lib/gcc/pic32mx/4.5.2/../../../../pic32mx/lib\libc.a(strncpy.o)
 .debug_line    0x00012031       0x70 c:/program files (x86)/microchip/xc32/v1.33/bin/bin/../../lib/gcc/pic32mx/4.5.2/../../../../pic32mx/lib\libc.a(strtol.o)
 .debug_line    0x000120a1       0x72 c:/program files (x86)/microchip/xc32/v1.33/bin/bin/../../lib/gcc/pic32mx/4.5.2/../../../../pic32mx/lib\libc.a(snprintf_cdnopsuxX.eo)
 .debug_line    0x00012113       0x71 c:/program files (x86)/microchip/xc32/v1.33/bin/bin/../../lib/gcc/pic32mx/4.5.2/../../../../pic32mx/lib\libc.a(sprintf_cdnopsuxX.eo)
 .debug_line    0x00012184       0x73 c:/program files (x86)/microchip/xc32/v1.33/bin/bin/../../lib/gcc/pic32mx/4.5.2/../../../../pic32mx/lib\libc.a(vsnprintf_cdnopsuxX.eo)
 .debug_line    0x000121f7       0x73 c:/program files (x86)/microchip/xc32/v1.33/bin/bin/../../lib/gcc/pic32mx/4.5.2/../../../../pic32mx/lib\libc.a(vsnprintf.o)
 .debug_line    0x0001226a       0x70 c:/program files (x86)/microchip/xc32/v1.33/bin/bin/../../lib/gcc/pic32mx/4.5.2/../../../../pic32mx/lib\libc.a(ctypef.o)
 .debug_line    0x000122da        0x0 c:/program files (x86)/microchip/xc32/v1.33/bin/bin/../../lib/gcc/pic32mx/4.5.2/../../../../pic32mx/lib\libc.a(errno.o)
 .debug_line    0x000122da       0x70 c:/program files (x86)/microchip/xc32/v1.33/bin/bin/../../lib/gcc/pic32mx/4.5.2/../../../../pic32mx/lib\libc.a(doprnt_cdnopsuxX.eo)
 .debug_line    0x0001234a       0x70 c:/program files (x86)/microchip/xc32/v1.33/bin/bin/../../lib/gcc/pic32mx/4.5.2/../../../../pic32mx/lib\libc.a(doprnt.o)
 .debug_line    0x000123ba       0x6f c:/program files (x86)/microchip/xc32/v1.33/bin/bin/../../lib/gcc/pic32mx/4.5.2/../../../../pic32mx/lib\libc.a(_fputc_simple.o)
 .debug_line    0x00012429        0x0 c:/program files (x86)/microchip/xc32/v1.33/bin/bin/../../lib/gcc/pic32mx/4.5.2/../../../../pic32mx/lib\libc.a(powersf.o)
 .debug_line    0x00012429        0x0 c:/program files (x86)/microchip/xc32/v1.33/bin/bin/../../lib/gcc/pic32mx/4.5.2/../../../../pic32mx/lib\libc.a(_iob.o)
 .debug_line    0x00012429       0x70 c:/program files (x86)/microchip/xc32/v1.33/bin/bin/../../lib/gcc/pic32mx/4.5.2/../../../../pic32mx/lib\libc.a(_flsbuf_simple.o)
 .debug_line    0x00012499       0x78 c:/program files (x86)/microchip/xc32/v1.33/bin/bin/../../lib/gcc/pic32mx/4.5.2/../../../../pic32mx/lib\libpic32.a(sbrk.o)
 .debug_line    0x00012511       0x79 c:/program files (x86)/microchip/xc32/v1.33/bin/bin/../../lib/gcc/pic32mx/4.5.2/../../../../pic32mx/lib\libpic32.a(write.o)
 .debug_line    0x0001258a       0x7d c:/program files (x86)/microchip/xc32/v1.33/bin/bin/../../lib/gcc/pic32mx/4.5.2/../../../../pic32mx/lib\libpic32.a(_mon_putc.o)
 .debug_line    0x00012607        0x0 c:/program files (x86)/microchip/xc32/v1.33/bin/bin/../../lib/gcc/pic32mx/4.5.2/../../../../pic32mx/lib\libpic32.a(xc32_uart.o)
 .debug_line    0x00012607       0x93 c:/program files (x86)/microchip/xc32/v1.33/bin/bin/../../lib/gcc/pic32mx/4.5.2/../../../../pic32mx/lib\libe.a(_floatdisf.o)
 .debug_line    0x0001269a      0x105 c:/program files (x86)/microchip/xc32/v1.33/bin/bin/../../lib/gcc/pic32mx/4.5.2\libgcc.a(_floatundisf.o)
 .debug_line    0x0001279f      0x155 c:/program files (x86)/microchip/xc32/v1.33/bin/bin/../../lib/gcc/pic32mx/4.5.2\libgcc.a(_umoddi3.o)
 .debug_line    0x000128f4       0x8e c:/program files (x86)/microchip/xc32/v1.33/bin/bin/../../lib/gcc/pic32mx/4.5.2\libgcc.a(floatunsisf.o)

.debug_frame    0x00000000     0x58ec
 *(.debug_frame)
 .debug_frame   0x00000000       0x80 build/default/production/_ext/595770632/random.o
 .debug_frame   0x00000080       0x30 build/default/production/_ext/595770632/arc4.o
 .debug_frame   0x000000b0       0xd0 build/default/production/_ext/595770632/crypto.o
 .debug_frame   0x00000180      0x48c build/default/production/_ext/1986204992/drv_ethmac.o
 .debug_frame   0x0000060c      0x28c build/default/production/_ext/1986204992/drv_ethmac_lib.o
 .debug_frame   0x00000898      0x794 build/default/production/_ext/810051186/drv_ethphy.o
 .debug_frame   0x0000102c       0x58 build/default/production/_ext/810051186/drv_extphy_smsc8740.o
 .debug_frame   0x00001084      0x3f8 build/default/production/_ext/304478105/drv_tmr.o
 .debug_frame   0x0000147c       0xd8 build/default/production/_ext/335806368/sys_devcon.o
 .debug_frame   0x00001554       0x20 build/default/production/_ext/335806368/sys_devcon_pic32mx.o
 .debug_frame   0x00001574       0x50 build/default/production/_ext/1055666758/sys_int_pic32.o
 .debug_frame   0x000015c4      0x1d0 build/default/production/_ext/1237536663/sys_ports.o
 .debug_frame   0x00001794       0xe0 build/default/production/_ext/323145514/sys_random.o
 .debug_frame   0x00001874       0x20 build/default/production/_ext/346722522/sys_reset.o
 .debug_frame   0x00001894      0x204 build/default/production/_ext/2097170832/sys_tmr.o
 .debug_frame   0x00001a98      0x6c8 build/default/production/_ext/1144052859/tcp.o
 .debug_frame   0x00002160      0x568 build/default/production/_ext/1144052859/udp.o
 .debug_frame   0x000026c8      0x3d8 build/default/production/_ext/1144052859/arp.o
 .debug_frame   0x00002aa0      0x2ac build/default/production/_ext/1144052859/dhcp.o
 .debug_frame   0x00002d4c      0x430 build/default/production/_ext/1144052859/dns.o
 .debug_frame   0x0000317c       0xe8 build/default/production/_ext/1144052859/icmp.o
 .debug_frame   0x00003264       0x80 build/default/production/_ext/1144052859/nbns.o
 .debug_frame   0x000032e4       0x2c build/default/production/_ext/1144052859/zero_conf_helper.o
 .debug_frame   0x00003310      0x148 build/default/production/_ext/1144052859/zero_conf_link_local.o
 .debug_frame   0x00003458       0xbc build/default/production/_ext/1144052859/tcpip_announce.o
 .debug_frame   0x00003514      0x30c build/default/production/_ext/1144052859/tcpip_commands.o
 .debug_frame   0x00003820      0x158 build/default/production/_ext/1997815295/big_int.o
 .debug_frame   0x00003978      0x114 build/default/production/_ext/1997815295/hashes.o
 .debug_frame   0x00003a8c       0xa4 build/default/production/_ext/1997815295/helpers.o
 .debug_frame   0x00003b30       0x3c build/default/production/_ext/1997815295/lfsr.o
 .debug_frame   0x00003b6c       0x30 build/default/production/_ext/1144052859/hash_fnv.o
 .debug_frame   0x00003b9c       0xc4 build/default/production/_ext/1144052859/oahash.o
 .debug_frame   0x00003c60       0xac build/default/production/_ext/1144052859/tcpip_heap_alloc.o
 .debug_frame   0x00003d0c      0x4cc build/default/production/_ext/1144052859/tcpip_helpers.o
 .debug_frame   0x000041d8      0x770 build/default/production/_ext/1144052859/tcpip_manager.o
 .debug_frame   0x00004948       0x94 build/default/production/_ext/1144052859/tcpip_notify.o
 .debug_frame   0x000049dc      0x1a8 build/default/production/_ext/1144052859/tcpip_packet.o
 .debug_frame   0x00004b84      0x198 build/default/production/_ext/1829665213/system_debug.o
 .debug_frame   0x00004d1c       0x9c build/default/production/_ext/918699391/usart.o
 .debug_frame   0x00004db8      0x1f0 build/default/production/_ext/1829665213/system_command.o
 .debug_frame   0x00004fa8      0x130 build/default/production/_ext/1144052859/ipv4.o
 .debug_frame   0x000050d8       0x30 build/default/production/_ext/1360937237/app.o
 .debug_frame   0x00005108       0x58 build/default/production/_ext/639803181/sys_clk_static.o
 .debug_frame   0x00005160       0x20 build/default/production/_ext/822048611/sys_ports_static.o
 .debug_frame   0x00005180       0x44 build/default/production/_ext/1688732426/system_init.o
 .debug_frame   0x000051c4       0xa0 build/default/production/_ext/1688732426/system_interrupt.o
 .debug_frame   0x00005264       0x28 build/default/production/_ext/1360937237/main.o
 .debug_frame   0x0000528c       0x28 build/default/production/_ext/1688732426/system_tasks.o
 .debug_frame   0x000052b4       0x20 c:/program files (x86)/microchip/xc32/v1.33/bin/bin/../../lib/gcc/pic32mx/4.5.2\libgcc.a(_udivdi3.o)
 .debug_frame   0x000052d4       0x28 c:/program files (x86)/microchip/xc32/v1.33/bin/bin/../../lib/gcc/pic32mx/4.5.2/../../../../pic32mx/lib\libpic32.a(default-bootstrap-exception-handler.o)
 .debug_frame   0x000052fc       0x20 c:/program files (x86)/microchip/xc32/v1.33/bin/bin/../../lib/gcc/pic32mx/4.5.2/../../../../pic32mx/lib\libpic32.a(default-on-reset.o)
 .debug_frame   0x0000531c       0x20 c:/program files (x86)/microchip/xc32/v1.33/bin/bin/../../lib/gcc/pic32mx/4.5.2/../../../../pic32mx/lib\libpic32.a(default-on-bootstrap.o)
 .debug_frame   0x0000533c       0x20 c:/program files (x86)/microchip/xc32/v1.33/bin/bin/../../lib/gcc/pic32mx/4.5.2/../../../../pic32mx/lib\libpic32.a(defaultinterrupt.o)
 .debug_frame   0x0000535c       0x20 c:/program files (x86)/microchip/xc32/v1.33/bin/bin/../../lib/gcc/pic32mx/4.5.2/../../../../pic32mx/lib\libc.a(atoi.o)
 .debug_frame   0x0000537c       0x2c c:/program files (x86)/microchip/xc32/v1.33/bin/bin/../../lib/gcc/pic32mx/4.5.2/../../../../pic32mx/lib\libc.a(calloc.o)
 .debug_frame   0x000053a8       0x6c c:/program files (x86)/microchip/xc32/v1.33/bin/bin/../../lib/gcc/pic32mx/4.5.2/../../../../pic32mx/lib\libc.a(malloc.o)
 .debug_frame   0x00005414       0x30 c:/program files (x86)/microchip/xc32/v1.33/bin/bin/../../lib/gcc/pic32mx/4.5.2/../../../../pic32mx/lib\libc.a(rand.o)
 .debug_frame   0x00005444       0x20 c:/program files (x86)/microchip/xc32/v1.33/bin/bin/../../lib/gcc/pic32mx/4.5.2/../../../../pic32mx/lib\libc.a(strncpy.o)
 .debug_frame   0x00005464       0x5c c:/program files (x86)/microchip/xc32/v1.33/bin/bin/../../lib/gcc/pic32mx/4.5.2/../../../../pic32mx/lib\libc.a(strtol.o)
 .debug_frame   0x000054c0       0x28 c:/program files (x86)/microchip/xc32/v1.33/bin/bin/../../lib/gcc/pic32mx/4.5.2/../../../../pic32mx/lib\libc.a(snprintf_cdnopsuxX.eo)
 .debug_frame   0x000054e8       0x2c c:/program files (x86)/microchip/xc32/v1.33/bin/bin/../../lib/gcc/pic32mx/4.5.2/../../../../pic32mx/lib\libc.a(sprintf_cdnopsuxX.eo)
 .debug_frame   0x00005514       0x28 c:/program files (x86)/microchip/xc32/v1.33/bin/bin/../../lib/gcc/pic32mx/4.5.2/../../../../pic32mx/lib\libc.a(vsnprintf_cdnopsuxX.eo)
 .debug_frame   0x0000553c       0x28 c:/program files (x86)/microchip/xc32/v1.33/bin/bin/../../lib/gcc/pic32mx/4.5.2/../../../../pic32mx/lib\libc.a(vsnprintf.o)
 .debug_frame   0x00005564      0x120 c:/program files (x86)/microchip/xc32/v1.33/bin/bin/../../lib/gcc/pic32mx/4.5.2/../../../../pic32mx/lib\libc.a(ctypef.o)
 .debug_frame   0x00005684       0x38 c:/program files (x86)/microchip/xc32/v1.33/bin/bin/../../lib/gcc/pic32mx/4.5.2/../../../../pic32mx/lib\libc.a(doprnt_cdnopsuxX.eo)
 .debug_frame   0x000056bc       0x74 c:/program files (x86)/microchip/xc32/v1.33/bin/bin/../../lib/gcc/pic32mx/4.5.2/../../../../pic32mx/lib\libc.a(doprnt.o)
 .debug_frame   0x00005730       0x2c c:/program files (x86)/microchip/xc32/v1.33/bin/bin/../../lib/gcc/pic32mx/4.5.2/../../../../pic32mx/lib\libc.a(_fputc_simple.o)
 .debug_frame   0x0000575c       0x28 c:/program files (x86)/microchip/xc32/v1.33/bin/bin/../../lib/gcc/pic32mx/4.5.2/../../../../pic32mx/lib\libc.a(_flsbuf_simple.o)
 .debug_frame   0x00005784       0x8c c:/program files (x86)/microchip/xc32/v1.33/bin/bin/../../lib/gcc/pic32mx/4.5.2/../../../../pic32mx/lib\libpic32.a(sbrk.o)
 .debug_frame   0x00005810       0x28 c:/program files (x86)/microchip/xc32/v1.33/bin/bin/../../lib/gcc/pic32mx/4.5.2/../../../../pic32mx/lib\libpic32.a(write.o)
 .debug_frame   0x00005838       0x20 c:/program files (x86)/microchip/xc32/v1.33/bin/bin/../../lib/gcc/pic32mx/4.5.2/../../../../pic32mx/lib\libpic32.a(_mon_putc.o)
 .debug_frame   0x00005858       0x20 c:/program files (x86)/microchip/xc32/v1.33/bin/bin/../../lib/gcc/pic32mx/4.5.2/../../../../pic32mx/lib\libe.a(_floatdisf.o)
 .debug_frame   0x00005878       0x2c c:/program files (x86)/microchip/xc32/v1.33/bin/bin/../../lib/gcc/pic32mx/4.5.2\libgcc.a(_floatundisf.o)
 .debug_frame   0x000058a4       0x20 c:/program files (x86)/microchip/xc32/v1.33/bin/bin/../../lib/gcc/pic32mx/4.5.2\libgcc.a(_umoddi3.o)
 .debug_frame   0x000058c4       0x28 c:/program files (x86)/microchip/xc32/v1.33/bin/bin/../../lib/gcc/pic32mx/4.5.2\libgcc.a(floatunsisf.o)

.debug_str      0x00000000     0x31bd
 *(.debug_str)
 .debug_str     0x00000000        0x0 build/default/production/_ext/595770632/random.o
 .debug_str     0x00000000        0x0 build/default/production/_ext/595770632/arc4.o
 .debug_str     0x00000000       0x1d build/default/production/_ext/595770632/crypto.o
 .debug_str     0x0000001d      0x27e build/default/production/_ext/1986204992/drv_ethmac.o
 .debug_str     0x0000029b      0x25d build/default/production/_ext/1986204992/drv_ethmac_lib.o
 .debug_str     0x000004f8      0x2de build/default/production/_ext/810051186/drv_ethphy.o
 .debug_str     0x000007d6      0x115 build/default/production/_ext/810051186/drv_extphy_smsc8740.o
 .debug_str     0x000008eb      0x1d2 build/default/production/_ext/304478105/drv_tmr.o
 .debug_str     0x00000abd       0x23 build/default/production/_ext/335806368/sys_devcon.o
 .debug_str     0x00000ae0       0x4f build/default/production/_ext/335806368/sys_devcon_pic32mx.o
 .debug_str     0x00000b2f        0xd build/default/production/_ext/1055666758/sys_int_pic32.o
 .debug_str     0x00000b3c       0x98 build/default/production/_ext/1237536663/sys_ports.o
 .debug_str     0x00000bd4       0x28 build/default/production/_ext/323145514/sys_random.o
 .debug_str     0x00000bfc        0x6 build/default/production/_ext/346722522/sys_reset.o
 .debug_str     0x00000c02       0x90 build/default/production/_ext/2097170832/sys_tmr.o
 .debug_str     0x00000c92      0x274 build/default/production/_ext/1144052859/tcp.o
 .debug_str     0x00000f06      0x220 build/default/production/_ext/1144052859/udp.o
 .debug_str     0x00001126      0x1c4 build/default/production/_ext/1144052859/arp.o
 .debug_str     0x000012ea      0x149 build/default/production/_ext/1144052859/dhcp.o
 .debug_str     0x00001433      0x240 build/default/production/_ext/1144052859/dns.o
 .debug_str     0x00001673      0x164 build/default/production/_ext/1144052859/icmp.o
 .debug_str     0x000017d7      0x118 build/default/production/_ext/1144052859/nbns.o
 .debug_str     0x000018ef       0xf4 build/default/production/_ext/1144052859/zero_conf_helper.o
 .debug_str     0x000019e3      0x13f build/default/production/_ext/1144052859/zero_conf_link_local.o
 .debug_str     0x00001b22      0x118 build/default/production/_ext/1144052859/tcpip_announce.o
 .debug_str     0x00001c3a      0x25e build/default/production/_ext/1144052859/tcpip_commands.o
 .debug_str     0x00001e98        0x0 build/default/production/_ext/1997815295/big_int.o
 .debug_str     0x00001e98       0x1a build/default/production/_ext/1997815295/hashes.o
 .debug_str     0x00001eb2        0x0 build/default/production/_ext/1997815295/helpers.o
 .debug_str     0x00001eb2        0x0 build/default/production/_ext/1997815295/lfsr.o
 .debug_str     0x00001eb2        0x0 build/default/production/_ext/1144052859/hash_fnv.o
 .debug_str     0x00001eb2        0xa build/default/production/_ext/1144052859/oahash.o
 .debug_str     0x00001ebc      0x13b build/default/production/_ext/1144052859/tcpip_heap_alloc.o
 .debug_str     0x00001ff7      0x151 build/default/production/_ext/1144052859/tcpip_helpers.o
 .debug_str     0x00002148      0x35a build/default/production/_ext/1144052859/tcpip_manager.o
 .debug_str     0x000024a2      0x105 build/default/production/_ext/1144052859/tcpip_notify.o
 .debug_str     0x000025a7      0x11d build/default/production/_ext/1144052859/tcpip_packet.o
 .debug_str     0x000026c4      0x14c build/default/production/_ext/1829665213/system_debug.o
 .debug_str     0x00002810      0x110 build/default/production/_ext/918699391/usart.o
 .debug_str     0x00002920      0x11d build/default/production/_ext/1829665213/system_command.o
 .debug_str     0x00002a3d      0x120 build/default/production/_ext/1144052859/ipv4.o
 .debug_str     0x00002b5d       0xf4 build/default/production/_ext/1360937237/app.o
 .debug_str     0x00002c51      0x12d build/default/production/_ext/639803181/sys_clk_static.o
 .debug_str     0x00002d7e        0xd build/default/production/_ext/822048611/sys_ports_static.o
 .debug_str     0x00002d8b      0x24a build/default/production/_ext/1688732426/system_init.o
 .debug_str     0x00002fd5       0xf4 build/default/production/_ext/1688732426/system_interrupt.o
 .debug_str     0x000030c9        0x0 build/default/production/_ext/1360937237/main.o
 .debug_str     0x000030c9       0xf4 build/default/production/_ext/1688732426/system_tasks.o
 .debug_str     0x000031bd        0x0 c:/program files (x86)/microchip/xc32/v1.33/bin/bin/../../lib/gcc/pic32mx/4.5.2\libgcc.a(_udivdi3.o)
 .debug_str     0x000031bd        0x0 c:/program files (x86)/microchip/xc32/v1.33/bin/bin/../../lib/gcc/pic32mx/4.5.2/../../../../pic32mx/lib\libpic32.a(default-bootstrap-exception-handler.o)
 .debug_str     0x000031bd        0x0 c:/program files (x86)/microchip/xc32/v1.33/bin/bin/../../lib/gcc/pic32mx/4.5.2/../../../../pic32mx/lib\libpic32.a(default-on-reset.o)
 .debug_str     0x000031bd        0x0 c:/program files (x86)/microchip/xc32/v1.33/bin/bin/../../lib/gcc/pic32mx/4.5.2/../../../../pic32mx/lib\libpic32.a(default-on-bootstrap.o)
 .debug_str     0x000031bd        0x0 c:/program files (x86)/microchip/xc32/v1.33/bin/bin/../../lib/gcc/pic32mx/4.5.2/../../../../pic32mx/lib\libpic32.a(defaultinterrupt.o)
 .debug_str     0x000031bd        0x0 c:/program files (x86)/microchip/xc32/v1.33/bin/bin/../../lib/gcc/pic32mx/4.5.2/../../../../pic32mx/lib\libc.a(atoi.o)
 .debug_str     0x000031bd        0x0 c:/program files (x86)/microchip/xc32/v1.33/bin/bin/../../lib/gcc/pic32mx/4.5.2/../../../../pic32mx/lib\libc.a(calloc.o)
 .debug_str     0x000031bd        0x0 c:/program files (x86)/microchip/xc32/v1.33/bin/bin/../../lib/gcc/pic32mx/4.5.2/../../../../pic32mx/lib\libc.a(ctype.o)
 .debug_str     0x000031bd        0x0 c:/program files (x86)/microchip/xc32/v1.33/bin/bin/../../lib/gcc/pic32mx/4.5.2/../../../../pic32mx/lib\libc.a(malloc.o)
 .debug_str     0x000031bd        0x0 c:/program files (x86)/microchip/xc32/v1.33/bin/bin/../../lib/gcc/pic32mx/4.5.2/../../../../pic32mx/lib\libc.a(rand.o)
 .debug_str     0x000031bd        0x0 c:/program files (x86)/microchip/xc32/v1.33/bin/bin/../../lib/gcc/pic32mx/4.5.2/../../../../pic32mx/lib\libc.a(strncpy.o)
 .debug_str     0x000031bd        0x0 c:/program files (x86)/microchip/xc32/v1.33/bin/bin/../../lib/gcc/pic32mx/4.5.2/../../../../pic32mx/lib\libc.a(strtol.o)
 .debug_str     0x000031bd        0x0 c:/program files (x86)/microchip/xc32/v1.33/bin/bin/../../lib/gcc/pic32mx/4.5.2/../../../../pic32mx/lib\libc.a(snprintf_cdnopsuxX.eo)
 .debug_str     0x000031bd        0x0 c:/program files (x86)/microchip/xc32/v1.33/bin/bin/../../lib/gcc/pic32mx/4.5.2/../../../../pic32mx/lib\libc.a(sprintf_cdnopsuxX.eo)
 .debug_str     0x000031bd        0x0 c:/program files (x86)/microchip/xc32/v1.33/bin/bin/../../lib/gcc/pic32mx/4.5.2/../../../../pic32mx/lib\libc.a(vsnprintf_cdnopsuxX.eo)
 .debug_str     0x000031bd        0x0 c:/program files (x86)/microchip/xc32/v1.33/bin/bin/../../lib/gcc/pic32mx/4.5.2/../../../../pic32mx/lib\libc.a(vsnprintf.o)
 .debug_str     0x000031bd        0x0 c:/program files (x86)/microchip/xc32/v1.33/bin/bin/../../lib/gcc/pic32mx/4.5.2/../../../../pic32mx/lib\libc.a(ctypef.o)
 .debug_str     0x000031bd        0x0 c:/program files (x86)/microchip/xc32/v1.33/bin/bin/../../lib/gcc/pic32mx/4.5.2/../../../../pic32mx/lib\libc.a(errno.o)
 .debug_str     0x000031bd        0x0 c:/program files (x86)/microchip/xc32/v1.33/bin/bin/../../lib/gcc/pic32mx/4.5.2/../../../../pic32mx/lib\libc.a(doprnt_cdnopsuxX.eo)
 .debug_str     0x000031bd        0x0 c:/program files (x86)/microchip/xc32/v1.33/bin/bin/../../lib/gcc/pic32mx/4.5.2/../../../../pic32mx/lib\libc.a(doprnt.o)
 .debug_str     0x000031bd        0x0 c:/program files (x86)/microchip/xc32/v1.33/bin/bin/../../lib/gcc/pic32mx/4.5.2/../../../../pic32mx/lib\libc.a(_fputc_simple.o)
 .debug_str     0x000031bd        0x0 c:/program files (x86)/microchip/xc32/v1.33/bin/bin/../../lib/gcc/pic32mx/4.5.2/../../../../pic32mx/lib\libc.a(powersf.o)
 .debug_str     0x000031bd        0x0 c:/program files (x86)/microchip/xc32/v1.33/bin/bin/../../lib/gcc/pic32mx/4.5.2/../../../../pic32mx/lib\libc.a(_iob.o)
 .debug_str     0x000031bd        0x0 c:/program files (x86)/microchip/xc32/v1.33/bin/bin/../../lib/gcc/pic32mx/4.5.2/../../../../pic32mx/lib\libc.a(_flsbuf_simple.o)
 .debug_str     0x000031bd        0x0 c:/program files (x86)/microchip/xc32/v1.33/bin/bin/../../lib/gcc/pic32mx/4.5.2/../../../../pic32mx/lib\libpic32.a(sbrk.o)
 .debug_str     0x000031bd        0x0 c:/program files (x86)/microchip/xc32/v1.33/bin/bin/../../lib/gcc/pic32mx/4.5.2/../../../../pic32mx/lib\libpic32.a(write.o)
 .debug_str     0x000031bd        0x0 c:/program files (x86)/microchip/xc32/v1.33/bin/bin/../../lib/gcc/pic32mx/4.5.2/../../../../pic32mx/lib\libpic32.a(_mon_putc.o)
 .debug_str     0x000031bd        0x0 c:/program files (x86)/microchip/xc32/v1.33/bin/bin/../../lib/gcc/pic32mx/4.5.2/../../../../pic32mx/lib\libpic32.a(xc32_uart.o)
 .debug_str     0x000031bd        0x0 c:/program files (x86)/microchip/xc32/v1.33/bin/bin/../../lib/gcc/pic32mx/4.5.2/../../../../pic32mx/lib\libe.a(_floatdisf.o)
 .debug_str     0x000031bd        0x0 c:/program files (x86)/microchip/xc32/v1.33/bin/bin/../../lib/gcc/pic32mx/4.5.2\libgcc.a(_floatundisf.o)
 .debug_str     0x000031bd        0x0 c:/program files (x86)/microchip/xc32/v1.33/bin/bin/../../lib/gcc/pic32mx/4.5.2\libgcc.a(_umoddi3.o)
 .debug_str     0x000031bd        0x0 c:/program files (x86)/microchip/xc32/v1.33/bin/bin/../../lib/gcc/pic32mx/4.5.2\libgcc.a(floatunsisf.o)

.debug_loc      0x00000000    0x18443
 *(.debug_loc)
 .debug_loc     0x00000000      0x142 build/default/production/_ext/595770632/random.o
 .debug_loc     0x00000142      0x100 build/default/production/_ext/595770632/arc4.o
 .debug_loc     0x00000242      0x1ad build/default/production/_ext/595770632/crypto.o
 .debug_loc     0x000003ef     0x12d4 build/default/production/_ext/1986204992/drv_ethmac.o
 .debug_loc     0x000016c3     0x153c build/default/production/_ext/1986204992/drv_ethmac_lib.o
 .debug_loc     0x00002bff     0x162b build/default/production/_ext/810051186/drv_ethphy.o
 .debug_loc     0x0000422a      0x23d build/default/production/_ext/810051186/drv_extphy_smsc8740.o
 .debug_loc     0x00004467     0x2aae build/default/production/_ext/304478105/drv_tmr.o
 .debug_loc     0x00006f15       0x4c build/default/production/_ext/335806368/sys_devcon.o
 .debug_loc     0x00006f61       0x8b build/default/production/_ext/335806368/sys_devcon_pic32mx.o
 .debug_loc     0x00006fec       0x6c build/default/production/_ext/1055666758/sys_int_pic32.o
 .debug_loc     0x00007058      0xb57 build/default/production/_ext/1237536663/sys_ports.o
 .debug_loc     0x00007baf       0x97 build/default/production/_ext/323145514/sys_random.o
 .debug_loc     0x00007c46      0x708 build/default/production/_ext/2097170832/sys_tmr.o
 .debug_loc     0x0000834e     0x24c7 build/default/production/_ext/1144052859/tcp.o
 .debug_loc     0x0000a815     0x1812 build/default/production/_ext/1144052859/udp.o
 .debug_loc     0x0000c027     0x10d7 build/default/production/_ext/1144052859/arp.o
 .debug_loc     0x0000d0fe      0x9d6 build/default/production/_ext/1144052859/dhcp.o
 .debug_loc     0x0000dad4     0x16e2 build/default/production/_ext/1144052859/dns.o
 .debug_loc     0x0000f1b6      0x450 build/default/production/_ext/1144052859/icmp.o
 .debug_loc     0x0000f606      0x1ca build/default/production/_ext/1144052859/nbns.o
 .debug_loc     0x0000f7d0       0x5a build/default/production/_ext/1144052859/zero_conf_helper.o
 .debug_loc     0x0000f82a      0x383 build/default/production/_ext/1144052859/zero_conf_link_local.o
 .debug_loc     0x0000fbad      0x153 build/default/production/_ext/1144052859/tcpip_announce.o
 .debug_loc     0x0000fd00     0x14d6 build/default/production/_ext/1144052859/tcpip_commands.o
 .debug_loc     0x000111d6      0x3fd build/default/production/_ext/1997815295/big_int.o
 .debug_loc     0x000115d3      0x6ea build/default/production/_ext/1997815295/hashes.o
 .debug_loc     0x00011cbd      0x335 build/default/production/_ext/1997815295/helpers.o
 .debug_loc     0x00011ff2       0x5e build/default/production/_ext/1997815295/lfsr.o
 .debug_loc     0x00012050       0xf6 build/default/production/_ext/1144052859/hash_fnv.o
 .debug_loc     0x00012146      0x2ed build/default/production/_ext/1144052859/oahash.o
 .debug_loc     0x00012433      0x470 build/default/production/_ext/1144052859/tcpip_heap_alloc.o
 .debug_loc     0x000128a3     0x1158 build/default/production/_ext/1144052859/tcpip_helpers.o
 .debug_loc     0x000139fb     0x19cc build/default/production/_ext/1144052859/tcpip_manager.o
 .debug_loc     0x000153c7      0x170 build/default/production/_ext/1144052859/tcpip_notify.o
 .debug_loc     0x00015537      0x5c1 build/default/production/_ext/1144052859/tcpip_packet.o
 .debug_loc     0x00015af8      0x2d2 build/default/production/_ext/1829665213/system_debug.o
 .debug_loc     0x00015dca      0x10e build/default/production/_ext/918699391/usart.o
 .debug_loc     0x00015ed8      0x7e9 build/default/production/_ext/1829665213/system_command.o
 .debug_loc     0x000166c1      0x89a build/default/production/_ext/1144052859/ipv4.o
 .debug_loc     0x00016f5b       0x13 build/default/production/_ext/639803181/sys_clk_static.o
 .debug_loc     0x00016f6e       0x13 build/default/production/_ext/1688732426/system_init.o
 .debug_loc     0x00016f81       0x39 build/default/production/_ext/1688732426/system_interrupt.o
 .debug_loc     0x00016fba      0x9c3 c:/program files (x86)/microchip/xc32/v1.33/bin/bin/../../lib/gcc/pic32mx/4.5.2\libgcc.a(_udivdi3.o)
 .debug_loc     0x0001797d       0xc9 c:/program files (x86)/microchip/xc32/v1.33/bin/bin/../../lib/gcc/pic32mx/4.5.2\libgcc.a(_floatundisf.o)
 .debug_loc     0x00017a46      0x995 c:/program files (x86)/microchip/xc32/v1.33/bin/bin/../../lib/gcc/pic32mx/4.5.2\libgcc.a(_umoddi3.o)
 .debug_loc     0x000183db       0x68 c:/program files (x86)/microchip/xc32/v1.33/bin/bin/../../lib/gcc/pic32mx/4.5.2\libgcc.a(floatunsisf.o)

.debug_macinfo
 *(.debug_macinfo)

.debug_weaknames
 *(.debug_weaknames)

.debug_funcnames
 *(.debug_funcnames)

.debug_typenames
 *(.debug_typenames)

.debug_varnames
 *(.debug_varnames)

.debug_pubtypes
                0x00000000     0x8110
 *(.debug_pubtypes)
 .debug_pubtypes
                0x00000000       0x60 build/default/production/_ext/595770632/random.o
 .debug_pubtypes
                0x00000060       0x38 build/default/production/_ext/595770632/arc4.o
 .debug_pubtypes
                0x00000098       0xbc build/default/production/_ext/595770632/crypto.o
 .debug_pubtypes
                0x00000154      0x797 build/default/production/_ext/1986204992/drv_ethmac.o
 .debug_pubtypes
                0x000008eb      0x7b6 build/default/production/_ext/1986204992/drv_ethmac_lib.o
 .debug_pubtypes
                0x000010a1      0x39c build/default/production/_ext/810051186/drv_ethphy.o
 .debug_pubtypes
                0x0000143d       0xc6 build/default/production/_ext/810051186/drv_extphy_smsc8740.o
 .debug_pubtypes
                0x00001503      0x2b9 build/default/production/_ext/304478105/drv_tmr.o
 .debug_pubtypes
                0x000017bc      0x136 build/default/production/_ext/335806368/sys_devcon.o
 .debug_pubtypes
                0x000018f2       0xb6 build/default/production/_ext/335806368/sys_devcon_pic32mx.o
 .debug_pubtypes
                0x000019a8       0x93 build/default/production/_ext/1055666758/sys_int_pic32.o
 .debug_pubtypes
                0x00001a3b      0x1d0 build/default/production/_ext/1237536663/sys_ports.o
 .debug_pubtypes
                0x00001c0b       0xe3 build/default/production/_ext/323145514/sys_random.o
 .debug_pubtypes
                0x00001cee       0x64 build/default/production/_ext/346722522/sys_reset.o
 .debug_pubtypes
                0x00001d52      0x1e9 build/default/production/_ext/2097170832/sys_tmr.o
 .debug_pubtypes
                0x00001f3b      0x71f build/default/production/_ext/1144052859/tcp.o
 .debug_pubtypes
                0x0000265a      0x681 build/default/production/_ext/1144052859/udp.o
 .debug_pubtypes
                0x00002cdb      0x68b build/default/production/_ext/1144052859/arp.o
 .debug_pubtypes
                0x00003366      0x5ac build/default/production/_ext/1144052859/dhcp.o
 .debug_pubtypes
                0x00003912      0x71c build/default/production/_ext/1144052859/dns.o
 .debug_pubtypes
                0x0000402e      0x505 build/default/production/_ext/1144052859/icmp.o
 .debug_pubtypes
                0x00004533      0x4fd build/default/production/_ext/1144052859/nbns.o
 .debug_pubtypes
                0x00004a30       0x67 build/default/production/_ext/1144052859/zero_conf_helper.o
 .debug_pubtypes
                0x00004a97      0x4b7 build/default/production/_ext/1144052859/zero_conf_link_local.o
 .debug_pubtypes
                0x00004f4e      0x512 build/default/production/_ext/1144052859/tcpip_announce.o
 .debug_pubtypes
                0x00005460      0x772 build/default/production/_ext/1144052859/tcpip_commands.o
 .debug_pubtypes
                0x00005bd2       0x65 build/default/production/_ext/1997815295/big_int.o
 .debug_pubtypes
                0x00005c37       0x6d build/default/production/_ext/1997815295/hashes.o
 .debug_pubtypes
                0x00005ca4       0x68 build/default/production/_ext/1997815295/helpers.o
 .debug_pubtypes
                0x00005d0c       0x3e build/default/production/_ext/1997815295/lfsr.o
 .debug_pubtypes
                0x00005d4a       0x3a build/default/production/_ext/1144052859/hash_fnv.o
 .debug_pubtypes
                0x00005d84       0xe1 build/default/production/_ext/1144052859/oahash.o
 .debug_pubtypes
                0x00005e65      0x1c2 build/default/production/_ext/1144052859/tcpip_heap_alloc.o
 .debug_pubtypes
                0x00006027      0x311 build/default/production/_ext/1144052859/tcpip_helpers.o
 .debug_pubtypes
                0x00006338      0x906 build/default/production/_ext/1144052859/tcpip_manager.o
 .debug_pubtypes
                0x00006c3e       0xe5 build/default/production/_ext/1144052859/tcpip_notify.o
 .debug_pubtypes
                0x00006d23      0x228 build/default/production/_ext/1144052859/tcpip_packet.o
 .debug_pubtypes
                0x00006f4b      0x15e build/default/production/_ext/1829665213/system_debug.o
 .debug_pubtypes
                0x000070a9      0x15d build/default/production/_ext/918699391/usart.o
 .debug_pubtypes
                0x00007206      0x17e build/default/production/_ext/1829665213/system_command.o
 .debug_pubtypes
                0x00007384      0x543 build/default/production/_ext/1144052859/ipv4.o
 .debug_pubtypes
                0x000078c7       0x66 build/default/production/_ext/1360937237/app.o
 .debug_pubtypes
                0x0000792d      0x141 build/default/production/_ext/639803181/sys_clk_static.o
 .debug_pubtypes
                0x00007a6e       0x84 build/default/production/_ext/822048611/sys_ports_static.o
 .debug_pubtypes
                0x00007af2      0x3a9 build/default/production/_ext/1688732426/system_init.o
 .debug_pubtypes
                0x00007e9b       0xbd build/default/production/_ext/1688732426/system_interrupt.o
 .debug_pubtypes
                0x00007f58       0x12 build/default/production/_ext/1360937237/main.o
 .debug_pubtypes
                0x00007f6a       0x80 build/default/production/_ext/1688732426/system_tasks.o
 .debug_pubtypes
                0x00007fea       0x59 c:/program files (x86)/microchip/xc32/v1.33/bin/bin/../../lib/gcc/pic32mx/4.5.2\libgcc.a(_udivdi3.o)
 .debug_pubtypes
                0x00008043       0x40 c:/program files (x86)/microchip/xc32/v1.33/bin/bin/../../lib/gcc/pic32mx/4.5.2\libgcc.a(_floatundisf.o)
 .debug_pubtypes
                0x00008083       0x59 c:/program files (x86)/microchip/xc32/v1.33/bin/bin/../../lib/gcc/pic32mx/4.5.2\libgcc.a(_umoddi3.o)
 .debug_pubtypes
                0x000080dc       0x34 c:/program files (x86)/microchip/xc32/v1.33/bin/bin/../../lib/gcc/pic32mx/4.5.2\libgcc.a(floatunsisf.o)

.debug_ranges   0x00000000     0x1ec0
 *(.debug_ranges)
 .debug_ranges  0x00000000       0x28 build/default/production/_ext/595770632/random.o
 .debug_ranges  0x00000028       0x18 build/default/production/_ext/595770632/arc4.o
 .debug_ranges  0x00000040       0x48 build/default/production/_ext/595770632/crypto.o
 .debug_ranges  0x00000088      0x190 build/default/production/_ext/1986204992/drv_ethmac.o
 .debug_ranges  0x00000218       0xe0 build/default/production/_ext/1986204992/drv_ethmac_lib.o
 .debug_ranges  0x000002f8      0x2b8 build/default/production/_ext/810051186/drv_ethphy.o
 .debug_ranges  0x000005b0       0x20 build/default/production/_ext/810051186/drv_extphy_smsc8740.o
 .debug_ranges  0x000005d0      0x188 build/default/production/_ext/304478105/drv_tmr.o
 .debug_ranges  0x00000758       0x68 build/default/production/_ext/335806368/sys_devcon.o
 .debug_ranges  0x000007c0       0x10 build/default/production/_ext/335806368/sys_devcon_pic32mx.o
 .debug_ranges  0x000007d0       0x28 build/default/production/_ext/1055666758/sys_int_pic32.o
 .debug_ranges  0x000007f8       0xe8 build/default/production/_ext/1237536663/sys_ports.o
 .debug_ranges  0x000008e0       0x58 build/default/production/_ext/323145514/sys_random.o
 .debug_ranges  0x00000938       0x10 build/default/production/_ext/346722522/sys_reset.o
 .debug_ranges  0x00000948       0xb8 build/default/production/_ext/2097170832/sys_tmr.o
 .debug_ranges  0x00000a00      0x220 build/default/production/_ext/1144052859/tcp.o
 .debug_ranges  0x00000c20      0x1a8 build/default/production/_ext/1144052859/udp.o
 .debug_ranges  0x00000dc8      0x120 build/default/production/_ext/1144052859/arp.o
 .debug_ranges  0x00000ee8       0xd0 build/default/production/_ext/1144052859/dhcp.o
 .debug_ranges  0x00000fb8      0x138 build/default/production/_ext/1144052859/dns.o
 .debug_ranges  0x000010f0       0x48 build/default/production/_ext/1144052859/icmp.o
 .debug_ranges  0x00001138       0x28 build/default/production/_ext/1144052859/nbns.o
 .debug_ranges  0x00001160       0x10 build/default/production/_ext/1144052859/zero_conf_helper.o
 .debug_ranges  0x00001170       0x68 build/default/production/_ext/1144052859/zero_conf_link_local.o
 .debug_ranges  0x000011d8       0x40 build/default/production/_ext/1144052859/tcpip_announce.o
 .debug_ranges  0x00001218       0xc8 build/default/production/_ext/1144052859/tcpip_commands.o
 .debug_ranges  0x000012e0       0x70 build/default/production/_ext/1997815295/big_int.o
 .debug_ranges  0x00001350       0x50 build/default/production/_ext/1997815295/hashes.o
 .debug_ranges  0x000013a0       0x48 build/default/production/_ext/1997815295/helpers.o
 .debug_ranges  0x000013e8       0x18 build/default/production/_ext/1997815295/lfsr.o
 .debug_ranges  0x00001400       0x18 build/default/production/_ext/1144052859/hash_fnv.o
 .debug_ranges  0x00001418       0x48 build/default/production/_ext/1144052859/oahash.o
 .debug_ranges  0x00001460       0x50 build/default/production/_ext/1144052859/tcpip_heap_alloc.o
 .debug_ranges  0x000014b0      0x1b8 build/default/production/_ext/1144052859/tcpip_helpers.o
 .debug_ranges  0x00001668      0x2e8 build/default/production/_ext/1144052859/tcpip_manager.o
 .debug_ranges  0x00001950       0x30 build/default/production/_ext/1144052859/tcpip_notify.o
 .debug_ranges  0x00001980       0x98 build/default/production/_ext/1144052859/tcpip_packet.o
 .debug_ranges  0x00001a18       0x90 build/default/production/_ext/1829665213/system_debug.o
 .debug_ranges  0x00001aa8       0x40 build/default/production/_ext/918699391/usart.o
 .debug_ranges  0x00001ae8       0x98 build/default/production/_ext/1829665213/system_command.o
 .debug_ranges  0x00001b80       0x58 build/default/production/_ext/1144052859/ipv4.o
 .debug_ranges  0x00001bd8       0x18 build/default/production/_ext/1360937237/app.o
 .debug_ranges  0x00001bf0       0x28 build/default/production/_ext/639803181/sys_clk_static.o
 .debug_ranges  0x00001c18       0x10 build/default/production/_ext/822048611/sys_ports_static.o
 .debug_ranges  0x00001c28       0x18 build/default/production/_ext/1688732426/system_init.o
 .debug_ranges  0x00001c40       0x20 build/default/production/_ext/1688732426/system_interrupt.o
 .debug_ranges  0x00001c60       0x10 build/default/production/_ext/1360937237/main.o
 .debug_ranges  0x00001c70       0x10 build/default/production/_ext/1688732426/system_tasks.o
 .debug_ranges  0x00001c80       0x10 c:/program files (x86)/microchip/xc32/v1.33/bin/bin/../../lib/gcc/pic32mx/4.5.2/../../../../pic32mx/lib\libpic32.a(default-bootstrap-exception-handler.o)
 .debug_ranges  0x00001c90       0x10 c:/program files (x86)/microchip/xc32/v1.33/bin/bin/../../lib/gcc/pic32mx/4.5.2/../../../../pic32mx/lib\libpic32.a(default-on-reset.o)
 .debug_ranges  0x00001ca0       0x10 c:/program files (x86)/microchip/xc32/v1.33/bin/bin/../../lib/gcc/pic32mx/4.5.2/../../../../pic32mx/lib\libpic32.a(default-on-bootstrap.o)
 .debug_ranges  0x00001cb0       0x10 c:/program files (x86)/microchip/xc32/v1.33/bin/bin/../../lib/gcc/pic32mx/4.5.2/../../../../pic32mx/lib\libpic32.a(defaultinterrupt.o)
 .debug_ranges  0x00001cc0       0x10 c:/program files (x86)/microchip/xc32/v1.33/bin/bin/../../lib/gcc/pic32mx/4.5.2/../../../../pic32mx/lib\libc.a(atoi.o)
 .debug_ranges  0x00001cd0       0x10 c:/program files (x86)/microchip/xc32/v1.33/bin/bin/../../lib/gcc/pic32mx/4.5.2/../../../../pic32mx/lib\libc.a(calloc.o)
 .debug_ranges  0x00001ce0       0x20 c:/program files (x86)/microchip/xc32/v1.33/bin/bin/../../lib/gcc/pic32mx/4.5.2/../../../../pic32mx/lib\libc.a(malloc.o)
 .debug_ranges  0x00001d00       0x18 c:/program files (x86)/microchip/xc32/v1.33/bin/bin/../../lib/gcc/pic32mx/4.5.2/../../../../pic32mx/lib\libc.a(rand.o)
 .debug_ranges  0x00001d18       0x10 c:/program files (x86)/microchip/xc32/v1.33/bin/bin/../../lib/gcc/pic32mx/4.5.2/../../../../pic32mx/lib\libc.a(strncpy.o)
 .debug_ranges  0x00001d28       0x18 c:/program files (x86)/microchip/xc32/v1.33/bin/bin/../../lib/gcc/pic32mx/4.5.2/../../../../pic32mx/lib\libc.a(strtol.o)
 .debug_ranges  0x00001d40       0x10 c:/program files (x86)/microchip/xc32/v1.33/bin/bin/../../lib/gcc/pic32mx/4.5.2/../../../../pic32mx/lib\libc.a(snprintf_cdnopsuxX.eo)
 .debug_ranges  0x00001d50       0x10 c:/program files (x86)/microchip/xc32/v1.33/bin/bin/../../lib/gcc/pic32mx/4.5.2/../../../../pic32mx/lib\libc.a(sprintf_cdnopsuxX.eo)
 .debug_ranges  0x00001d60       0x10 c:/program files (x86)/microchip/xc32/v1.33/bin/bin/../../lib/gcc/pic32mx/4.5.2/../../../../pic32mx/lib\libc.a(vsnprintf_cdnopsuxX.eo)
 .debug_ranges  0x00001d70       0x10 c:/program files (x86)/microchip/xc32/v1.33/bin/bin/../../lib/gcc/pic32mx/4.5.2/../../../../pic32mx/lib\libc.a(vsnprintf.o)
 .debug_ranges  0x00001d80       0x90 c:/program files (x86)/microchip/xc32/v1.33/bin/bin/../../lib/gcc/pic32mx/4.5.2/../../../../pic32mx/lib\libc.a(ctypef.o)
 .debug_ranges  0x00001e10       0x10 c:/program files (x86)/microchip/xc32/v1.33/bin/bin/../../lib/gcc/pic32mx/4.5.2/../../../../pic32mx/lib\libc.a(doprnt_cdnopsuxX.eo)
 .debug_ranges  0x00001e20       0x20 c:/program files (x86)/microchip/xc32/v1.33/bin/bin/../../lib/gcc/pic32mx/4.5.2/../../../../pic32mx/lib\libc.a(doprnt.o)
 .debug_ranges  0x00001e40       0x10 c:/program files (x86)/microchip/xc32/v1.33/bin/bin/../../lib/gcc/pic32mx/4.5.2/../../../../pic32mx/lib\libc.a(_fputc_simple.o)
 .debug_ranges  0x00001e50       0x10 c:/program files (x86)/microchip/xc32/v1.33/bin/bin/../../lib/gcc/pic32mx/4.5.2/../../../../pic32mx/lib\libc.a(_flsbuf_simple.o)
 .debug_ranges  0x00001e60       0x30 c:/program files (x86)/microchip/xc32/v1.33/bin/bin/../../lib/gcc/pic32mx/4.5.2/../../../../pic32mx/lib\libpic32.a(sbrk.o)
 .debug_ranges  0x00001e90       0x10 c:/program files (x86)/microchip/xc32/v1.33/bin/bin/../../lib/gcc/pic32mx/4.5.2/../../../../pic32mx/lib\libpic32.a(write.o)
 .debug_ranges  0x00001ea0       0x10 c:/program files (x86)/microchip/xc32/v1.33/bin/bin/../../lib/gcc/pic32mx/4.5.2/../../../../pic32mx/lib\libpic32.a(_mon_putc.o)
 .debug_ranges  0x00001eb0       0x10 c:/program files (x86)/microchip/xc32/v1.33/bin/bin/../../lib/gcc/pic32mx/4.5.2/../../../../pic32mx/lib\libe.a(_floatdisf.o)

.gnu.attributes
                0x00000000       0x10
 *(.gnu.attributes)
 .gnu.attributes
                0x00000000       0x10 build/default/production/_ext/595770632/random.o
 .gnu.attributes
                0x00000010       0x10 build/default/production/_ext/595770632/arc4.o
 .gnu.attributes
                0x00000020       0x10 build/default/production/_ext/595770632/crypto.o
 .gnu.attributes
                0x00000030       0x10 build/default/production/_ext/1986204992/drv_ethmac.o
 .gnu.attributes
                0x00000040       0x10 build/default/production/_ext/1986204992/drv_ethmac_lib.o
 .gnu.attributes
                0x00000050       0x10 build/default/production/_ext/810051186/drv_ethphy.o
 .gnu.attributes
                0x00000060       0x10 build/default/production/_ext/810051186/drv_extphy_smsc8740.o
 .gnu.attributes
                0x00000070       0x10 build/default/production/_ext/304478105/drv_tmr.o
 .gnu.attributes
                0x00000080       0x10 build/default/production/_ext/335806368/sys_devcon.o
 .gnu.attributes
                0x00000090       0x10 build/default/production/_ext/335806368/sys_devcon_pic32mx.o
 .gnu.attributes
                0x000000a0       0x10 build/default/production/_ext/1055666758/sys_int_pic32.o
 .gnu.attributes
                0x000000b0       0x10 build/default/production/_ext/1237536663/sys_ports.o
 .gnu.attributes
                0x000000c0       0x10 build/default/production/_ext/323145514/sys_random.o
 .gnu.attributes
                0x000000d0       0x10 build/default/production/_ext/346722522/sys_reset.o
 .gnu.attributes
                0x000000e0       0x10 build/default/production/_ext/2097170832/sys_tmr.o
 .gnu.attributes
                0x000000f0       0x10 build/default/production/_ext/1144052859/tcp.o
 .gnu.attributes
                0x00000100       0x10 build/default/production/_ext/1144052859/udp.o
 .gnu.attributes
                0x00000110       0x10 build/default/production/_ext/1144052859/arp.o
 .gnu.attributes
                0x00000120       0x10 build/default/production/_ext/1144052859/dhcp.o
 .gnu.attributes
                0x00000130       0x10 build/default/production/_ext/1144052859/dns.o
 .gnu.attributes
                0x00000140       0x10 build/default/production/_ext/1144052859/icmp.o
 .gnu.attributes
                0x00000150       0x10 build/default/production/_ext/1144052859/nbns.o
 .gnu.attributes
                0x00000160       0x10 build/default/production/_ext/1144052859/zero_conf_helper.o
 .gnu.attributes
                0x00000170       0x10 build/default/production/_ext/1144052859/zero_conf_link_local.o
 .gnu.attributes
                0x00000180       0x10 build/default/production/_ext/1144052859/tcpip_announce.o
 .gnu.attributes
                0x00000190       0x10 build/default/production/_ext/1144052859/tcpip_commands.o
 .gnu.attributes
                0x000001a0       0x10 build/default/production/_ext/1997815295/big_int.o
 .gnu.attributes
                0x000001b0       0x10 build/default/production/_ext/1997815295/hashes.o
 .gnu.attributes
                0x000001c0       0x10 build/default/production/_ext/1997815295/helpers.o
 .gnu.attributes
                0x000001d0       0x10 build/default/production/_ext/1997815295/lfsr.o
 .gnu.attributes
                0x000001e0       0x10 build/default/production/_ext/1144052859/hash_fnv.o
 .gnu.attributes
                0x000001f0       0x10 build/default/production/_ext/1144052859/oahash.o
 .gnu.attributes
                0x00000200       0x10 build/default/production/_ext/1144052859/tcpip_heap_alloc.o
 .gnu.attributes
                0x00000210       0x10 build/default/production/_ext/1144052859/tcpip_helpers.o
 .gnu.attributes
                0x00000220       0x10 build/default/production/_ext/1144052859/tcpip_manager.o
 .gnu.attributes
                0x00000230       0x10 build/default/production/_ext/1144052859/tcpip_notify.o
 .gnu.attributes
                0x00000240       0x10 build/default/production/_ext/1144052859/tcpip_packet.o
 .gnu.attributes
                0x00000250       0x10 build/default/production/_ext/1829665213/system_debug.o
 .gnu.attributes
                0x00000260       0x10 build/default/production/_ext/918699391/usart.o
 .gnu.attributes
                0x00000270       0x10 build/default/production/_ext/1829665213/system_command.o
 .gnu.attributes
                0x00000280       0x10 build/default/production/_ext/1144052859/ipv4.o
 .gnu.attributes
                0x00000290       0x10 build/default/production/_ext/1360937237/app.o
 .gnu.attributes
                0x000002a0       0x10 build/default/production/_ext/639803181/sys_clk_static.o
 .gnu.attributes
                0x000002b0       0x10 build/default/production/_ext/822048611/sys_ports_static.o
 .gnu.attributes
                0x000002c0       0x10 build/default/production/_ext/1688732426/system_init.o
 .gnu.attributes
                0x000002d0       0x10 build/default/production/_ext/1688732426/system_interrupt.o
 .gnu.attributes
                0x000002e0       0x10 build/default/production/_ext/1360937237/main.o
 .gnu.attributes
                0x000002f0       0x10 build/default/production/_ext/1688732426/system_tasks.o
 .gnu.attributes
                0x00000300       0x10 ..\..\..\..\..\..\..\..\microchip\harmony\v1_02\bin\framework\peripheral\PIC32MX795F512L_peripherals.a(plib_eth_lib.o)
 .gnu.attributes
                0x00000310       0x10 c:/program files (x86)/microchip/xc32/v1.33/bin/bin/../../lib/gcc/pic32mx/4.5.2\libgcc.a(_udivdi3.o)
 .gnu.attributes
                0x00000320       0x10 c:/program files (x86)/microchip/xc32/v1.33/bin/bin/../../lib/gcc/pic32mx/4.5.2/../../../../pic32mx/lib\libpic32.a(default-bootstrap-exception-handler.o)
 .gnu.attributes
                0x00000330       0x10 c:/program files (x86)/microchip/xc32/v1.33/bin/bin/../../lib/gcc/pic32mx/4.5.2/../../../../pic32mx/lib\libpic32.a(default-on-reset.o)
 .gnu.attributes
                0x00000340       0x10 c:/program files (x86)/microchip/xc32/v1.33/bin/bin/../../lib/gcc/pic32mx/4.5.2/../../../../pic32mx/lib\libpic32.a(default-on-bootstrap.o)
 .gnu.attributes
                0x00000350       0x10 c:/program files (x86)/microchip/xc32/v1.33/bin/bin/../../lib/gcc/pic32mx/4.5.2/../../../../pic32mx/lib\libpic32.a(defaultinterrupt.o)
 .gnu.attributes
                0x00000360       0x10 c:/program files (x86)/microchip/xc32/v1.33/bin/bin/../../lib/gcc/pic32mx/4.5.2/../../../../pic32mx/lib\libc.a(atoi.o)
 .gnu.attributes
                0x00000370       0x10 c:/program files (x86)/microchip/xc32/v1.33/bin/bin/../../lib/gcc/pic32mx/4.5.2/../../../../pic32mx/lib\libc.a(calloc.o)
 .gnu.attributes
                0x00000380       0x10 c:/program files (x86)/microchip/xc32/v1.33/bin/bin/../../lib/gcc/pic32mx/4.5.2/../../../../pic32mx/lib\libc.a(ctype.o)
 .gnu.attributes
                0x00000390       0x10 c:/program files (x86)/microchip/xc32/v1.33/bin/bin/../../lib/gcc/pic32mx/4.5.2/../../../../pic32mx/lib\libc.a(malloc.o)
 .gnu.attributes
                0x000003a0       0x10 c:/program files (x86)/microchip/xc32/v1.33/bin/bin/../../lib/gcc/pic32mx/4.5.2/../../../../pic32mx/lib\libc.a(rand.o)
 .gnu.attributes
                0x000003b0       0x10 c:/program files (x86)/microchip/xc32/v1.33/bin/bin/../../lib/gcc/pic32mx/4.5.2/../../../../pic32mx/lib\libc.a(strncpy.o)
 .gnu.attributes
                0x000003c0       0x10 c:/program files (x86)/microchip/xc32/v1.33/bin/bin/../../lib/gcc/pic32mx/4.5.2/../../../../pic32mx/lib\libc.a(strtol.o)
 .gnu.attributes
                0x000003d0       0x10 c:/program files (x86)/microchip/xc32/v1.33/bin/bin/../../lib/gcc/pic32mx/4.5.2/../../../../pic32mx/lib\libc.a(snprintf_cdnopsuxX.eo)
 .gnu.attributes
                0x000003e0       0x10 c:/program files (x86)/microchip/xc32/v1.33/bin/bin/../../lib/gcc/pic32mx/4.5.2/../../../../pic32mx/lib\libc.a(sprintf_cdnopsuxX.eo)
 .gnu.attributes
                0x000003f0       0x10 c:/program files (x86)/microchip/xc32/v1.33/bin/bin/../../lib/gcc/pic32mx/4.5.2/../../../../pic32mx/lib\libc.a(vsnprintf_cdnopsuxX.eo)
 .gnu.attributes
                0x00000400       0x10 c:/program files (x86)/microchip/xc32/v1.33/bin/bin/../../lib/gcc/pic32mx/4.5.2/../../../../pic32mx/lib\libc.a(vsnprintf.o)
 .gnu.attributes
                0x00000410       0x10 c:/program files (x86)/microchip/xc32/v1.33/bin/bin/../../lib/gcc/pic32mx/4.5.2/../../../../pic32mx/lib\libc.a(ctypef.o)
 .gnu.attributes
                0x00000420       0x10 c:/program files (x86)/microchip/xc32/v1.33/bin/bin/../../lib/gcc/pic32mx/4.5.2/../../../../pic32mx/lib\libc.a(errno.o)
 .gnu.attributes
                0x00000430       0x10 c:/program files (x86)/microchip/xc32/v1.33/bin/bin/../../lib/gcc/pic32mx/4.5.2/../../../../pic32mx/lib\libc.a(doprnt_cdnopsuxX.eo)
 .gnu.attributes
                0x00000440       0x10 c:/program files (x86)/microchip/xc32/v1.33/bin/bin/../../lib/gcc/pic32mx/4.5.2/../../../../pic32mx/lib\libc.a(doprnt.o)
 .gnu.attributes
                0x00000450       0x10 c:/program files (x86)/microchip/xc32/v1.33/bin/bin/../../lib/gcc/pic32mx/4.5.2/../../../../pic32mx/lib\libc.a(_fputc_simple.o)
 .gnu.attributes
                0x00000460       0x10 c:/program files (x86)/microchip/xc32/v1.33/bin/bin/../../lib/gcc/pic32mx/4.5.2/../../../../pic32mx/lib\libc.a(powersf.o)
 .gnu.attributes
                0x00000470       0x10 c:/program files (x86)/microchip/xc32/v1.33/bin/bin/../../lib/gcc/pic32mx/4.5.2/../../../../pic32mx/lib\libc.a(_iob.o)
 .gnu.attributes
                0x00000480       0x10 c:/program files (x86)/microchip/xc32/v1.33/bin/bin/../../lib/gcc/pic32mx/4.5.2/../../../../pic32mx/lib\libc.a(_flsbuf_simple.o)
 .gnu.attributes
                0x00000490       0x10 c:/program files (x86)/microchip/xc32/v1.33/bin/bin/../../lib/gcc/pic32mx/4.5.2/../../../../pic32mx/lib\libpic32.a(sbrk.o)
 .gnu.attributes
                0x000004a0       0x10 c:/program files (x86)/microchip/xc32/v1.33/bin/bin/../../lib/gcc/pic32mx/4.5.2/../../../../pic32mx/lib\libpic32.a(write.o)
 .gnu.attributes
                0x000004b0       0x10 c:/program files (x86)/microchip/xc32/v1.33/bin/bin/../../lib/gcc/pic32mx/4.5.2/../../../../pic32mx/lib\libpic32.a(_mon_putc.o)
 .gnu.attributes
                0x000004c0       0x10 c:/program files (x86)/microchip/xc32/v1.33/bin/bin/../../lib/gcc/pic32mx/4.5.2/../../../../pic32mx/lib\libpic32.a(xc32_uart.o)
 .gnu.attributes
                0x000004d0       0x10 c:/program files (x86)/microchip/xc32/v1.33/bin/bin/../../lib/gcc/pic32mx/4.5.2/../../../../pic32mx/lib\libe.a(_floatdisf.o)
 .gnu.attributes
                0x000004e0       0x10 c:/program files (x86)/microchip/xc32/v1.33/bin/bin/../../lib/gcc/pic32mx/4.5.2\libgcc.a(_floatundisf.o)
 .gnu.attributes
                0x000004f0       0x10 c:/program files (x86)/microchip/xc32/v1.33/bin/bin/../../lib/gcc/pic32mx/4.5.2\libgcc.a(_umoddi3.o)
 .gnu.attributes
                0x00000500       0x10 c:/program files (x86)/microchip/xc32/v1.33/bin/bin/../../lib/gcc/pic32mx/4.5.2\libgcc.a(floatunsisf.o)
LOAD c:/program files (x86)/microchip/xc32/v1.33/bin/bin/../../lib/gcc/pic32mx/4.5.2\libgcc.a
START GROUP
LOAD c:/program files (x86)/microchip/xc32/v1.33/bin/bin/../../lib/gcc/pic32mx/4.5.2/../../../../pic32mx/lib\libpic32.a
LOAD c:/program files (x86)/microchip/xc32/v1.33/bin/bin/../../lib/gcc/pic32mx/4.5.2/../../../../pic32mx/lib\libdebug.a
LOAD c:/program files (x86)/microchip/xc32/v1.33/bin/bin/../../lib/gcc/pic32mx/4.5.2/../../../../pic32mx/lib\libpic32.a
LOAD c:/program files (x86)/microchip/xc32/v1.33/bin/bin/../../lib/gcc/pic32mx/4.5.2/../../../../pic32mx/lib\libm.a
LOAD c:/program files (x86)/microchip/xc32/v1.33/bin/bin/../../lib/gcc/pic32mx/4.5.2/../../../../pic32mx/lib\libe.a
LOAD c:/program files (x86)/microchip/xc32/v1.33/bin/bin/../../lib/gcc/pic32mx/4.5.2/../../../../pic32mx/lib\libdsp.a
LOAD c:/program files (x86)/microchip/xc32/v1.33/bin/bin/../../lib/gcc/pic32mx/4.5.2\libgcc.a
LOAD c:/program files (x86)/microchip/xc32/v1.33/bin/bin/../../lib/gcc/pic32mx/4.5.2/../../../../pic32mx/lib\libc.a
LOAD c:/program files (x86)/microchip/xc32/v1.33/bin/bin/../../lib/gcc/pic32mx/4.5.2/../../../../pic32mx/lib\libpic32.a
END GROUP
LOAD c:/program files (x86)/microchip/xc32/v1.33/bin/bin/../../lib/gcc/pic32mx/4.5.2\libgcc.a
OUTPUT(dist/default/production/HarmonyTestApp.X.production.elf elf32-tradlittlemips)
LOAD stack
LOAD data_init

.reginfo        0x00000000       0x18
 .reginfo       0x00000000       0x18 c:/program files (x86)/microchip/xc32/v1.33/bin/bin/../../lib/gcc/pic32mx/4.5.2/../../../../pic32mx/lib/./proc/32MX795F512L/crt0_mips32r2.o

.stack          0xa000ba28      0x400
 .stack         0xa000ba28      0x400 stack

.bss            0xa0000380      0x154
 .bss           0xa0000380      0x154 build/default/production/_ext/1144052859/tcpip_manager.o

.data           0xa00004d4       0xfc
 .data          0xa00004d4       0xfc build/default/production/_ext/1986204992/drv_ethmac.o

.bss            0xa00005d0       0xb4
 .bss           0xa00005d0       0xb4 build/default/production/_ext/1829665213/system_command.o

.data           0xa0000684       0xa0
 .data          0xa0000684       0xa0 c:/program files (x86)/microchip/xc32/v1.33/bin/bin/../../lib/gcc/pic32mx/4.5.2/../../../../pic32mx/lib\libc.a(_iob.o)
                0xa0000684                _iob

.bss            0xa0000724      0x234
 .bss           0xa0000724       0x94 build/default/production/_ext/2097170832/sys_tmr.o
 .bss           0xa00007b8       0x6c build/default/production/_ext/1144052859/dns.o
 .bss           0xa0000824       0x64 build/default/production/_ext/1144052859/tcpip_commands.o
 .bss           0xa0000888       0x54 build/default/production/_ext/1144052859/arp.o
 .bss           0xa00008dc       0x40 c:/program files (x86)/microchip/xc32/v1.33/bin/bin/../../lib/gcc/pic32mx/4.5.2/../../../../pic32mx/lib\libc.a(_iob.o)
                0xa00008dc                _sibuf
                0xa00008fc                _sobuf
 .bss           0xa000091c       0x3c build/default/production/_ext/304478105/drv_tmr.o

.data           0xa0000958       0x54
 .data          0xa0000958       0x30 build/default/production/_ext/1829665213/system_debug.o
 .data          0xa0000988       0x24 build/default/production/_ext/1144052859/tcpip_packet.o

.bss            0xa00009ac       0x20
 .bss           0xa00009ac       0x20 build/default/production/_ext/1144052859/ipv4.o

.data           0xa00009cc       0x1c
 .data          0xa00009cc       0x1c build/default/production/_ext/918699391/usart.o
                0xa00009cc                _usart_cdev_obj

.bss            0xa00009e8       0x64
 .bss           0xa00009e8       0x1c c:/program files (x86)/microchip/xc32/v1.33/bin/bin/../../lib/gcc/pic32mx/4.5.2/../../../../pic32mx/lib\libpic32.a(sbrk.o)
 .bss           0xa0000a04       0x18 build/default/production/_ext/323145514/sys_random.o
 .bss           0xa0000a1c       0x10 build/default/production/_ext/1144052859/dhcp.o
 .bss           0xa0000a2c       0x10 build/default/production/_ext/1144052859/icmp.o
 .bss           0xa0000a3c       0x10 c:/program files (x86)/microchip/xc32/v1.33/bin/bin/../../lib/gcc/pic32mx/4.5.2/../../../../pic32mx/lib\libc.a(malloc.o)
                0xa0000a3c                __allocs

.bss            0xa0000a50       0x1c
 .bss           0xa0000a50       0x10 c:/program files (x86)/microchip/xc32/v1.33/bin/bin/../../lib/gcc/pic32mx/4.5.2/../../../../pic32mx/lib\libc.a(rand.o)
 .bss           0xa0000a60        0xc build/default/production/_ext/1144052859/udp.o

._debug_exception
                0xbfc00480       0x2c
 ._debug_exception
                0xbfc00480       0x2c c:/program files (x86)/microchip/xc32/v1.33/bin/bin/../../lib/gcc/pic32mx/4.5.2/../../../../pic32mx/lib\debug-exception-return.o
                0xbfc00480                __DbgExecReturn

.text.vfprintf  0x9d000000     0x1bc8
 .text.vfprintf
                0x9d000000     0x1bc8 c:/program files (x86)/microchip/xc32/v1.33/bin/bin/../../lib/gcc/pic32mx/4.5.2/../../../../pic32mx/lib\libc.a(doprnt.o)
                0x9d000000                vfprintf

.rodata         0x9d001bc8     0x185c
 .rodata        0x9d001bc8     0x185c build/default/production/_ext/1144052859/tcpip_commands.o

.text.TCPIP_TCP_ProcessIPv4
                0x9d003424      0xeb0
 .text.TCPIP_TCP_ProcessIPv4
                0x9d003424      0xeb0 build/default/production/_ext/1144052859/tcp.o
                0x9d003424                TCPIP_TCP_ProcessIPv4

.text._vfprintf_cdnopsuxX
                0x9d0042d4      0xae8
 .text._vfprintf_cdnopsuxX
                0x9d0042d4      0xae8 c:/program files (x86)/microchip/xc32/v1.33/bin/bin/../../lib/gcc/pic32mx/4.5.2/../../../../pic32mx/lib\libc.a(doprnt_cdnopsuxX.eo)
                0x9d0042d4                _vfprintf_cdnopsuxX
                0x9d0042d4                _vfprintf_cdnopuxX

.text._Command_DNS_Service
                0x9d004dbc      0x9a8
 .text._Command_DNS_Service
                0x9d004dbc      0x9a8 build/default/production/_ext/1144052859/tcpip_commands.o

.text.TCPIP_STACK_Task
                0x9d005764      0x818
 .text.TCPIP_STACK_Task
                0x9d005764      0x818 build/default/production/_ext/1144052859/tcpip_manager.o
                0x9d005764                TCPIP_STACK_Task

.text._DRV_TMR_ClockPrescaleSet
                0x9d005f7c      0x6a8
 .text._DRV_TMR_ClockPrescaleSet
                0x9d005f7c      0x6a8 build/default/production/_ext/304478105/drv_tmr.o

.text.TCPIP_DHCP_Task
                0x9d006624      0x68c
 .text.TCPIP_DHCP_Task
                0x9d006624      0x68c build/default/production/_ext/1144052859/dhcp.o
                0x9d006624                TCPIP_DHCP_Task

.text._TcpSend  0x9d006cb0      0x668
 .text._TcpSend
                0x9d006cb0      0x668 build/default/production/_ext/1144052859/tcp.o

.text.SYS_CMD_Tasks
                0x9d007318      0x600
 .text.SYS_CMD_Tasks
                0x9d007318      0x600 build/default/production/_ext/1829665213/system_command.o
                0x9d007318                SYS_CMD_Tasks

.text.TCPIP_ZCLL_Task
                0x9d007918      0x588
 .text.TCPIP_ZCLL_Task
                0x9d007918      0x588 build/default/production/_ext/1144052859/zero_conf_link_local.o
                0x9d007918                TCPIP_ZCLL_Task

.dinit          0x9d007ea0      0x510
 .dinit         0x9d007ea0      0x510 data_init

.text.TCPIP_TCP_Tick
                0x9d0083b0      0x4e8
 .text.TCPIP_TCP_Tick
                0x9d0083b0      0x4e8 build/default/production/_ext/1144052859/tcp.o
                0x9d0083b0                TCPIP_TCP_Tick

.text.DRV_ETHMAC_PIC32MACInitialize
                0x9d008898      0x484
 .text.DRV_ETHMAC_PIC32MACInitialize
                0x9d008898      0x484 build/default/production/_ext/1986204992/drv_ethmac.o
                0x9d008898                DRV_ETHMAC_PIC32MACInitialize

.text           0x9d008d1c      0x8a8
 .text          0x9d008d1c      0x45c c:/program files (x86)/microchip/xc32/v1.33/bin/bin/../../lib/gcc/pic32mx/4.5.2\libgcc.a(_umoddi3.o)
                0x9d008d1c                __umoddi3
 .text          0x9d009178      0x44c c:/program files (x86)/microchip/xc32/v1.33/bin/bin/../../lib/gcc/pic32mx/4.5.2\libgcc.a(_udivdi3.o)
                0x9d009178                __udivdi3

.text.CommandArp
                0x9d0095c4      0x434
 .text.CommandArp
                0x9d0095c4      0x434 build/default/production/_ext/1144052859/tcpip_commands.o

.text._DHCPReceive
                0x9d0099f8      0x40c
 .text._DHCPReceive
                0x9d0099f8      0x40c build/default/production/_ext/1144052859/dhcp.o

.text._Command_NetInfo
                0x9d009e04      0x364
 .text._Command_NetInfo
                0x9d009e04      0x364 build/default/production/_ext/1144052859/tcpip_commands.o

.text.TCPIP_Helper_StringToIPv6Address
                0x9d00a168      0x354
 .text.TCPIP_Helper_StringToIPv6Address
                0x9d00a168      0x354 build/default/production/_ext/1144052859/tcpip_helpers.o
                0x9d00a168                TCPIP_Helper_StringToIPv6Address

.text.TCPIP_DNS_Send_Query
                0x9d00a4bc      0x348
 .text.TCPIP_DNS_Send_Query
                0x9d00a4bc      0x348 build/default/production/_ext/1144052859/dns.o
                0x9d00a4bc                TCPIP_DNS_Send_Query

.text._Command_StackOnOff
                0x9d00a804      0x334
 .text._Command_StackOnOff
                0x9d00a804      0x334 build/default/production/_ext/1144052859/tcpip_commands.o

.text.SYS_TMR_Tasks
                0x9d00ab38      0x32c
 .text.SYS_TMR_Tasks
                0x9d00ab38      0x32c build/default/production/_ext/2097170832/sys_tmr.o
                0x9d00ab38                SYS_TMR_Tasks

.text._DHCPSend
                0x9d00ae64      0x32c
 .text._DHCPSend
                0x9d00ae64      0x32c build/default/production/_ext/1144052859/dhcp.o

.text.TCPIP_NBNS_Task
                0x9d00b190      0x32c
 .text.TCPIP_NBNS_Task
                0x9d00b190      0x32c build/default/production/_ext/1144052859/nbns.o
                0x9d00b190                TCPIP_NBNS_Task

.text.TCPIP_ARP_Initialize
                0x9d00b4bc      0x328
 .text.TCPIP_ARP_Initialize
                0x9d00b4bc      0x328 build/default/production/_ext/1144052859/arp.o
                0x9d00b4bc                TCPIP_ARP_Initialize

.text._DNS_GetResultProcessing
                0x9d00b7e4      0x328
 .text._DNS_GetResultProcessing
                0x9d00b7e4      0x328 build/default/production/_ext/1144052859/dns.o

.text.TCPIPDNSLookUpCommandTask
                0x9d00bb0c      0x2f4
 .text.TCPIPDNSLookUpCommandTask
                0x9d00bb0c      0x2f4 build/default/production/_ext/1144052859/tcpip_commands.o
                0x9d00bb0c                TCPIPDNSLookUpCommandTask

.text.TCPIP_DNS_ClientInitialize
                0x9d00be00      0x2d8
 .text.TCPIP_DNS_ClientInitialize
                0x9d00be00      0x2d8 build/default/production/_ext/1144052859/dns.o
                0x9d00be00                TCPIP_DNS_ClientInitialize

.text.TCPIP_STACK_NetConfigSet
                0x9d00c0d8      0x2d0
 .text.TCPIP_STACK_NetConfigSet
                0x9d00c0d8      0x2d0 build/default/production/_ext/1144052859/tcpip_manager.o
                0x9d00c0d8                TCPIP_STACK_NetConfigSet

.text.TCPIP_IPV4_PacketTransmit
                0x9d00c3a8      0x2c8
 .text.TCPIP_IPV4_PacketTransmit
                0x9d00c3a8      0x2c8 build/default/production/_ext/1144052859/ipv4.o
                0x9d00c3a8                TCPIP_IPV4_PacketTransmit

.text.CommandHelp
                0x9d00c670      0x2b8
 .text.CommandHelp
                0x9d00c670      0x2b8 build/default/production/_ext/1829665213/system_command.o

.text.TCPIP_ARP_Task
                0x9d00c928      0x2b0
 .text.TCPIP_ARP_Task
                0x9d00c928      0x2b0 build/default/production/_ext/1144052859/arp.o
                0x9d00c928                TCPIP_ARP_Task

.text.TCPIP_ANNOUNCE_Send
                0x9d00cbd8      0x2b0
 .text.TCPIP_ANNOUNCE_Send
                0x9d00cbd8      0x2b0 build/default/production/_ext/1144052859/tcpip_announce.o
                0x9d00cbd8                TCPIP_ANNOUNCE_Send

.text.scale     0x9d00ce88      0x2a0
 .text.scale    0x9d00ce88      0x2a0 c:/program files (x86)/microchip/xc32/v1.33/bin/bin/../../lib/gcc/pic32mx/4.5.2/../../../../pic32mx/lib\libc.a(doprnt.o)

.text.CommandPing
                0x9d00d128      0x298
 .text.CommandPing
                0x9d00d128      0x298 build/default/production/_ext/1144052859/tcpip_commands.o

.text._Command_NetworkOnOff
                0x9d00d3c0      0x298
 .text._Command_NetworkOnOff
                0x9d00d3c0      0x298 build/default/production/_ext/1144052859/tcpip_commands.o

.text.TCPIP_STACK_BringNetUp
                0x9d00d658      0x290
 .text.TCPIP_STACK_BringNetUp
                0x9d00d658      0x290 build/default/production/_ext/1144052859/tcpip_manager.o

.rodata         0x9d00d8e8      0x28c
 .rodata        0x9d00d8e8      0x28c build/default/production/_ext/1829665213/system_command.o
                0x9d00dae4                sysConsoleApi

.text.TCPIP_UDP_ProcessIPv4
                0x9d00db74      0x284
 .text.TCPIP_UDP_ProcessIPv4
                0x9d00db74      0x284 build/default/production/_ext/1144052859/udp.o
                0x9d00db74                TCPIP_UDP_ProcessIPv4

.text.TCPIP_STACK_Initialize
                0x9d00ddf8      0x278
 .text.TCPIP_STACK_Initialize
                0x9d00ddf8      0x278 build/default/production/_ext/1144052859/tcpip_manager.o
                0x9d00ddf8                TCPIP_STACK_Initialize

.text.malloc    0x9d00e070      0x278
 .text.malloc   0x9d00e070      0x278 c:/program files (x86)/microchip/xc32/v1.33/bin/bin/../../lib/gcc/pic32mx/4.5.2/../../../../pic32mx/lib\libc.a(malloc.o)
                0x9d00e070                malloc

.text.fpsubadd  0x9d00e2e8      0x278
 .text.fpsubadd
                0x9d00e2e8      0x278 c:/program files (x86)/microchip/xc32/v1.33/bin/bin/../../lib/gcc/pic32mx/4.5.2/../../../../pic32mx/lib\libm.a(fp32subadd.o)
                0x9d00e2e8                __subsf3
                0x9d00e2e8                fpsub
                0x9d00e2f0                __addsf3
                0x9d00e2f0                fpadd

.text._Command_MacInfo
                0x9d00e560      0x274
 .text._Command_MacInfo
                0x9d00e560      0x274 build/default/production/_ext/1144052859/tcpip_commands.o

.text.TCPIP_IPV4_Process
                0x9d00e7d4      0x274
 .text.TCPIP_IPV4_Process
                0x9d00e7d4      0x274 build/default/production/_ext/1144052859/ipv4.o
                0x9d00e7d4                TCPIP_IPV4_Process

.text.TCPIP_UDP_Flush
                0x9d00ea48      0x258
 .text.TCPIP_UDP_Flush
                0x9d00ea48      0x258 build/default/production/_ext/1144052859/udp.o
                0x9d00ea48                TCPIP_UDP_Flush

.text.DRV_TMR_CounterFrequencyGet
                0x9d00eca0      0x254
 .text.DRV_TMR_CounterFrequencyGet
                0x9d00eca0      0x254 build/default/production/_ext/304478105/drv_tmr.o
                0x9d00eca0                DRV_TMR_CounterFrequencyGet

.text.TCPIP_ARP_Process
                0x9d00eef4      0x254
 .text.TCPIP_ARP_Process
                0x9d00eef4      0x254 build/default/production/_ext/1144052859/arp.o
                0x9d00eef4                TCPIP_ARP_Process

.text.TCPIP_ICMP_Process
                0x9d00f148      0x254
 .text.TCPIP_ICMP_Process
                0x9d00f148      0x254 build/default/production/_ext/1144052859/icmp.o
                0x9d00f148                TCPIP_ICMP_Process

.text.DRV_ETHMAC_LibRxBuffersAppend
                0x9d00f39c      0x24c
 .text.DRV_ETHMAC_LibRxBuffersAppend
                0x9d00f39c      0x24c build/default/production/_ext/1986204992/drv_ethmac_lib.o
                0x9d00f39c                DRV_ETHMAC_LibRxBuffersAppend

.text           0x9d00f5e8      0x248
 .text          0x9d00f5e8      0x248 build/default/production/_ext/1144052859/tcpip_helper_c32.o
                0x9d00f5e8                TCPIP_Helper_htonl
                0x9d00f5f4                TCPIP_Helper_htons
                0x9d00f600                TCPIP_Helper_CalcIPChecksum

.text.TCPIPCommandsTask
                0x9d00f830      0x234
 .text.TCPIPCommandsTask
                0x9d00f830      0x234 build/default/production/_ext/1144052859/tcpip_commands.o
                0x9d00f830                TCPIPCommandsTask

.text.fp32div   0x9d00fa64      0x230
 .text.fp32div  0x9d00fa64      0x230 c:/program files (x86)/microchip/xc32/v1.33/bin/bin/../../lib/gcc/pic32mx/4.5.2/../../../../pic32mx/lib\libm.a(fp32div.o)
                0x9d00fa64                fpdiv
                0x9d00fa64                __divsf3

.text.TCPIP_DNS_GetResolverDetails
                0x9d00fc94      0x228
 .text.TCPIP_DNS_GetResolverDetails
                0x9d00fc94      0x228 build/default/production/_ext/1144052859/dns.o
                0x9d00fc94                TCPIP_DNS_GetResolverDetails

.text.strtoul   0x9d00febc      0x220
 .text.strtoul  0x9d00febc      0x220 c:/program files (x86)/microchip/xc32/v1.33/bin/bin/../../lib/gcc/pic32mx/4.5.2/../../../../pic32mx/lib\libc.a(strtol.o)
                0x9d00febc                strtoul

.text.__floatdisf
                0x9d0100dc      0x220
 .text.__floatdisf
                0x9d0100dc      0x220 c:/program files (x86)/microchip/xc32/v1.33/bin/bin/../../lib/gcc/pic32mx/4.5.2/../../../../pic32mx/lib\libe.a(_floatdisf.o)
                0x9d0100dc                __floatdisf

.text._DNS_RESPONSE_HashEntryUpdate
                0x9d0102fc      0x21c
 .text._DNS_RESPONSE_HashEntryUpdate
                0x9d0102fc      0x21c build/default/production/_ext/1144052859/dns.o

.text._TCPIP_HEAP_Free
                0x9d010518      0x21c
 .text._TCPIP_HEAP_Free
                0x9d010518      0x21c build/default/production/_ext/1144052859/tcpip_heap_alloc.o
                0x9d010518                _TCPIP_HEAP_Free

.text._UDPOpen  0x9d010734      0x214
 .text._UDPOpen
                0x9d010734      0x214 build/default/production/_ext/1144052859/udp.o

.text.CommandDhcpOptions
                0x9d010948      0x214
 .text.CommandDhcpOptions
                0x9d010948      0x214 build/default/production/_ext/1144052859/tcpip_commands.o

.text.DRV_TMR_Initialize
                0x9d010b5c      0x204
 .text.DRV_TMR_Initialize
                0x9d010b5c      0x204 build/default/production/_ext/304478105/drv_tmr.o
                0x9d010b5c                DRV_TMR_Initialize

.text._Command_AddressService
                0x9d010d60      0x1fc
 .text._Command_AddressService
                0x9d010d60      0x1fc build/default/production/_ext/1144052859/tcpip_commands.o

.text.TCPIP_DNS_IsResolved
                0x9d010f5c      0x1f8
 .text.TCPIP_DNS_IsResolved
                0x9d010f5c      0x1f8 build/default/production/_ext/1144052859/dns.o
                0x9d010f5c                TCPIP_DNS_IsResolved

.text.TCPIP_Helper_StringToIPAddress
                0x9d011154      0x1e4
 .text.TCPIP_Helper_StringToIPAddress
                0x9d011154      0x1e4 build/default/production/_ext/1144052859/tcpip_helpers.o
                0x9d011154                TCPIP_Helper_StringToIPAddress

.text._SYS_TMR_ClientCreate
                0x9d011338      0x1e0
 .text._SYS_TMR_ClientCreate
                0x9d011338      0x1e0 build/default/production/_ext/2097170832/sys_tmr.o

.text._DRV_ETHPHY_SetupPhaseDetect
                0x9d011518      0x1dc
 .text._DRV_ETHPHY_SetupPhaseDetect
                0x9d011518      0x1dc build/default/production/_ext/810051186/drv_ethphy.o

.text._DRV_PHY_SMITransferDo
                0x9d0116f4      0x1d8
 .text._DRV_PHY_SMITransferDo
                0x9d0116f4      0x1d8 build/default/production/_ext/810051186/drv_ethphy.o

.text._Command_IPAddressSet
                0x9d0118cc      0x1d8
 .text._Command_IPAddressSet
                0x9d0118cc      0x1d8 build/default/production/_ext/1144052859/tcpip_commands.o

.text.DRV_ETHMAC_LibInit
                0x9d011aa4      0x1c8
 .text.DRV_ETHMAC_LibInit
                0x9d011aa4      0x1c8 build/default/production/_ext/1986204992/drv_ethmac_lib.o
                0x9d011aa4                DRV_ETHMAC_LibInit

.text._EthAckPacket
                0x9d011c6c      0x1c0
 .text._EthAckPacket
                0x9d011c6c      0x1c0 build/default/production/_ext/1986204992/drv_ethmac_lib.o

.text.fp32mul   0x9d011e2c      0x1bc
 .text.fp32mul  0x9d011e2c      0x1bc c:/program files (x86)/microchip/xc32/v1.33/bin/bin/../../lib/gcc/pic32mx/4.5.2/../../../../pic32mx/lib\libm.a(fp32mul.o)
                0x9d011e2c                __mulsf3
                0x9d011e2c                fpmul

.text.DRV_ETHMAC_PIC32MACPacketTx
                0x9d011fe8      0x1b8
 .text.DRV_ETHMAC_PIC32MACPacketTx
                0x9d011fe8      0x1b8 build/default/production/_ext/1986204992/drv_ethmac.o
                0x9d011fe8                DRV_ETHMAC_PIC32MACPacketTx

.text.TCPIP_UDP_OptionsSet
                0x9d0121a0      0x1ac
 .text.TCPIP_UDP_OptionsSet
                0x9d0121a0      0x1ac build/default/production/_ext/1144052859/udp.o
                0x9d0121a0                TCPIP_UDP_OptionsSet

.text.DRV_ETHMAC_PIC32MACPacketRx
                0x9d01234c      0x1a8
 .text.DRV_ETHMAC_PIC32MACPacketRx
                0x9d01234c      0x1a8 build/default/production/_ext/1986204992/drv_ethmac.o
                0x9d01234c                DRV_ETHMAC_PIC32MACPacketRx

.text.TCPIP_UDP_ArrayGet
                0x9d0124f4      0x1a8
 .text.TCPIP_UDP_ArrayGet
                0x9d0124f4      0x1a8 build/default/production/_ext/1144052859/udp.o
                0x9d0124f4                TCPIP_UDP_ArrayGet

.text.fround    0x9d01269c      0x1a4
 .text.fround   0x9d01269c      0x1a4 c:/program files (x86)/microchip/xc32/v1.33/bin/bin/../../lib/gcc/pic32mx/4.5.2/../../../../pic32mx/lib\libc.a(doprnt.o)

.text           0x9d012840      0x1a0
 .text          0x9d012840      0x1a0 c:/program files (x86)/microchip/xc32/v1.33/bin/bin/../../lib/gcc/pic32mx/4.5.2/../../../../pic32mx/lib\libpic32.a(strcpy.o)
                0x9d012840                strcpy

.text.TCPIP_UDP_Deinitialize
                0x9d0129e0      0x194
 .text.TCPIP_UDP_Deinitialize
                0x9d0129e0      0x194 build/default/production/_ext/1144052859/udp.o
                0x9d0129e0                TCPIP_UDP_Deinitialize

.text._sbrk_init
                0x9d012b74      0x194
 .text._sbrk_init
                0x9d012b74      0x194 c:/program files (x86)/microchip/xc32/v1.33/bin/bin/../../lib/gcc/pic32mx/4.5.2/../../../../pic32mx/lib\libpic32.a(sbrk.o)
                0x9d012b74                _sbrk_init

.text.DRV_ETHMAC_LibRxAcknowledgeBuffer
                0x9d012d08      0x190
 .text.DRV_ETHMAC_LibRxAcknowledgeBuffer
                0x9d012d08      0x190 build/default/production/_ext/1986204992/drv_ethmac_lib.o
                0x9d012d08                DRV_ETHMAC_LibRxAcknowledgeBuffer

.rodata         0x9d012e98      0x320
 .rodata        0x9d012e98      0x190 build/default/production/_ext/1144052859/tcpip_manager.o
 .rodata        0x9d013028      0x190 build/default/production/_ext/1829665213/system_debug.o

.text.TCPIP_UDP_Bind
                0x9d0131b8      0x18c
 .text.TCPIP_UDP_Bind
                0x9d0131b8      0x18c build/default/production/_ext/1144052859/udp.o
                0x9d0131b8                TCPIP_UDP_Bind

.text.TCPIP_DNS_ClientTask
                0x9d013344      0x188
 .text.TCPIP_DNS_ClientTask
                0x9d013344      0x188 build/default/production/_ext/1144052859/dns.o
                0x9d013344                TCPIP_DNS_ClientTask

.rodata         0x9d0134cc      0x188
 .rodata        0x9d0134cc      0x188 build/default/production/_ext/1688732426/system_init.o
                0x9d0134cc                drvTmr0InitData
                0x9d0134e8                sysTmrInitData
                0x9d0134f0                tcpipARPInitData
                0x9d013518                tcpipUDPInitData
                0x9d013518                tcpipAnnounceInitData
                0x9d013520                tcpipTCPInitData
                0x9d013528                tcpipDHCPInitData
                0x9d013538                tcpipNBNSInitData
                0x9d013538                tcpipMACPIC32INTInitData
                0x9d013554                tcpipDNSClientInitData
                0x9d013554                tcpipZCLLInitData
                0x9d0135c4                TCPIP_HOSTS_CONFIGURATION
                0x9d0135f8                TCPIP_STACK_MODULE_CONFIG_TBL
                0x9d013650                sysDevconInit

.text.TCPIP_UDP_Initialize
                0x9d013654      0x180
 .text.TCPIP_UDP_Initialize
                0x9d013654      0x180 build/default/production/_ext/1144052859/udp.o
                0x9d013654                TCPIP_UDP_Initialize

.text.TCPIP_ARP_EntryRemoveNet
                0x9d0137d4      0x180
 .text.TCPIP_ARP_EntryRemoveNet
                0x9d0137d4      0x180 build/default/production/_ext/1144052859/arp.o
                0x9d0137d4                TCPIP_ARP_EntryRemoveNet

.text._ZeroconfARPPktNotify
                0x9d013954      0x180
 .text._ZeroconfARPPktNotify
                0x9d013954      0x180 build/default/production/_ext/1144052859/zero_conf_link_local.o

.text.DRV_ETHMAC_PIC32MACEventMaskSet
                0x9d013ad4      0x17c
 .text.DRV_ETHMAC_PIC32MACEventMaskSet
                0x9d013ad4      0x17c build/default/production/_ext/1986204992/drv_ethmac.o
                0x9d013ad4                DRV_ETHMAC_PIC32MACEventMaskSet

.text._ARPProbeAddress
                0x9d013c50      0x178
 .text._ARPProbeAddress
                0x9d013c50      0x178 build/default/production/_ext/1144052859/arp.o

.text._LoadDefaultConfig
                0x9d013dc8      0x178
 .text._LoadDefaultConfig
                0x9d013dc8      0x178 build/default/production/_ext/1144052859/tcpip_manager.o

.text.DRV_ETHMAC_LibRxGetPacket
                0x9d013f40      0x174
 .text.DRV_ETHMAC_LibRxGetPacket
                0x9d013f40      0x174 build/default/production/_ext/1986204992/drv_ethmac_lib.o
                0x9d013f40                DRV_ETHMAC_LibRxGetPacket

.text._TCPIP_HEAP_Malloc
                0x9d0140b4      0x174
 .text._TCPIP_HEAP_Malloc
                0x9d0140b4      0x174 build/default/production/_ext/1144052859/tcpip_heap_alloc.o
                0x9d0140b4                _TCPIP_HEAP_Malloc

.text.DRV_ETHMAC_LibMACOpen
                0x9d014228      0x170
 .text.DRV_ETHMAC_LibMACOpen
                0x9d014228      0x170 build/default/production/_ext/1986204992/drv_ethmac_lib.o
                0x9d014228                DRV_ETHMAC_LibMACOpen

.text.TCPIP_DHCP_Initialize
                0x9d014398      0x16c
 .text.TCPIP_DHCP_Initialize
                0x9d014398      0x16c build/default/production/_ext/1144052859/dhcp.o
                0x9d014398                TCPIP_DHCP_Initialize

.text.TCPIP_DNS_CacheTimeout
                0x9d014504      0x16c
 .text.TCPIP_DNS_CacheTimeout
                0x9d014504      0x16c build/default/production/_ext/1144052859/dns.o
                0x9d014504                TCPIP_DNS_CacheTimeout

.text           0x9d014670      0x2d0
 .text          0x9d014670      0x168 c:/program files (x86)/microchip/xc32/v1.33/bin/bin/../../lib/gcc/pic32mx/4.5.2/../../../../pic32mx/lib\libpic32.a(memcpy.o)
                0x9d014670                memcpy
 .text          0x9d0147d8      0x168 c:/program files (x86)/microchip/xc32/v1.33/bin/bin/../../lib/gcc/pic32mx/4.5.2/../../../../pic32mx/lib\libpic32.a(strlen.o)
                0x9d0147d8                strlen

.text.strtol    0x9d014940      0x168
 .text.strtol   0x9d014940      0x168 c:/program files (x86)/microchip/xc32/v1.33/bin/bin/../../lib/gcc/pic32mx/4.5.2/../../../../pic32mx/lib\libc.a(strtol.o)
                0x9d014940                strtol

.text._UDPv4PAllocateSktTxBuffer
                0x9d014aa8      0x164
 .text._UDPv4PAllocateSktTxBuffer
                0x9d014aa8      0x164 build/default/production/_ext/1144052859/udp.o

.text.TCPIP_IPV4_SelectSourceInterface
                0x9d014c0c      0x164
 .text.TCPIP_IPV4_SelectSourceInterface
                0x9d014c0c      0x164 build/default/production/_ext/1144052859/ipv4.o
                0x9d014c0c                TCPIP_IPV4_SelectSourceInterface

.text._EthAppendBusyList
                0x9d014d70      0x15c
 .text._EthAppendBusyList
                0x9d014d70      0x15c build/default/production/_ext/1986204992/drv_ethmac_lib.o

.text._DHCPStartOperation
                0x9d014ecc      0x15c
 .text._DHCPStartOperation
                0x9d014ecc      0x15c build/default/production/_ext/1144052859/dhcp.o

.text._TCPIP_PKT_FlightLog
                0x9d015028      0x15c
 .text._TCPIP_PKT_FlightLog
                0x9d015028      0x15c build/default/production/_ext/1144052859/tcpip_packet.o
                0x9d015028                _TCPIP_PKT_FlightLog

.text.fputc     0x9d015184      0x15c
 .text.fputc    0x9d015184      0x15c c:/program files (x86)/microchip/xc32/v1.33/bin/bin/../../lib/gcc/pic32mx/4.5.2/../../../../pic32mx/lib\libc.a(_fputc_simple.o)
                0x9d015184                fputc

.text.DRV_ETHMAC_Tasks_ISR
                0x9d0152e0      0x158
 .text.DRV_ETHMAC_Tasks_ISR
                0x9d0152e0      0x158 build/default/production/_ext/1986204992/drv_ethmac.o
                0x9d0152e0                DRV_ETHMAC_Tasks_ISR

.text.DRV_ETHMAC_PIC32MACRxFilterHashTableEntrySet
                0x9d015438      0x154
 .text.DRV_ETHMAC_PIC32MACRxFilterHashTableEntrySet
                0x9d015438      0x154 build/default/production/_ext/1986204992/drv_ethmac.o
                0x9d015438                DRV_ETHMAC_PIC32MACRxFilterHashTableEntrySet

.text.DRV_TMR_Alarm16BitRegister
                0x9d01558c      0x154
 .text.DRV_TMR_Alarm16BitRegister
                0x9d01558c      0x154 build/default/production/_ext/304478105/drv_tmr.o
                0x9d01558c                DRV_TMR_Alarm16BitRegister

.text._ARPSendIfPkt
                0x9d0156e0      0x154
 .text._ARPSendIfPkt
                0x9d0156e0      0x154 build/default/production/_ext/1144052859/arp.o

.text._MACDeinit
                0x9d015834      0x150
 .text._MACDeinit
                0x9d015834      0x150 build/default/production/_ext/1986204992/drv_ethmac.o

.text.DRV_ETHMAC_LibTxSendPacket
                0x9d015984      0x150
 .text.DRV_ETHMAC_LibTxSendPacket
                0x9d015984      0x150 build/default/production/_ext/1986204992/drv_ethmac_lib.o
                0x9d015984                DRV_ETHMAC_LibTxSendPacket

.text._DRV_ETHPHY_SetupPhaseReset
                0x9d015ad4      0x150
 .text._DRV_ETHPHY_SetupPhaseReset
                0x9d015ad4      0x150 build/default/production/_ext/810051186/drv_ethphy.o

.text._DRV_ETHPHY_NegResultPhase_ANAD
                0x9d015c24      0x148
 .text._DRV_ETHPHY_NegResultPhase_ANAD
                0x9d015c24      0x148 build/default/production/_ext/810051186/drv_ethphy.o

.text.SYS_Initialize
                0x9d015d6c      0x144
 .text.SYS_Initialize
                0x9d015d6c      0x144 build/default/production/_ext/1688732426/system_init.o
                0x9d015d6c                SYS_Initialize

.text.DRV_EXTPHY_MDIXConfigure
                0x9d015eb0      0x13c
 .text.DRV_EXTPHY_MDIXConfigure
                0x9d015eb0      0x13c build/default/production/_ext/810051186/drv_extphy_smsc8740.o
                0x9d015eb0                DRV_EXTPHY_MDIXConfigure

.text.TCPIP_Helper_IPv6AddressToString
                0x9d015fec      0x13c
 .text.TCPIP_Helper_IPv6AddressToString
                0x9d015fec      0x13c build/default/production/_ext/1144052859/tcpip_helpers.o
                0x9d015fec                TCPIP_Helper_IPv6AddressToString

.text.DisplayNodeMsg
                0x9d016128      0x13c
 .text.DisplayNodeMsg
                0x9d016128      0x13c build/default/production/_ext/1829665213/system_command.o

.text._Command_MACAddressSet
                0x9d016264      0x130
 .text._Command_MACAddressSet
                0x9d016264      0x130 build/default/production/_ext/1144052859/tcpip_commands.o

.text._MacRxPacketAck
                0x9d016394      0x12c
 .text._MacRxPacketAck
                0x9d016394      0x12c build/default/production/_ext/1986204992/drv_ethmac.o

.text._TcpDisconnect
                0x9d0164c0      0x12c
 .text._TcpDisconnect
                0x9d0164c0      0x12c build/default/production/_ext/1144052859/tcp.o

.text._Command_GatewayAddressSet
                0x9d0165ec      0x12c
 .text._Command_GatewayAddressSet
                0x9d0165ec      0x12c build/default/production/_ext/1144052859/tcpip_commands.o

.text._flsbuf   0x9d016718      0x12c
 .text._flsbuf  0x9d016718      0x12c c:/program files (x86)/microchip/xc32/v1.33/bin/bin/../../lib/gcc/pic32mx/4.5.2/../../../../pic32mx/lib\libc.a(_flsbuf_simple.o)
                0x9d016718                _flsbuf

.text.DRV_ETHMAC_LibDescriptorsPoolAdd
                0x9d016844      0x128
 .text.DRV_ETHMAC_LibDescriptorsPoolAdd
                0x9d016844      0x128 build/default/production/_ext/1986204992/drv_ethmac_lib.o
                0x9d016844                DRV_ETHMAC_LibDescriptorsPoolAdd

.text._DRV_TMR_ClockSourceSet
                0x9d01696c      0x128
 .text._DRV_TMR_ClockSourceSet
                0x9d01696c      0x128 build/default/production/_ext/304478105/drv_tmr.o

.text.TCPIP_ANNOUNCE_Init
                0x9d016a94      0x128
 .text.TCPIP_ANNOUNCE_Init
                0x9d016a94      0x128 build/default/production/_ext/1144052859/tcpip_announce.o
                0x9d016a94                TCPIP_ANNOUNCE_Init

.text.TCPIP_Helper_StringToMACAddress
                0x9d016bbc      0x128
 .text.TCPIP_Helper_StringToMACAddress
                0x9d016bbc      0x128 build/default/production/_ext/1144052859/tcpip_helpers.o
                0x9d016bbc                TCPIP_Helper_StringToMACAddress

.text._DRV_ETHMAC_AddRxBuffers
                0x9d016ce4      0x124
 .text._DRV_ETHMAC_AddRxBuffers
                0x9d016ce4      0x124 build/default/production/_ext/1986204992/drv_ethmac.o

.text._OAHashFindBkt
                0x9d016e08      0x124
 .text._OAHashFindBkt
                0x9d016e08      0x124 build/default/production/_ext/1144052859/oahash.o

.text._Command_HeapInfo
                0x9d016f2c      0x120
 .text._Command_HeapInfo
                0x9d016f2c      0x120 build/default/production/_ext/1144052859/tcpip_commands.o

.text.TCPIP_IPV4_ArpHandler
                0x9d01704c      0x120
 .text.TCPIP_IPV4_ArpHandler
                0x9d01704c      0x120 build/default/production/_ext/1144052859/ipv4.o

.text           0x9d01716c      0x120
 .text          0x9d01716c      0x120 c:/program files (x86)/microchip/xc32/v1.33/bin/bin/../../lib/gcc/pic32mx/4.5.2/../../../../pic32mx/lib\libpic32.a(strcmp.o)
                0x9d01716c                strcmp

.text._DRV_ETHPHY_SetupPhaseIdle
                0x9d01728c      0x11c
 .text._DRV_ETHPHY_SetupPhaseIdle
                0x9d01728c      0x11c build/default/production/_ext/810051186/drv_ethphy.o

.text.DRV_EXTPHY_MIIConfigure
                0x9d0173a8      0x11c
 .text.DRV_EXTPHY_MIIConfigure
                0x9d0173a8      0x11c build/default/production/_ext/810051186/drv_extphy_smsc8740.o
                0x9d0173a8                DRV_EXTPHY_MIIConfigure

.text._ARPDeleteResources
                0x9d0174c4      0x11c
 .text._ARPDeleteResources
                0x9d0174c4      0x11c build/default/production/_ext/1144052859/arp.o

.text.DRV_ETHMAC_PIC32MACTasks
                0x9d0175e0      0x118
 .text.DRV_ETHMAC_PIC32MACTasks
                0x9d0175e0      0x118 build/default/production/_ext/1986204992/drv_ethmac.o
                0x9d0175e0                DRV_ETHMAC_PIC32MACTasks

.text.SYS_DEVCON_PerformanceConfig
                0x9d0176f8      0x118
 .text.SYS_DEVCON_PerformanceConfig
                0x9d0176f8      0x118 build/default/production/_ext/335806368/sys_devcon_pic32mx.o
                0x9d0176f8                SYS_DEVCON_PerformanceConfig

.text._DNS_Enable
                0x9d017810      0x118
 .text._DNS_Enable
                0x9d017810      0x118 build/default/production/_ext/1144052859/dns.o

.text.TCPIP_ICMP_EchoRequestSend
                0x9d017928      0x114
 .text.TCPIP_ICMP_EchoRequestSend
                0x9d017928      0x114 build/default/production/_ext/1144052859/icmp.o
                0x9d017928                TCPIP_ICMP_EchoRequestSend

.text._Command_PrimaryDNSAddressSet
                0x9d017a3c      0x114
 .text._Command_PrimaryDNSAddressSet
                0x9d017a3c      0x114 build/default/production/_ext/1144052859/tcpip_commands.o

.text.TCPIP_Helper_PacketChecksum
                0x9d017b50      0x114
 .text.TCPIP_Helper_PacketChecksum
                0x9d017b50      0x114 build/default/production/_ext/1144052859/tcpip_helpers.o
                0x9d017b50                TCPIP_Helper_PacketChecksum

.text.TCPIP_STACK_Deinitialize
                0x9d017c64      0x114
 .text.TCPIP_STACK_Deinitialize
                0x9d017c64      0x114 build/default/production/_ext/1144052859/tcpip_manager.o
                0x9d017c64                TCPIP_STACK_Deinitialize

.text.TCPIP_ARP_EntryQuery
                0x9d017d78      0x10c
 .text.TCPIP_ARP_EntryQuery
                0x9d017d78      0x10c build/default/production/_ext/1144052859/arp.o
                0x9d017d78                TCPIP_ARP_EntryQuery

.text.TCPIP_DNS_OAHASH_DeleteEntry
                0x9d017e84      0x108
 .text.TCPIP_DNS_OAHASH_DeleteEntry
                0x9d017e84      0x108 build/default/production/_ext/1144052859/dns.o

.text.SYS_CMD_ADDGRP
                0x9d017f8c      0x108
 .text.SYS_CMD_ADDGRP
                0x9d017f8c      0x108 build/default/production/_ext/1829665213/system_command.o
                0x9d017f8c                SYS_CMD_ADDGRP

.rodata         0x9d018094      0x104
 .rodata        0x9d018094      0x104 build/default/production/_ext/1986204992/drv_ethmac.o
                0x9d0180a8                DRV_ETHMAC_PIC32MACObject

.text._DRV_TMR_Resume
                0x9d018198      0x104
 .text._DRV_TMR_Resume
                0x9d018198      0x104 build/default/production/_ext/304478105/drv_tmr.o

.text.TCPIP_TCP_Initialize
                0x9d01829c      0x104
 .text.TCPIP_TCP_Initialize
                0x9d01829c      0x104 build/default/production/_ext/1144052859/tcp.o
                0x9d01829c                TCPIP_TCP_Initialize

.text._IntHandlerDrvTmrInstance0
                0x9d0183a0      0x104
 .text._IntHandlerDrvTmrInstance0
                0x9d0183a0      0x104 build/default/production/_ext/1688732426/system_interrupt.o
                0x9d0183a0                _IntHandlerDrvTmrInstance0

.rodata         0x9d0184a4      0x104
 .rodata        0x9d0184a4      0x104 c:/program files (x86)/microchip/xc32/v1.33/bin/bin/../../lib/gcc/pic32mx/4.5.2/../../../../pic32mx/lib\libc.a(ctype.o)
                0x9d0184a4                _ctype

.text._DRV_ETHPHY_SetupPhaseNegotiate_SubPhase3
                0x9d0185a8      0x100
 .text._DRV_ETHPHY_SetupPhaseNegotiate_SubPhase3
                0x9d0185a8      0x100 build/default/production/_ext/810051186/drv_ethphy.o

.text.TCPIP_UDP_OpenServerSkt
                0x9d0186a8      0x100
 .text.TCPIP_UDP_OpenServerSkt
                0x9d0186a8      0x100 build/default/production/_ext/1144052859/udp.o
                0x9d0186a8                TCPIP_UDP_OpenServerSkt

.rodata         0x9d0187a8      0x100
 .rodata        0x9d0187a8      0x100 build/default/production/_ext/1144052859/tcpip_packet.o

.text._IntHandler_ETHMAC
                0x9d0188a8      0x100
 .text._IntHandler_ETHMAC
                0x9d0188a8      0x100 build/default/production/_ext/1688732426/system_interrupt.o
                0x9d0188a8                _IntHandler_ETHMAC

.text._TcpSocketSetIdleState
                0x9d0189a8       0xfc
 .text._TcpSocketSetIdleState
                0x9d0189a8       0xfc build/default/production/_ext/1144052859/tcp.o

.text.DRV_ETHMAC_LibClose
                0x9d018aa4       0xf8
 .text.DRV_ETHMAC_LibClose
                0x9d018aa4       0xf8 build/default/production/_ext/1986204992/drv_ethmac_lib.o
                0x9d018aa4                DRV_ETHMAC_LibClose

.text.TCPIP_Commands_Initialize
                0x9d018b9c       0xf8
 .text.TCPIP_Commands_Initialize
                0x9d018b9c       0xf8 build/default/production/_ext/1144052859/tcpip_commands.o
                0x9d018b9c                TCPIP_Commands_Initialize

.text._SYS_TMR_ClientParamSet
                0x9d018c94       0xf0
 .text._SYS_TMR_ClientParamSet
                0x9d018c94       0xf0 build/default/production/_ext/2097170832/sys_tmr.o

.text._GetMaxSegSizeOption
                0x9d018d84       0xf0
 .text._GetMaxSegSizeOption
                0x9d018d84       0xf0 build/default/production/_ext/1144052859/tcp.o

.text.TCPIP_ARP_IsResolved
                0x9d018e74       0xec
 .text.TCPIP_ARP_IsResolved
                0x9d018e74       0xec build/default/production/_ext/1144052859/arp.o
                0x9d018e74                TCPIP_ARP_IsResolved

.text.CommandPingHandler
                0x9d018f60       0xec
 .text.CommandPingHandler
                0x9d018f60       0xec build/default/production/_ext/1144052859/tcpip_commands.o

.text.TCPIP_Helper_PacketCopy
                0x9d01904c       0xec
 .text.TCPIP_Helper_PacketCopy
                0x9d01904c       0xec build/default/production/_ext/1144052859/tcpip_helpers.o
                0x9d01904c                TCPIP_Helper_PacketCopy

.text.TCPIP_OAHASH_EntryLookup
                0x9d019138       0xe8
 .text.TCPIP_OAHASH_EntryLookup
                0x9d019138       0xe8 build/default/production/_ext/1144052859/oahash.o
                0x9d019138                TCPIP_OAHASH_EntryLookup

.rodata         0x9d019220       0xe8
 .rodata        0x9d019220       0xe8 c:/program files (x86)/microchip/xc32/v1.33/bin/bin/../../lib/gcc/pic32mx/4.5.2/../../../../pic32mx/lib\libc.a(doprnt.o)

.text._DRV_TMR_Suspend
                0x9d019308       0xe4
 .text._DRV_TMR_Suspend
                0x9d019308       0xe4 build/default/production/_ext/304478105/drv_tmr.o

.text.TCPIP_DHCP_ConnectionHandler
                0x9d0193ec       0xe4
 .text.TCPIP_DHCP_ConnectionHandler
                0x9d0193ec       0xe4 build/default/production/_ext/1144052859/dhcp.o
                0x9d0193ec                TCPIP_DHCP_ConnectionHandler

.text._DRV_ETHPHY_SetupPhaseNegotiate_SubPhase0
                0x9d0194d0       0xe0
 .text._DRV_ETHPHY_SetupPhaseNegotiate_SubPhase0
                0x9d0194d0       0xe0 build/default/production/_ext/810051186/drv_ethphy.o

.text._DRV_ETHPHY_NegCompletePhaseAN_Restart
                0x9d0195b0       0xe0
 .text._DRV_ETHPHY_NegCompletePhaseAN_Restart
                0x9d0195b0       0xe0 build/default/production/_ext/810051186/drv_ethphy.o

.text.TCPIP_DNS_Disable
                0x9d019690       0xe0
 .text.TCPIP_DNS_Disable
                0x9d019690       0xe0 build/default/production/_ext/1144052859/dns.o
                0x9d019690                TCPIP_DNS_Disable

.text.TCPIP_STACK_NetUp
                0x9d019770       0xe0
 .text.TCPIP_STACK_NetUp
                0x9d019770       0xe0 build/default/production/_ext/1144052859/tcpip_manager.o
                0x9d019770                TCPIP_STACK_NetUp

.text._SYS_TMR_ClientCheckSrvLock
                0x9d019850       0xdc
 .text._SYS_TMR_ClientCheckSrvLock
                0x9d019850       0xdc build/default/production/_ext/2097170832/sys_tmr.o

.text._TcpCloseSocket
                0x9d01992c       0xdc
 .text._TcpCloseSocket
                0x9d01992c       0xdc build/default/production/_ext/1144052859/tcp.o

.text._Command_BIOSNameSet
                0x9d019a08       0xdc
 .text._Command_BIOSNameSet
                0x9d019a08       0xdc build/default/production/_ext/1144052859/tcpip_commands.o

.text._Command_DefaultInterfaceSet
                0x9d019ae4       0xdc
 .text._Command_DefaultInterfaceSet
                0x9d019ae4       0xdc build/default/production/_ext/1144052859/tcpip_commands.o

.text.TCPIP_STACK_BringNetDown
                0x9d019bc0       0xdc
 .text.TCPIP_STACK_BringNetDown
                0x9d019bc0       0xdc build/default/production/_ext/1144052859/tcpip_manager.o

.text._TCPIP_PKT_PacketAlloc
                0x9d019c9c       0xdc
 .text._TCPIP_PKT_PacketAlloc
                0x9d019c9c       0xdc build/default/production/_ext/1144052859/tcpip_packet.o
                0x9d019c9c                _TCPIP_PKT_PacketAlloc

.text.general_exception
                0x9d019d78       0xdc
 .text.general_exception
                0x9d019d78       0xdc c:/program files (x86)/microchip/xc32/v1.33/bin/bin/../../lib/gcc/pic32mx/4.5.2/../../../../pic32mx/lib\libpic32.a(general-exception.o)
                0x9d019d78                _general_exception_context

.text._DNSNotifyClients
                0x9d019e54       0xd8
 .text._DNSNotifyClients
                0x9d019e54       0xd8 build/default/production/_ext/1144052859/dns.o

.text._DRV_ETHPHY_ResetPhaseRead
                0x9d019f2c       0xd4
 .text._DRV_ETHPHY_ResetPhaseRead
                0x9d019f2c       0xd4 build/default/production/_ext/810051186/drv_ethphy.o

.text.SYS_TMR_Initialize
                0x9d01a000       0xd4
 .text.SYS_TMR_Initialize
                0x9d01a000       0xd4 build/default/production/_ext/2097170832/sys_tmr.o
                0x9d01a000                SYS_TMR_Initialize

.text.TCPIP_DNS_SelectDNSIntf
                0x9d01a0d4       0xd4
 .text.TCPIP_DNS_SelectDNSIntf
                0x9d01a0d4       0xd4 build/default/production/_ext/1144052859/dns.o

.text._general_exception_handler
                0x9d01a1a8       0xd4
 .text._general_exception_handler
                0x9d01a1a8       0xd4 build/default/production/_ext/1829665213/system_debug.o
                0x9d01a1a8                _general_exception_handler

.text.USART_INIT
                0x9d01a27c       0xd4
 .text.USART_INIT
                0x9d01a27c       0xd4 build/default/production/_ext/918699391/usart.o
                0x9d01a27c                USART_INIT

.text           0x9d01a350       0xd4
 .text          0x9d01a350       0xd4 c:/program files (x86)/microchip/xc32/v1.33/bin/bin/../../lib/gcc/pic32mx/4.5.2\libgcc.a(_floatundisf.o)
                0x9d01a350                __floatundisf

.text._EthTxSchedList
                0x9d01a424       0xd0
 .text._EthTxSchedList
                0x9d01a424       0xd0 build/default/production/_ext/1986204992/drv_ethmac_lib.o

.text._ARPUpdateEntry
                0x9d01a4f4       0xd0
 .text._ARPUpdateEntry
                0x9d01a4f4       0xd0 build/default/production/_ext/1144052859/arp.o

.text.TCPIP_DNS_ActiveDNSServerIntfSet
                0x9d01a5c4       0xd0
 .text.TCPIP_DNS_ActiveDNSServerIntfSet
                0x9d01a5c4       0xd0 build/default/production/_ext/1144052859/dns.o

.text.SYS_CMD_DELETE
                0x9d01a694       0xd0
 .text.SYS_CMD_DELETE
                0x9d01a694       0xd0 build/default/production/_ext/1829665213/system_command.o
                0x9d01a694                SYS_CMD_DELETE

.text.PLIB_ETH_MACSetAddress
                0x9d01a764       0xd0
 .text.PLIB_ETH_MACSetAddress
                0x9d01a764       0xd0 ..\..\..\..\..\..\..\..\microchip\harmony\v1_02\bin\framework\peripheral\PIC32MX795F512L_peripherals.a(plib_eth_lib.o)
                0x9d01a764                PLIB_ETH_MACSetAddress

.rodata         0x9d01a838       0xd0
 .rodata        0x9d01a838       0xd0 c:/program files (x86)/microchip/xc32/v1.33/bin/bin/../../lib/gcc/pic32mx/4.5.2/../../../../pic32mx/lib\libc.a(doprnt_cdnopsuxX.eo)

.text.DRV_ETHPHY_SMIClockSet
                0x9d01a908       0xcc
 .text.DRV_ETHPHY_SMIClockSet
                0x9d01a908       0xcc build/default/production/_ext/810051186/drv_ethphy.o
                0x9d01a908                DRV_ETHPHY_SMIClockSet

.text._UDPsetPacketInfo
                0x9d01a9d4       0xcc
 .text._UDPsetPacketInfo
                0x9d01a9d4       0xcc build/default/production/_ext/1144052859/udp.o

.text.TCPIP_ARP_CacheEntriesNoGet
                0x9d01aaa0       0xcc
 .text.TCPIP_ARP_CacheEntriesNoGet
                0x9d01aaa0       0xcc build/default/production/_ext/1144052859/arp.o
                0x9d01aaa0                TCPIP_ARP_CacheEntriesNoGet

.text.TCPIP_DNS_GetIPv6Address
                0x9d01ab6c       0xcc
 .text.TCPIP_DNS_GetIPv6Address
                0x9d01ab6c       0xcc build/default/production/_ext/1144052859/dns.o
                0x9d01ab6c                TCPIP_DNS_GetIPv6Address

.text._TCPIP_StackSyncFunction
                0x9d01ac38       0xcc
 .text._TCPIP_StackSyncFunction
                0x9d01ac38       0xcc build/default/production/_ext/1144052859/tcpip_manager.o

.text.GenerateSeed
                0x9d01ad04       0xc8
 .text.GenerateSeed
                0x9d01ad04       0xc8 build/default/production/_ext/595770632/random.o
                0x9d01ad04                GenerateSeed

.text.TCPIP_DNS_Resolve
                0x9d01adcc       0xc8
 .text.TCPIP_DNS_Resolve
                0x9d01adcc       0xc8 build/default/production/_ext/1144052859/dns.o
                0x9d01adcc                TCPIP_DNS_Resolve

.text.TCPIP_NBNS_Initialize
                0x9d01ae94       0xc8
 .text.TCPIP_NBNS_Initialize
                0x9d01ae94       0xc8 build/default/production/_ext/1144052859/nbns.o
                0x9d01ae94                TCPIP_NBNS_Initialize

.text.TCPIP_OAHASH_EntryLookupOrInsert
                0x9d01af5c       0xc8
 .text.TCPIP_OAHASH_EntryLookupOrInsert
                0x9d01af5c       0xc8 build/default/production/_ext/1144052859/oahash.o
                0x9d01af5c                TCPIP_OAHASH_EntryLookupOrInsert

.text._NetConfigStringToBuffer
                0x9d01b024       0xc8
 .text._NetConfigStringToBuffer
                0x9d01b024       0xc8 build/default/production/_ext/1144052859/tcpip_manager.o

.text.TCPIP_STACK_AddressServiceEvent
                0x9d01b0ec       0xc8
 .text.TCPIP_STACK_AddressServiceEvent
                0x9d01b0ec       0xc8 build/default/production/_ext/1144052859/tcpip_manager.o
                0x9d01b0ec                TCPIP_STACK_AddressServiceEvent

.text._UDPv4TxAckFnc
                0x9d01b1b4       0xc4
 .text._UDPv4TxAckFnc
                0x9d01b1b4       0xc4 build/default/production/_ext/1144052859/udp.o

.text._DHCPEnable
                0x9d01b278       0xc4
 .text._DHCPEnable
                0x9d01b278       0xc4 build/default/production/_ext/1144052859/dhcp.o

.text._sbrk     0x9d01b33c       0xc4
 .text._sbrk    0x9d01b33c       0xc4 c:/program files (x86)/microchip/xc32/v1.33/bin/bin/../../lib/gcc/pic32mx/4.5.2/../../../../pic32mx/lib\libpic32.a(sbrk.o)
                0x9d01b33c                _sbrk

.text.TCPIP_UDP_RemoteBind
                0x9d01b400       0xc0
 .text.TCPIP_UDP_RemoteBind
                0x9d01b400       0xc0 build/default/production/_ext/1144052859/udp.o
                0x9d01b400                TCPIP_UDP_RemoteBind

.text._DNS_RemoveHashAll
                0x9d01b4c0       0xc0
 .text._DNS_RemoveHashAll
                0x9d01b4c0       0xc0 build/default/production/_ext/1144052859/dns.o

.rodata         0x9d01b580       0xbc
 .rodata        0x9d01b580       0xbc build/default/production/_ext/810051186/drv_ethphy.o

.text.DRV_TMR_Tasks_ISR
                0x9d01b63c       0xbc
 .text.DRV_TMR_Tasks_ISR
                0x9d01b63c       0xbc build/default/production/_ext/304478105/drv_tmr.o
                0x9d01b63c                DRV_TMR_Tasks_ISR

.text.TCPIP_UDP_ArrayPut
                0x9d01b6f8       0xbc
 .text.TCPIP_UDP_ArrayPut
                0x9d01b6f8       0xbc build/default/production/_ext/1144052859/udp.o
                0x9d01b6f8                TCPIP_UDP_ArrayPut

.text.DRV_ETHMAC_PIC32MACStatisticsGet
                0x9d01b7b4       0xb8
 .text.DRV_ETHMAC_PIC32MACStatisticsGet
                0x9d01b7b4       0xb8 build/default/production/_ext/1986204992/drv_ethmac.o
                0x9d01b7b4                DRV_ETHMAC_PIC32MACStatisticsGet

.text.TCPIP_STACK_NetDown
                0x9d01b86c       0xb8
 .text.TCPIP_STACK_NetDown
                0x9d01b86c       0xb8 build/default/production/_ext/1144052859/tcpip_manager.o
                0x9d01b86c                TCPIP_STACK_NetDown

.text.DRV_ETHMAC_PIC32MACEventAcknowledge
                0x9d01b924       0xb4
 .text.DRV_ETHMAC_PIC32MACEventAcknowledge
                0x9d01b924       0xb4 build/default/production/_ext/1986204992/drv_ethmac.o
                0x9d01b924                DRV_ETHMAC_PIC32MACEventAcknowledge

.text._MacTxPendingPackets
                0x9d01b9d8       0xb4
 .text._MacTxPendingPackets
                0x9d01b9d8       0xb4 build/default/production/_ext/1986204992/drv_ethmac.o

.text._DRV_ETHMAC_LinkStateNegResult
                0x9d01ba8c       0xb4
 .text._DRV_ETHMAC_LinkStateNegResult
                0x9d01ba8c       0xb4 build/default/production/_ext/1986204992/drv_ethmac.o

.text._DRV_ETHPHY_NegCompletePhaseRead2
                0x9d01bb40       0xb4
 .text._DRV_ETHPHY_NegCompletePhaseRead2
                0x9d01bb40       0xb4 build/default/production/_ext/810051186/drv_ethphy.o

.text.TCPIP_UDP_BcastIPV4AddressSet
                0x9d01bbf4       0xb4
 .text.TCPIP_UDP_BcastIPV4AddressSet
                0x9d01bbf4       0xb4 build/default/production/_ext/1144052859/udp.o
                0x9d01bbf4                TCPIP_UDP_BcastIPV4AddressSet

.text._ARPNotifyClients
                0x9d01bca8       0xb4
 .text._ARPNotifyClients
                0x9d01bca8       0xb4 build/default/production/_ext/1144052859/arp.o

.text._mon_putc
                0x9d01bd5c       0xb4
 .text._mon_putc
                0x9d01bd5c       0xb4 c:/program files (x86)/microchip/xc32/v1.33/bin/bin/../../lib/gcc/pic32mx/4.5.2/../../../../pic32mx/lib\libpic32.a(_mon_putc.o)
                0x9d01bd5c                _mon_putc

.text._DHCPClose
                0x9d01be10       0xb0
 .text._DHCPClose
                0x9d01be10       0xb0 build/default/production/_ext/1144052859/dhcp.o

.text.TCPIP_ZCLL_Initialize
                0x9d01bec0       0xb0
 .text.TCPIP_ZCLL_Initialize
                0x9d01bec0       0xb0 build/default/production/_ext/1144052859/zero_conf_link_local.o
                0x9d01bec0                TCPIP_ZCLL_Initialize

.text.TCPIP_IPV4_PacketFormatTx
                0x9d01bf70       0xb0
 .text.TCPIP_IPV4_PacketFormatTx
                0x9d01bf70       0xb0 build/default/production/_ext/1144052859/ipv4.o
                0x9d01bf70                TCPIP_IPV4_PacketFormatTx

.text._DRV_ETHPHY_NegResultPhase_BMSTAT
                0x9d01c020       0xac
 .text._DRV_ETHPHY_NegResultPhase_BMSTAT
                0x9d01c020       0xac build/default/production/_ext/810051186/drv_ethphy.o

.text.TCPIP_TCP_Deinitialize
                0x9d01c0cc       0xac
 .text.TCPIP_TCP_Deinitialize
                0x9d01c0cc       0xac build/default/production/_ext/1144052859/tcp.o
                0x9d01c0cc                TCPIP_TCP_Deinitialize

.text.TCPIP_PKT_DataSegmentGet
                0x9d01c178       0xac
 .text.TCPIP_PKT_DataSegmentGet
                0x9d01c178       0xac build/default/production/_ext/1144052859/tcpip_packet.o
                0x9d01c178                TCPIP_PKT_DataSegmentGet

.text.DRV_ETHMAC_PIC32MACRegisterStatisticsGet
                0x9d01c224       0xa8
 .text.DRV_ETHMAC_PIC32MACRegisterStatisticsGet
                0x9d01c224       0xa8 build/default/production/_ext/1986204992/drv_ethmac.o
                0x9d01c224                DRV_ETHMAC_PIC32MACRegisterStatisticsGet

.text._EthTxSchedBuffer
                0x9d01c2cc       0xa8
 .text._EthTxSchedBuffer
                0x9d01c2cc       0xa8 build/default/production/_ext/1986204992/drv_ethmac_lib.o

.text.TCPIP_STACK_NetConfigGet
                0x9d01c374       0xa8
 .text.TCPIP_STACK_NetConfigGet
                0x9d01c374       0xa8 build/default/production/_ext/1144052859/tcpip_manager.o
                0x9d01c374                TCPIP_STACK_NetConfigGet

.text.TCPIP_IPV4_ListPurge
                0x9d01c41c       0xa8
 .text.TCPIP_IPV4_ListPurge
                0x9d01c41c       0xa8 build/default/production/_ext/1144052859/ipv4.o

.text           0x9d01c4c4       0xa8
 .text          0x9d01c4c4       0xa8 c:/program files (x86)/microchip/xc32/v1.33/bin/bin/../../lib/gcc/pic32mx/4.5.2/../../../../pic32mx/lib\libpic32.a(memset.o)
                0x9d01c4c4                memset

.text.atoi      0x9d01c56c       0xa8
 .text.atoi     0x9d01c56c       0xa8 c:/program files (x86)/microchip/xc32/v1.33/bin/bin/../../lib/gcc/pic32mx/4.5.2/../../../../pic32mx/lib\libc.a(atoi.o)
                0x9d01c56c                atoi

.text._DRV_ETHMAC_LinkStateWaitLinkUp
                0x9d01c614       0xa4
 .text._DRV_ETHMAC_LinkStateWaitLinkUp
                0x9d01c614       0xa4 build/default/production/_ext/1986204992/drv_ethmac.o

.text._DRV_ETHPHY_ResetPhaseWrite
                0x9d01c6b8       0xa4
 .text._DRV_ETHPHY_ResetPhaseWrite
                0x9d01c6b8       0xa4 build/default/production/_ext/810051186/drv_ethphy.o

.text.TCPIP_DNS_GetIPv4Address
                0x9d01c75c       0xa4
 .text.TCPIP_DNS_GetIPv4Address
                0x9d01c75c       0xa4 build/default/production/_ext/1144052859/dns.o
                0x9d01c75c                TCPIP_DNS_GetIPv4Address

.text.TCPIP_HEAP_Create
                0x9d01c800       0xa4
 .text.TCPIP_HEAP_Create
                0x9d01c800       0xa4 build/default/production/_ext/1144052859/tcpip_heap_alloc.o
                0x9d01c800                TCPIP_HEAP_Create

.text._DRV_ETHPHY_LinkStatPhaseRead
                0x9d01c8a4       0xa0
 .text._DRV_ETHPHY_LinkStatPhaseRead
                0x9d01c8a4       0xa0 build/default/production/_ext/810051186/drv_ethphy.o

.text._DHCPOpenSocket
                0x9d01c944       0xa0
 .text._DHCPOpenSocket
                0x9d01c944       0xa0 build/default/production/_ext/1144052859/dhcp.o

.text.TCPIP_DNS_ClientDeinitialize
                0x9d01c9e4       0xa0
 .text.TCPIP_DNS_ClientDeinitialize
                0x9d01c9e4       0xa0 build/default/production/_ext/1144052859/dns.o
                0x9d01c9e4                TCPIP_DNS_ClientDeinitialize

.text._TCPIP_PKT_PacketFree
                0x9d01ca84       0xa0
 .text._TCPIP_PKT_PacketFree
                0x9d01ca84       0xa0 build/default/production/_ext/1144052859/tcpip_packet.o
                0x9d01ca84                _TCPIP_PKT_PacketFree

.text.TCPIP_IPV4_DeInitialize
                0x9d01cb24       0xa0
 .text.TCPIP_IPV4_DeInitialize
                0x9d01cb24       0xa0 build/default/production/_ext/1144052859/ipv4.o
                0x9d01cb24                TCPIP_IPV4_DeInitialize

.text.TCPIP_UDP_PutIsReady
                0x9d01cbc4       0x9c
 .text.TCPIP_UDP_PutIsReady
                0x9d01cbc4       0x9c build/default/production/_ext/1144052859/udp.o
                0x9d01cbc4                TCPIP_UDP_PutIsReady

.text._DHCPPacketFilter
                0x9d01cc60       0x9c
 .text._DHCPPacketFilter
                0x9d01cc60       0x9c build/default/production/_ext/1144052859/dhcp.o

.text._TCPIPStackAsyncHandlerRegister
                0x9d01ccfc       0x9c
 .text._TCPIPStackAsyncHandlerRegister
                0x9d01ccfc       0x9c build/default/production/_ext/1144052859/tcpip_manager.o
                0x9d01ccfc                _TCPIPStackAsyncHandlerRegister

.text.TCPIP_PKT_PacketMACFormat
                0x9d01cd98       0x9c
 .text.TCPIP_PKT_PacketMACFormat
                0x9d01cd98       0x9c build/default/production/_ext/1144052859/tcpip_packet.o
                0x9d01cd98                TCPIP_PKT_PacketMACFormat

.text.fpcmp     0x9d01ce34       0x9c
 .text.fpcmp    0x9d01ce34       0x9c c:/program files (x86)/microchip/xc32/v1.33/bin/bin/../../lib/gcc/pic32mx/4.5.2/../../../../pic32mx/lib\libm.a(fpcmp.o)
                0x9d01ce34                __eqsf2
                0x9d01ce34                __lesf2
                0x9d01ce34                __gtsf2
                0x9d01ce34                __nesf2
                0x9d01ce34                fpcmp
                0x9d01ce34                __gesf2
                0x9d01ce34                __ltsf2

.text.DRV_ETHMAC_LibDescriptorsPoolCleanUp
                0x9d01ced0       0x98
 .text.DRV_ETHMAC_LibDescriptorsPoolCleanUp
                0x9d01ced0       0x98 build/default/production/_ext/1986204992/drv_ethmac_lib.o
                0x9d01ced0                DRV_ETHMAC_LibDescriptorsPoolCleanUp

.text.DRV_ETHPHY_Setup
                0x9d01cf68       0x98
 .text.DRV_ETHPHY_Setup
                0x9d01cf68       0x98 build/default/production/_ext/810051186/drv_ethphy.o
                0x9d01cf68                DRV_ETHPHY_Setup

.text.TCPIP_UDP_DestinationIPAddressSet
                0x9d01d000       0x98
 .text.TCPIP_UDP_DestinationIPAddressSet
                0x9d01d000       0x98 build/default/production/_ext/1144052859/udp.o
                0x9d01d000                TCPIP_UDP_DestinationIPAddressSet

.text.TCPIP_ARP_Probe
                0x9d01d098       0x98
 .text.TCPIP_ARP_Probe
                0x9d01d098       0x98 build/default/production/_ext/1144052859/arp.o
                0x9d01d098                TCPIP_ARP_Probe

.text.TCPIP_Helper_SingleListNodeRemove
                0x9d01d130       0x98
 .text.TCPIP_Helper_SingleListNodeRemove
                0x9d01d130       0x98 build/default/production/_ext/1144052859/tcpip_helpers.o
                0x9d01d130                TCPIP_Helper_SingleListNodeRemove

.text           0x9d01d1c8       0x98
 .text          0x9d01d1c8       0x98 c:/program files (x86)/microchip/xc32/v1.33/bin/bin/../../lib/gcc/pic32mx/4.5.2/../../../../pic32mx/lib\libpic32.a(memcmp.o)
                0x9d01d1c8                memcmp

.text.rand      0x9d01d260       0x98
 .text.rand     0x9d01d260       0x98 c:/program files (x86)/microchip/xc32/v1.33/bin/bin/../../lib/gcc/pic32mx/4.5.2/../../../../pic32mx/lib\libc.a(rand.o)
                0x9d01d260                rand

.text._DRV_ETHPHY_SetupPhaseNegotiate_SubPhase6
                0x9d01d2f8       0x94
 .text._DRV_ETHPHY_SetupPhaseNegotiate_SubPhase6
                0x9d01d2f8       0x94 build/default/production/_ext/810051186/drv_ethphy.o

.text._TcpCleanup
                0x9d01d38c       0x94
 .text._TcpCleanup
                0x9d01d38c       0x94 build/default/production/_ext/1144052859/tcp.o

.text.TCPIP_UDP_TxOffsetSet
                0x9d01d420       0x94
 .text.TCPIP_UDP_TxOffsetSet
                0x9d01d420       0x94 build/default/production/_ext/1144052859/udp.o
                0x9d01d420                TCPIP_UDP_TxOffsetSet

.text.write     0x9d01d4b4       0x94
 .text.write    0x9d01d4b4       0x94 c:/program files (x86)/microchip/xc32/v1.33/bin/bin/../../lib/gcc/pic32mx/4.5.2/../../../../pic32mx/lib\libpic32.a(write.o)
                0x9d01d4b4                write

.text.TCPIP_UDP_SocketInfoGet
                0x9d01d548       0x90
 .text.TCPIP_UDP_SocketInfoGet
                0x9d01d548       0x90 build/default/production/_ext/1144052859/udp.o
                0x9d01d548                TCPIP_UDP_SocketInfoGet

.text.TCPIP_ARP_EntryRemove
                0x9d01d5d8       0x90
 .text.TCPIP_ARP_EntryRemove
                0x9d01d5d8       0x90 build/default/production/_ext/1144052859/arp.o
                0x9d01d5d8                TCPIP_ARP_EntryRemove

.text.TCPIP_DNS_OAHASH_KeyCopy
                0x9d01d668       0x90
 .text.TCPIP_DNS_OAHASH_KeyCopy
                0x9d01d668       0x90 build/default/production/_ext/1144052859/dns.o

.text.TCPIP_DNS_RemoveAll
                0x9d01d6f8       0x90
 .text.TCPIP_DNS_RemoveAll
                0x9d01d6f8       0x90 build/default/production/_ext/1144052859/dns.o
                0x9d01d6f8                TCPIP_DNS_RemoveAll

.text.SYS_CMDIO_ADD
                0x9d01d788       0x90
 .text.SYS_CMDIO_ADD
                0x9d01d788       0x90 build/default/production/_ext/1829665213/system_command.o
                0x9d01d788                SYS_CMDIO_ADD

.text.DRV_ETHPHY_VendorSMIWriteStart
                0x9d01d818       0x8c
 .text.DRV_ETHPHY_VendorSMIWriteStart
                0x9d01d818       0x8c build/default/production/_ext/810051186/drv_ethphy.o
                0x9d01d818                DRV_ETHPHY_VendorSMIWriteStart

.text._DHCPNotifyClients
                0x9d01d8a4       0x8c
 .text._DHCPNotifyClients
                0x9d01d8a4       0x8c build/default/production/_ext/1144052859/dhcp.o

.text._DNSHashEntryFromTransactionId
                0x9d01d930       0x8c
 .text._DNSHashEntryFromTransactionId
                0x9d01d930       0x8c build/default/production/_ext/1144052859/dns.o
                0x9d01d930                _DNSHashEntryFromTransactionId

.text.TCPIP_Commands_Deinitialize
                0x9d01d9bc       0x8c
 .text.TCPIP_Commands_Deinitialize
                0x9d01d9bc       0x8c build/default/production/_ext/1144052859/tcpip_commands.o
                0x9d01d9bc                TCPIP_Commands_Deinitialize

.text.hexatob   0x9d01da48       0x8c
 .text.hexatob  0x9d01da48       0x8c build/default/production/_ext/1997815295/helpers.o
                0x9d01da48                hexatob

.text.TCPIP_Helper_IPAddressToString
                0x9d01dad4       0x8c
 .text.TCPIP_Helper_IPAddressToString
                0x9d01dad4       0x8c build/default/production/_ext/1144052859/tcpip_helpers.o
                0x9d01dad4                TCPIP_Helper_IPAddressToString

.text.DRV_ETHMAC_PIC32MACProcess
                0x9d01db60       0x88
 .text.DRV_ETHMAC_PIC32MACProcess
                0x9d01db60       0x88 build/default/production/_ext/1986204992/drv_ethmac.o
                0x9d01db60                DRV_ETHMAC_PIC32MACProcess

.text._DRV_ETHMAC_LinkStateGetLink
                0x9d01dbe8       0x88
 .text._DRV_ETHMAC_LinkStateGetLink
                0x9d01dbe8       0x88 build/default/production/_ext/1986204992/drv_ethmac.o

.text.DRV_ETHPHY_VendorSMIReadStart
                0x9d01dc70       0x88
 .text.DRV_ETHPHY_VendorSMIReadStart
                0x9d01dc70       0x88 build/default/production/_ext/810051186/drv_ethphy.o
                0x9d01dc70                DRV_ETHPHY_VendorSMIReadStart

.text._UDPAllocateEphemeralPort
                0x9d01dcf8       0x88
 .text._UDPAllocateEphemeralPort
                0x9d01dcf8       0x88 build/default/production/_ext/1144052859/udp.o

.text.TCPIP_ARP_EntryGet
                0x9d01dd80       0x88
 .text.TCPIP_ARP_EntryGet
                0x9d01dd80       0x88 build/default/production/_ext/1144052859/arp.o
                0x9d01dd80                TCPIP_ARP_EntryGet

.text._DNS_UpdateExpiredHashEntry_Notify
                0x9d01de08       0x88
 .text._DNS_UpdateExpiredHashEntry_Notify
                0x9d01de08       0x88 build/default/production/_ext/1144052859/dns.o

.text.TCPIP_DNS_GetNumberOfIPAddresses
                0x9d01de90       0x88
 .text.TCPIP_DNS_GetNumberOfIPAddresses
                0x9d01de90       0x88 build/default/production/_ext/1144052859/dns.o
                0x9d01de90                TCPIP_DNS_GetNumberOfIPAddresses

.text.TCPIP_DNS_ValidateIf
                0x9d01df18       0x88
 .text.TCPIP_DNS_ValidateIf
                0x9d01df18       0x88 build/default/production/_ext/1144052859/dns.o

.text.zgzc_wait_for
                0x9d01dfa0       0x88
 .text.zgzc_wait_for
                0x9d01dfa0       0x88 build/default/production/_ext/1144052859/zero_conf_helper.o
                0x9d01dfa0                zgzc_wait_for

.text.TCPIP_Helper_FormatNetBIOSName
                0x9d01e028       0x88
 .text.TCPIP_Helper_FormatNetBIOSName
                0x9d01e028       0x88 build/default/production/_ext/1144052859/tcpip_helpers.o
                0x9d01e028                TCPIP_Helper_FormatNetBIOSName

.text.TCPIP_Helper_ProtectedSingleListRemoveAll
                0x9d01e0b0       0x88
 .text.TCPIP_Helper_ProtectedSingleListRemoveAll
                0x9d01e0b0       0x88 build/default/production/_ext/1144052859/tcpip_helpers.o
                0x9d01e0b0                TCPIP_Helper_ProtectedSingleListRemoveAll

.text.libm      0x9d01e138       0x88
 .text.libm     0x9d01e138       0x88 c:/program files (x86)/microchip/xc32/v1.33/bin/bin/../../lib/gcc/pic32mx/4.5.2/../../../../pic32mx/lib\libm.a(fpfrexp.o)
                0x9d01e138                frexpf
                0x9d01e138                fpfrexp

.text.DRV_ETHPHY_Open
                0x9d01e1c0       0x84
 .text.DRV_ETHPHY_Open
                0x9d01e1c0       0x84 build/default/production/_ext/810051186/drv_ethphy.o
                0x9d01e1c0                DRV_ETHPHY_Open

.text.SYS_RANDOM_Initialize
                0x9d01e244       0x84
 .text.SYS_RANDOM_Initialize
                0x9d01e244       0x84 build/default/production/_ext/323145514/sys_random.o
                0x9d01e244                SYS_RANDOM_Initialize

.text._TCPIP_AnnounceCleanup
                0x9d01e2c8       0x84
 .text._TCPIP_AnnounceCleanup
                0x9d01e2c8       0x84 build/default/production/_ext/1144052859/tcpip_announce.o

.text.TCPIP_STACK_NetHandleGet
                0x9d01e34c       0x84
 .text.TCPIP_STACK_NetHandleGet
                0x9d01e34c       0x84 build/default/production/_ext/1144052859/tcpip_manager.o
                0x9d01e34c                TCPIP_STACK_NetHandleGet

.text.TCPIP_STACK_IPAddressIsLocalNetwork
                0x9d01e3d0       0x84
 .text.TCPIP_STACK_IPAddressIsLocalNetwork
                0x9d01e3d0       0x84 build/default/production/_ext/1144052859/tcpip_manager.o
                0x9d01e3d0                TCPIP_STACK_IPAddressIsLocalNetwork

.text.TCPIP_PKT_Initialize
                0x9d01e454       0x84
 .text.TCPIP_PKT_Initialize
                0x9d01e454       0x84 build/default/production/_ext/1144052859/tcpip_packet.o
                0x9d01e454                TCPIP_PKT_Initialize

.text._DRV_ETHPHY_NegCompletePhaseAN_Complete
                0x9d01e4d8       0x80
 .text._DRV_ETHPHY_NegCompletePhaseAN_Complete
                0x9d01e4d8       0x80 build/default/production/_ext/810051186/drv_ethphy.o

.text.DRV_ETHPHY_VendorSMIReadResultGet
                0x9d01e558       0x80
 .text.DRV_ETHPHY_VendorSMIReadResultGet
                0x9d01e558       0x80 build/default/production/_ext/810051186/drv_ethphy.o
                0x9d01e558                DRV_ETHPHY_VendorSMIReadResultGet

.text._Tcpv4TxAckFnc
                0x9d01e5d8       0x80
 .text._Tcpv4TxAckFnc
                0x9d01e5d8       0x80 build/default/production/_ext/1144052859/tcp.o

.text._TcpAbort
                0x9d01e658       0x80
 .text._TcpAbort
                0x9d01e658       0x80 build/default/production/_ext/1144052859/tcp.o

.text.DNS_DhcpNotify
                0x9d01e6d8       0x80
 .text.DNS_DhcpNotify
                0x9d01e6d8       0x80 build/default/production/_ext/1144052859/dns.o

.text._TCPIPStackIpAddFromAnyNet
                0x9d01e758       0x80
 .text._TCPIPStackIpAddFromAnyNet
                0x9d01e758       0x80 build/default/production/_ext/1144052859/tcpip_manager.o
                0x9d01e758                _TCPIPStackIpAddFromAnyNet

.text.Arc4SetKey
                0x9d01e7d8       0x7c
 .text.Arc4SetKey
                0x9d01e7d8       0x7c build/default/production/_ext/595770632/arc4.o
                0x9d01e7d8                Arc4SetKey

.text._UDPFreeTxResources
                0x9d01e854       0x7c
 .text._UDPFreeTxResources
                0x9d01e854       0x7c build/default/production/_ext/1144052859/udp.o

.text.TCPIP_ARP_Deinitialize
                0x9d01e8d0       0x7c
 .text.TCPIP_ARP_Deinitialize
                0x9d01e8d0       0x7c build/default/production/_ext/1144052859/arp.o
                0x9d01e8d0                TCPIP_ARP_Deinitialize

.text.TCPIP_STACK_NetAliasNameGet
                0x9d01e94c       0x7c
 .text.TCPIP_STACK_NetAliasNameGet
                0x9d01e94c       0x7c build/default/production/_ext/1144052859/tcpip_manager.o
                0x9d01e94c                TCPIP_STACK_NetAliasNameGet

.text.USART_GETS
                0x9d01e9c8       0x7c
 .text.USART_GETS
                0x9d01e9c8       0x7c build/default/production/_ext/918699391/usart.o
                0x9d01e9c8                USART_GETS

.text.SYS_CMD_Initialize
                0x9d01ea44       0x7c
 .text.SYS_CMD_Initialize
                0x9d01ea44       0x7c build/default/production/_ext/1829665213/system_command.o
                0x9d01ea44                SYS_CMD_Initialize

.text.PLIB_ETH_MACGetAddress
                0x9d01eac0       0x7c
 .text.PLIB_ETH_MACGetAddress
                0x9d01eac0       0x7c ..\..\..\..\..\..\..\..\microchip\harmony\v1_02\bin\framework\peripheral\PIC32MX795F512L_peripherals.a(plib_eth_lib.o)
                0x9d01eac0                PLIB_ETH_MACGetAddress

.text.fptoul    0x9d01eb3c       0x7c
 .text.fptoul   0x9d01eb3c       0x7c c:/program files (x86)/microchip/xc32/v1.33/bin/bin/../../lib/gcc/pic32mx/4.5.2/../../../../pic32mx/lib\libm.a(fptoul.o)
                0x9d01eb3c                fptoul
                0x9d01eb3c                fptoui
                0x9d01eb3c                __fixunssfsi

.text._DRV_ETHMAC_LinkStateNegComplete
                0x9d01ebb8       0x78
 .text._DRV_ETHMAC_LinkStateNegComplete
                0x9d01ebb8       0x78 build/default/production/_ext/1986204992/drv_ethmac.o

.text._DRV_TMR_ModuleObj
                0x9d01ec30       0x78
 .text._DRV_TMR_ModuleObj
                0x9d01ec30       0x78 build/default/production/_ext/304478105/drv_tmr.o

.text.TCPIP_UDP_Close
                0x9d01eca8       0x78
 .text.TCPIP_UDP_Close
                0x9d01eca8       0x78 build/default/production/_ext/1144052859/udp.o
                0x9d01eca8                TCPIP_UDP_Close

.text.TCPIP_ANNOUNCE_Task
                0x9d01ed20       0x78
 .text.TCPIP_ANNOUNCE_Task
                0x9d01ed20       0x78 build/default/production/_ext/1144052859/tcpip_announce.o
                0x9d01ed20                TCPIP_ANNOUNCE_Task

.rodata         0x9d01ed98       0x78
 .rodata        0x9d01ed98       0x78 build/default/production/_ext/1144052859/tcpip_helpers.o

.text._TCPIPStackAnyNetLinked
                0x9d01ee10       0x78
 .text._TCPIPStackAnyNetLinked
                0x9d01ee10       0x78 build/default/production/_ext/1144052859/tcpip_manager.o
                0x9d01ee10                _TCPIPStackAnyNetLinked

.text._DRV_ETHPHY_SetupPhaseNegotiate_SubPhase1
                0x9d01ee88       0x74
 .text._DRV_ETHPHY_SetupPhaseNegotiate_SubPhase1
                0x9d01ee88       0x74 build/default/production/_ext/810051186/drv_ethphy.o

.text.SYS_DEVCON_SystemUnlock
                0x9d01eefc       0x74
 .text.SYS_DEVCON_SystemUnlock
                0x9d01eefc       0x74 build/default/production/_ext/335806368/sys_devcon.o
                0x9d01eefc                SYS_DEVCON_SystemUnlock

.text._TcpSwapHeader
                0x9d01ef70       0x74
 .text._TcpSwapHeader
                0x9d01ef70       0x74 build/default/production/_ext/1144052859/tcp.o

.text.TCPIP_ARP_HandlerRegister
                0x9d01efe4       0x74
 .text.TCPIP_ARP_HandlerRegister
                0x9d01efe4       0x74 build/default/production/_ext/1144052859/arp.o
                0x9d01efe4                TCPIP_ARP_HandlerRegister

.text.TCPIP_DNS_RemoveEntry
                0x9d01f058       0x74
 .text.TCPIP_DNS_RemoveEntry
                0x9d01f058       0x74 build/default/production/_ext/1144052859/dns.o
                0x9d01f058                TCPIP_DNS_RemoveEntry

.text.TCPIP_Helper_StringToPowerMode
                0x9d01f0cc       0x74
 .text.TCPIP_Helper_StringToPowerMode
                0x9d01f0cc       0x74 build/default/production/_ext/1144052859/tcpip_helpers.o
                0x9d01f0cc                TCPIP_Helper_StringToPowerMode

.text.TCPIP_Helper_ProtectedSingleListTailAdd
                0x9d01f140       0x74
 .text.TCPIP_Helper_ProtectedSingleListTailAdd
                0x9d01f140       0x74 build/default/production/_ext/1144052859/tcpip_helpers.o
                0x9d01f140                TCPIP_Helper_ProtectedSingleListTailAdd

.text.TCPIP_Helper_ProtectedSingleListHeadRemove
                0x9d01f1b4       0x74
 .text.TCPIP_Helper_ProtectedSingleListHeadRemove
                0x9d01f1b4       0x74 build/default/production/_ext/1144052859/tcpip_helpers.o
                0x9d01f1b4                TCPIP_Helper_ProtectedSingleListHeadRemove

.text.TCPIP_Helper_ProtectedSingleListNodeRemove
                0x9d01f228       0x74
 .text.TCPIP_Helper_ProtectedSingleListNodeRemove
                0x9d01f228       0x74 build/default/production/_ext/1144052859/tcpip_helpers.o
                0x9d01f228                TCPIP_Helper_ProtectedSingleListNodeRemove

.text._TCPIP_PKT_SocketAlloc
                0x9d01f29c       0x74
 .text._TCPIP_PKT_SocketAlloc
                0x9d01f29c       0x74 build/default/production/_ext/1144052859/tcpip_packet.o
                0x9d01f29c                _TCPIP_PKT_SocketAlloc

.text._EnetPoolFreeDcptList
                0x9d01f310       0x70
 .text._EnetPoolFreeDcptList
                0x9d01f310       0x70 build/default/production/_ext/1986204992/drv_ethmac_lib.o

.text.TCPIP_UDP_SocketNetSet
                0x9d01f380       0x70
 .text.TCPIP_UDP_SocketNetSet
                0x9d01f380       0x70 build/default/production/_ext/1144052859/udp.o
                0x9d01f380                TCPIP_UDP_SocketNetSet

.text.TCPIP_DHCP_Disable
                0x9d01f3f0       0x70
 .text.TCPIP_DHCP_Disable
                0x9d01f3f0       0x70 build/default/production/_ext/1144052859/dhcp.o
                0x9d01f3f0                TCPIP_DHCP_Disable

.text.TCPIP_DHCP_HandlerRegister
                0x9d01f460       0x70
 .text.TCPIP_DHCP_HandlerRegister
                0x9d01f460       0x70 build/default/production/_ext/1144052859/dhcp.o
                0x9d01f460                TCPIP_DHCP_HandlerRegister

.text.TCPIP_DNS_GetArrayOfDataFromUDPBuff
                0x9d01f4d0       0x70
 .text.TCPIP_DNS_GetArrayOfDataFromUDPBuff
                0x9d01f4d0       0x70 build/default/production/_ext/1144052859/dns.o

.text.TCPIP_DNS_SwitchDNSServerInterface
                0x9d01f540       0x70
 .text.TCPIP_DNS_SwitchDNSServerInterface
                0x9d01f540       0x70 build/default/production/_ext/1144052859/dns.o
                0x9d01f540                TCPIP_DNS_SwitchDNSServerInterface

.text.CommandQuit
                0x9d01f5b0       0x70
 .text.CommandQuit
                0x9d01f5b0       0x70 build/default/production/_ext/1829665213/system_command.o

.text.Arc4Process
                0x9d01f620       0x6c
 .text.Arc4Process
                0x9d01f620       0x6c build/default/production/_ext/595770632/arc4.o
                0x9d01f620                Arc4Process

.text._MacRxFreeCallback
                0x9d01f68c       0x6c
 .text._MacRxFreeCallback
                0x9d01f68c       0x6c build/default/production/_ext/1986204992/drv_ethmac.o

.text._DRV_ETHPHY_SetupPhaseNegotiate_SubPhase5
                0x9d01f6f8       0x6c
 .text._DRV_ETHPHY_SetupPhaseNegotiate_SubPhase5
                0x9d01f6f8       0x6c build/default/production/_ext/810051186/drv_ethphy.o

.text._DRV_ETHPHY_NegRestartPhaseRead
                0x9d01f764       0x6c
 .text._DRV_ETHPHY_NegRestartPhaseRead
                0x9d01f764       0x6c build/default/production/_ext/810051186/drv_ethphy.o

.text._TCP_PayloadSet
                0x9d01f7d0       0x6c
 .text._TCP_PayloadSet
                0x9d01f7d0       0x6c build/default/production/_ext/1144052859/tcp.o

.text._UDPClose
                0x9d01f83c       0x6c
 .text._UDPClose
                0x9d01f83c       0x6c build/default/production/_ext/1144052859/udp.o

.text._ARPSetEntry
                0x9d01f8a8       0x6c
 .text._ARPSetEntry
                0x9d01f8a8       0x6c build/default/production/_ext/1144052859/arp.o

.text.TCPIP_ANNOUNCE_DeInit
                0x9d01f914       0x6c
 .text.TCPIP_ANNOUNCE_DeInit
                0x9d01f914       0x6c build/default/production/_ext/1144052859/tcpip_announce.o
                0x9d01f914                TCPIP_ANNOUNCE_DeInit

.text.TCPIP_STACK_NetBiosNameSet
                0x9d01f980       0x6c
 .text.TCPIP_STACK_NetBiosNameSet
                0x9d01f980       0x6c build/default/production/_ext/1144052859/tcpip_manager.o
                0x9d01f980                TCPIP_STACK_NetBiosNameSet

.text._DRV_ETHPHY_NegCompletePhaseRead1
                0x9d01f9ec       0x68
 .text._DRV_ETHPHY_NegCompletePhaseRead1
                0x9d01f9ec       0x68 build/default/production/_ext/810051186/drv_ethphy.o

.text.DRV_ETHPHY_Initialize
                0x9d01fa54       0x68
 .text.DRV_ETHPHY_Initialize
                0x9d01fa54       0x68 build/default/production/_ext/810051186/drv_ethphy.o
                0x9d01fa54                DRV_ETHPHY_Initialize

.text._TcpAllocateTxPacket
                0x9d01fabc       0x68
 .text._TcpAllocateTxPacket
                0x9d01fabc       0x68 build/default/production/_ext/1144052859/tcp.o

.text.TCPIP_ARP_HashEntryDelete
                0x9d01fb24       0x68
 .text.TCPIP_ARP_HashEntryDelete
                0x9d01fb24       0x68 build/default/production/_ext/1144052859/arp.o
                0x9d01fb24                TCPIP_ARP_HashEntryDelete

.text._ARPRemoveEntry
                0x9d01fb8c       0x68
 .text._ARPRemoveEntry
                0x9d01fb8c       0x68 build/default/production/_ext/1144052859/arp.o

.text.TCPIP_DHCP_IsEnabled
                0x9d01fbf4       0x68
 .text.TCPIP_DHCP_IsEnabled
                0x9d01fbf4       0x68 build/default/production/_ext/1144052859/dhcp.o
                0x9d01fbf4                TCPIP_DHCP_IsEnabled

.text._DNSDiscardName
                0x9d01fc5c       0x68
 .text._DNSDiscardName
                0x9d01fc5c       0x68 build/default/production/_ext/1144052859/dns.o

.text._ZCLLEnable
                0x9d01fcc4       0x68
 .text._ZCLLEnable
                0x9d01fcc4       0x68 build/default/production/_ext/1144052859/zero_conf_link_local.o

.text.TCPIP_ZCLL_Enable
                0x9d01fd2c       0x68
 .text.TCPIP_ZCLL_Enable
                0x9d01fd2c       0x68 build/default/production/_ext/1144052859/zero_conf_link_local.o
                0x9d01fd2c                TCPIP_ZCLL_Enable

.text._PingStop
                0x9d01fd94       0x68
 .text._PingStop
                0x9d01fd94       0x68 build/default/production/_ext/1144052859/tcpip_commands.o

.text.TCPIP_Helper_MACAddressToString
                0x9d01fdfc       0x68
 .text.TCPIP_Helper_MACAddressToString
                0x9d01fdfc       0x68 build/default/production/_ext/1144052859/tcpip_helpers.o
                0x9d01fdfc                TCPIP_Helper_MACAddressToString

.text._TCPIPStackInsertRxPacket
                0x9d01fe64       0x68
 .text._TCPIPStackInsertRxPacket
                0x9d01fe64       0x68 build/default/production/_ext/1144052859/tcpip_manager.o
                0x9d01fe64                _TCPIPStackInsertRxPacket

.text.IPv4RegisterFilter
                0x9d01fecc       0x68
 .text.IPv4RegisterFilter
                0x9d01fecc       0x68 build/default/production/_ext/1144052859/ipv4.o
                0x9d01fecc                IPv4RegisterFilter

.text._sprintf_cdnopsuxX
                0x9d01ff34       0x68
 .text._sprintf_cdnopsuxX
                0x9d01ff34       0x68 c:/program files (x86)/microchip/xc32/v1.33/bin/bin/../../lib/gcc/pic32mx/4.5.2/../../../../pic32mx/lib\libc.a(sprintf_cdnopsuxX.eo)
                0x9d01ff34                _sprintf_cdnopuxX
                0x9d01ff34                _sprintf_cdnopsuxX

.rodata         0x9d01ff9c       0x68
 .rodata        0x9d01ff9c       0x68 c:/program files (x86)/microchip/xc32/v1.33/bin/bin/../../lib/gcc/pic32mx/4.5.2/../../../../pic32mx/lib\libc.a(powersf.o)
                0x9d01ff9c                _powers_f
                0x9d01ffd0                _npowers_f

.text.DRV_ETHMAC_PIC32MACConfigGet
                0x9d020004       0x64
 .text.DRV_ETHMAC_PIC32MACConfigGet
                0x9d020004       0x64 build/default/production/_ext/1986204992/drv_ethmac.o
                0x9d020004                DRV_ETHMAC_PIC32MACConfigGet

.text._DRV_ETHPHY_SetupPhaseNegotiate_SubPhase2
                0x9d020068       0x64
 .text._DRV_ETHPHY_SetupPhaseNegotiate_SubPhase2
                0x9d020068       0x64 build/default/production/_ext/810051186/drv_ethphy.o

.text._DRV_ETHPHY_LinkStatPhaseRefresh
                0x9d0200cc       0x64
 .text._DRV_ETHPHY_LinkStatPhaseRefresh
                0x9d0200cc       0x64 build/default/production/_ext/810051186/drv_ethphy.o

.text.TCPIP_UDP_Put
                0x9d020130       0x64
 .text.TCPIP_UDP_Put
                0x9d020130       0x64 build/default/production/_ext/1144052859/udp.o
                0x9d020130                TCPIP_UDP_Put

.text._DHCPCleanup
                0x9d020194       0x64
 .text._DHCPCleanup
                0x9d020194       0x64 build/default/production/_ext/1144052859/dhcp.o

.text.TCPIP_Helper_ProtectedSingleListDeinitialize
                0x9d0201f8       0x64
 .text.TCPIP_Helper_ProtectedSingleListDeinitialize
                0x9d0201f8       0x64 build/default/production/_ext/1144052859/tcpip_helpers.o
                0x9d0201f8                TCPIP_Helper_ProtectedSingleListDeinitialize

.text._vsnprintf_cdnopsuxX
                0x9d02025c       0x64
 .text._vsnprintf_cdnopsuxX
                0x9d02025c       0x64 c:/program files (x86)/microchip/xc32/v1.33/bin/bin/../../lib/gcc/pic32mx/4.5.2/../../../../pic32mx/lib\libc.a(vsnprintf_cdnopsuxX.eo)
                0x9d02025c                _vsnprintf_cdnopsuxX

.text.vsnprintf
                0x9d0202c0       0x64
 .text.vsnprintf
                0x9d0202c0       0x64 c:/program files (x86)/microchip/xc32/v1.33/bin/bin/../../lib/gcc/pic32mx/4.5.2/../../../../pic32mx/lib\libc.a(vsnprintf.o)
                0x9d0202c0                vsnprintf

.text.InitRng   0x9d020324       0x60
 .text.InitRng  0x9d020324       0x60 build/default/production/_ext/595770632/random.o
                0x9d020324                InitRng

.text._MACTxPacket
                0x9d020384       0x60
 .text._MACTxPacket
                0x9d020384       0x60 build/default/production/_ext/1986204992/drv_ethmac.o

.text.DRV_TMR_Start
                0x9d0203e4       0x60
 .text.DRV_TMR_Start
                0x9d0203e4       0x60 build/default/production/_ext/304478105/drv_tmr.o
                0x9d0203e4                DRV_TMR_Start

.text.SYS_TMR_ObjectDelete
                0x9d020444       0x60
 .text.SYS_TMR_ObjectDelete
                0x9d020444       0x60 build/default/production/_ext/2097170832/sys_tmr.o
                0x9d020444                SYS_TMR_ObjectDelete

.text.TCPIP_UDP_OpenClientSkt
                0x9d0204a4       0x60
 .text.TCPIP_UDP_OpenClientSkt
                0x9d0204a4       0x60 build/default/production/_ext/1144052859/udp.o
                0x9d0204a4                TCPIP_UDP_OpenClientSkt

.text.TCPIP_UDP_GetIsReady
                0x9d020504       0x60
 .text.TCPIP_UDP_GetIsReady
                0x9d020504       0x60 build/default/production/_ext/1144052859/udp.o
                0x9d020504                TCPIP_UDP_GetIsReady

.text.TCPIP_UDP_RxOffsetSet
                0x9d020564       0x60
 .text.TCPIP_UDP_RxOffsetSet
                0x9d020564       0x60 build/default/production/_ext/1144052859/udp.o
                0x9d020564                TCPIP_UDP_RxOffsetSet

.text.TCPIP_ARP_CallbacksRegister
                0x9d0205c4       0x60
 .text.TCPIP_ARP_CallbacksRegister
                0x9d0205c4       0x60 build/default/production/_ext/1144052859/arp.o
                0x9d0205c4                TCPIP_ARP_CallbacksRegister

.text.TCPIP_DHCP_Deinitialize
                0x9d020624       0x60
 .text.TCPIP_DHCP_Deinitialize
                0x9d020624       0x60 build/default/production/_ext/1144052859/dhcp.o
                0x9d020624                TCPIP_DHCP_Deinitialize

.text.TCPIP_ZCLL_Disable
                0x9d020684       0x60
 .text.TCPIP_ZCLL_Disable
                0x9d020684       0x60 build/default/production/_ext/1144052859/zero_conf_link_local.o
                0x9d020684                TCPIP_ZCLL_Disable

.text.fnv_32_hash
                0x9d0206e4       0x60
 .text.fnv_32_hash
                0x9d0206e4       0x60 build/default/production/_ext/1144052859/hash_fnv.o
                0x9d0206e4                fnv_32_hash

.text._SYS_DEBUG_INIT
                0x9d020744       0x60
 .text._SYS_DEBUG_INIT
                0x9d020744       0x60 build/default/production/_ext/1829665213/system_debug.o
                0x9d020744                _SYS_DEBUG_INIT

.text._SYS_CONSOLE_INIT
                0x9d0207a4       0x60
 .text._SYS_CONSOLE_INIT
                0x9d0207a4       0x60 build/default/production/_ext/1829665213/system_debug.o
                0x9d0207a4                _SYS_CONSOLE_INIT

.text.TCPIP_IPV4_Initialize
                0x9d020804       0x60
 .text.TCPIP_IPV4_Initialize
                0x9d020804       0x60 build/default/production/_ext/1144052859/ipv4.o
                0x9d020804                TCPIP_IPV4_Initialize

.text.sitofp    0x9d020864       0x60
 .text.sitofp   0x9d020864       0x60 c:/program files (x86)/microchip/xc32/v1.33/bin/bin/../../lib/gcc/pic32mx/4.5.2/../../../../pic32mx/lib\libm.a(sitofp.o)
                0x9d020864                sitofp
                0x9d020864                litofp
                0x9d020864                __floatsisf

.text.DRV_TMR_Open
                0x9d0208c4       0x5c
 .text.DRV_TMR_Open
                0x9d0208c4       0x5c build/default/production/_ext/304478105/drv_tmr.o
                0x9d0208c4                DRV_TMR_Open

.text._ARPRefreshEntry
                0x9d020920       0x5c
 .text._ARPRefreshEntry
                0x9d020920       0x5c build/default/production/_ext/1144052859/arp.o

.text.calloc    0x9d02097c       0x5c
 .text.calloc   0x9d02097c       0x5c c:/program files (x86)/microchip/xc32/v1.33/bin/bin/../../lib/gcc/pic32mx/4.5.2/../../../../pic32mx/lib\libc.a(calloc.o)
                0x9d02097c                calloc

.text.RNG_GenerateBlock
                0x9d0209d8       0x58
 .text.RNG_GenerateBlock
                0x9d0209d8       0x58 build/default/production/_ext/595770632/random.o
                0x9d0209d8                RNG_GenerateBlock

.text.DRV_ETHMAC_PIC32MACOpen
                0x9d020a30       0x58
 .text.DRV_ETHMAC_PIC32MACOpen
                0x9d020a30       0x58 build/default/production/_ext/1986204992/drv_ethmac.o
                0x9d020a30                DRV_ETHMAC_PIC32MACOpen

.text.DRV_ETHMAC_PIC32MACLinkCheck
                0x9d020a88       0x58
 .text.DRV_ETHMAC_PIC32MACLinkCheck
                0x9d020a88       0x58 build/default/production/_ext/1986204992/drv_ethmac.o
                0x9d020a88                DRV_ETHMAC_PIC32MACLinkCheck

.text.DRV_ETHMAC_PIC32MACParametersGet
                0x9d020ae0       0x58
 .text.DRV_ETHMAC_PIC32MACParametersGet
                0x9d020ae0       0x58 build/default/production/_ext/1986204992/drv_ethmac.o
                0x9d020ae0                DRV_ETHMAC_PIC32MACParametersGet

.text._MacTxDiscardQueues
                0x9d020b38       0x58
 .text._MacTxDiscardQueues
                0x9d020b38       0x58 build/default/production/_ext/1986204992/drv_ethmac.o

.text._TcpSocketKill
                0x9d020b90       0x58
 .text._TcpSocketKill
                0x9d020b90       0x58 build/default/production/_ext/1144052859/tcp.o

.text._Tcpv4AllocateTxPacketIfQueued
                0x9d020be8       0x58
 .text._Tcpv4AllocateTxPacketIfQueued
                0x9d020be8       0x58 build/default/production/_ext/1144052859/tcp.o

.text.TCPIP_ZCLL_Deinitialize
                0x9d020c40       0x58
 .text.TCPIP_ZCLL_Deinitialize
                0x9d020c40       0x58 build/default/production/_ext/1144052859/zero_conf_link_local.o
                0x9d020c40                TCPIP_ZCLL_Deinitialize

.text.TCPIP_OAHASH_EntriesRemoveAll
                0x9d020c98       0x58
 .text.TCPIP_OAHASH_EntriesRemoveAll
                0x9d020c98       0x58 build/default/production/_ext/1144052859/oahash.o
                0x9d020c98                TCPIP_OAHASH_EntriesRemoveAll

.text.TCPIP_STACK_MACIdToNet
                0x9d020cf0       0x58
 .text.TCPIP_STACK_MACIdToNet
                0x9d020cf0       0x58 build/default/production/_ext/1144052859/tcpip_manager.o
                0x9d020cf0                TCPIP_STACK_MACIdToNet

.text.TCPIP_STACK_NetByAddress
                0x9d020d48       0x58
 .text.TCPIP_STACK_NetByAddress
                0x9d020d48       0x58 build/default/production/_ext/1144052859/tcpip_manager.o
                0x9d020d48                TCPIP_STACK_NetByAddress

.text.SYS_CLK_Initialize
                0x9d020da0       0x58
 .text.SYS_CLK_Initialize
                0x9d020da0       0x58 build/default/production/_ext/639803181/sys_clk_static.o
                0x9d020da0                SYS_CLK_Initialize

.text.TCPIP_STACK_Init
                0x9d020df8       0x58
 .text.TCPIP_STACK_Init
                0x9d020df8       0x58 build/default/production/_ext/1688732426/system_init.o
                0x9d020df8                TCPIP_STACK_Init

.text.strncpy   0x9d020e50       0x58
 .text.strncpy  0x9d020e50       0x58 c:/program files (x86)/microchip/xc32/v1.33/bin/bin/../../lib/gcc/pic32mx/4.5.2/../../../../pic32mx/lib\libc.a(strncpy.o)
                0x9d020e50                strncpy

.text._DRV_ETHPHY_NegResultPhase_ANEXP
                0x9d020ea8       0x54
 .text._DRV_ETHPHY_NegResultPhase_ANEXP
                0x9d020ea8       0x54 build/default/production/_ext/810051186/drv_ethphy.o

.text._DRV_ETHPHY_NegResultPhase_ANLPAD
                0x9d020efc       0x54
 .text._DRV_ETHPHY_NegResultPhase_ANLPAD
                0x9d020efc       0x54 build/default/production/_ext/810051186/drv_ethphy.o

.text.SYS_DEVCON_SystemLock
                0x9d020f50       0x54
 .text.SYS_DEVCON_SystemLock
                0x9d020f50       0x54 build/default/production/_ext/335806368/sys_devcon.o
                0x9d020f50                SYS_DEVCON_SystemLock

.text._UDPSetNewRxPacket
                0x9d020fa4       0x54
 .text._UDPSetNewRxPacket
                0x9d020fa4       0x54 build/default/production/_ext/1144052859/udp.o

.text.TCPIP_STACK_AddressServiceSelect
                0x9d020ff8       0x54
 .text.TCPIP_STACK_AddressServiceSelect
                0x9d020ff8       0x54 build/default/production/_ext/1144052859/tcpip_manager.o
                0x9d020ff8                TCPIP_STACK_AddressServiceSelect

.text.TCPIP_Notification_Remove
                0x9d02104c       0x54
 .text.TCPIP_Notification_Remove
                0x9d02104c       0x54 build/default/production/_ext/1144052859/tcpip_notify.o
                0x9d02104c                TCPIP_Notification_Remove

.text.SYS_Tasks
                0x9d0210a0       0x54
 .text.SYS_Tasks
                0x9d0210a0       0x54 build/default/production/_ext/1688732426/system_tasks.o
                0x9d0210a0                SYS_Tasks

.text._XtlEventsTcp2Eth
                0x9d0210f4       0x50
 .text._XtlEventsTcp2Eth
                0x9d0210f4       0x50 build/default/production/_ext/1986204992/drv_ethmac.o

.text._EnetDescriptorsCount
                0x9d021144       0x50
 .text._EnetDescriptorsCount
                0x9d021144       0x50 build/default/production/_ext/1986204992/drv_ethmac_lib.o

.text.DRV_ETHPHY_LinkStatusGet
                0x9d021194       0x50
 .text.DRV_ETHPHY_LinkStatusGet
                0x9d021194       0x50 build/default/production/_ext/810051186/drv_ethphy.o
                0x9d021194                DRV_ETHPHY_LinkStatusGet

.text._TCPSetSourceAddress
                0x9d0211e4       0x50
 .text._TCPSetSourceAddress
                0x9d0211e4       0x50 build/default/production/_ext/1144052859/tcp.o

.text._TCPSetHalfFlushFlag
                0x9d021234       0x50
 .text._TCPSetHalfFlushFlag
                0x9d021234       0x50 build/default/production/_ext/1144052859/tcp.o

.text._UDPResetRxPacket
                0x9d021284       0x50
 .text._UDPResetRxPacket
                0x9d021284       0x50 build/default/production/_ext/1144052859/udp.o

.text._UDPSetSourceAddress
                0x9d0212d4       0x50
 .text._UDPSetSourceAddress
                0x9d0212d4       0x50 build/default/production/_ext/1144052859/udp.o

.text.TCPIP_DNS_OAHASH_KeyHash
                0x9d021324       0x50
 .text.TCPIP_DNS_OAHASH_KeyHash
                0x9d021324       0x50 build/default/production/_ext/1144052859/dns.o

.text.TCPIP_ICMP_Initialize
                0x9d021374       0x50
 .text.TCPIP_ICMP_Initialize
                0x9d021374       0x50 build/default/production/_ext/1144052859/icmp.o
                0x9d021374                TCPIP_ICMP_Initialize

.text.TCPIP_ICMP_CallbackRegister
                0x9d0213c4       0x50
 .text.TCPIP_ICMP_CallbackRegister
                0x9d0213c4       0x50 build/default/production/_ext/1144052859/icmp.o
                0x9d0213c4                TCPIP_ICMP_CallbackRegister

.text.TCPIP_NBNS_Deinitialize
                0x9d021414       0x50
 .text.TCPIP_NBNS_Deinitialize
                0x9d021414       0x50 build/default/production/_ext/1144052859/nbns.o
                0x9d021414                TCPIP_NBNS_Deinitialize

.text._ZCLLDisable
                0x9d021464       0x50
 .text._ZCLLDisable
                0x9d021464       0x50 build/default/production/_ext/1144052859/zero_conf_link_local.o

.text._TCPIP_PKT_PacketAcknowledge
                0x9d0214b4       0x50
 .text._TCPIP_PKT_PacketAcknowledge
                0x9d0214b4       0x50 build/default/production/_ext/1144052859/tcpip_packet.o
                0x9d0214b4                _TCPIP_PKT_PacketAcknowledge

.text._SYS_CONSOLE_PRINT
                0x9d021504       0x50
 .text._SYS_CONSOLE_PRINT
                0x9d021504       0x50 build/default/production/_ext/1829665213/system_debug.o
                0x9d021504                _SYS_CONSOLE_PRINT

.text.CommandCleanup
                0x9d021554       0x50
 .text.CommandCleanup
                0x9d021554       0x50 build/default/production/_ext/1829665213/system_command.o

.text.PLIB_ETH_RxSetBufferSize
                0x9d0215a4       0x50
 .text.PLIB_ETH_RxSetBufferSize
                0x9d0215a4       0x50 ..\..\..\..\..\..\..\..\microchip\harmony\v1_02\bin\framework\peripheral\PIC32MX795F512L_peripherals.a(plib_eth_lib.o)
                0x9d0215a4                PLIB_ETH_RxSetBufferSize

.text.sbrk      0x9d0215f4       0x50
 .text.sbrk     0x9d0215f4       0x50 c:/program files (x86)/microchip/xc32/v1.33/bin/bin/../../lib/gcc/pic32mx/4.5.2/../../../../pic32mx/lib\libpic32.a(sbrk.o)
                0x9d0215f4                sbrk

.text.main_entry
                0x9d021644       0x4c
 .text.main_entry
                0x9d021644       0x4c c:/program files (x86)/microchip/xc32/v1.33/bin/bin/../../lib/gcc/pic32mx/4.5.2/../../../../pic32mx/lib/./proc/32MX795F512L/crt0_mips32r2.o
                0x9d021670                __crt0_exit

.text._DRV_ETHMAC_LinkStateStartLink
                0x9d021690       0x4c
 .text._DRV_ETHMAC_LinkStateStartLink
                0x9d021690       0x4c build/default/production/_ext/1986204992/drv_ethmac.o

.text._DRV_ETHPHY_ClientOpSetup
                0x9d0216dc       0x4c
 .text._DRV_ETHPHY_ClientOpSetup
                0x9d0216dc       0x4c build/default/production/_ext/810051186/drv_ethphy.o

.text._DRV_ETHPHY_SetupPhaseNegotiate
                0x9d021728       0x4c
 .text._DRV_ETHPHY_SetupPhaseNegotiate
                0x9d021728       0x4c build/default/production/_ext/810051186/drv_ethphy.o

.text._DRV_ETHPHY_SetupPhaseNegotiate_SubPhase4
                0x9d021774       0x4c
 .text._DRV_ETHPHY_SetupPhaseNegotiate_SubPhase4
                0x9d021774       0x4c build/default/production/_ext/810051186/drv_ethphy.o

.text._DRV_ETHPHY_ClientOpSmiRead
                0x9d0217c0       0x4c
 .text._DRV_ETHPHY_ClientOpSmiRead
                0x9d0217c0       0x4c build/default/production/_ext/810051186/drv_ethphy.o

.text._DRV_ETHPHY_ClientOpNegRestart
                0x9d02180c       0x4c
 .text._DRV_ETHPHY_ClientOpNegRestart
                0x9d02180c       0x4c build/default/production/_ext/810051186/drv_ethphy.o

.text._DRV_ETHPHY_ClientOpNegComplete
                0x9d021858       0x4c
 .text._DRV_ETHPHY_ClientOpNegComplete
                0x9d021858       0x4c build/default/production/_ext/810051186/drv_ethphy.o

.text._DRV_PHY_NegCompleteSetOperResult
                0x9d0218a4       0x4c
 .text._DRV_PHY_NegCompleteSetOperResult
                0x9d0218a4       0x4c build/default/production/_ext/810051186/drv_ethphy.o

.text._DRV_ETHPHY_ClientOpNegResult
                0x9d0218f0       0x4c
 .text._DRV_ETHPHY_ClientOpNegResult
                0x9d0218f0       0x4c build/default/production/_ext/810051186/drv_ethphy.o

.text._DRV_ETHPHY_ClientOpLinkStat
                0x9d02193c       0x4c
 .text._DRV_ETHPHY_ClientOpLinkStat
                0x9d02193c       0x4c build/default/production/_ext/810051186/drv_ethphy.o

.text._DRV_ETHPHY_ClientOpReset
                0x9d021988       0x4c
 .text._DRV_ETHPHY_ClientOpReset
                0x9d021988       0x4c build/default/production/_ext/810051186/drv_ethphy.o

.text.DRV_ETHPHY_HWConfigFlagsGet
                0x9d0219d4       0x4c
 .text.DRV_ETHPHY_HWConfigFlagsGet
                0x9d0219d4       0x4c build/default/production/_ext/810051186/drv_ethphy.o
                0x9d0219d4                DRV_ETHPHY_HWConfigFlagsGet

.text.TCPIP_UDP_SourceIPAddressSet
                0x9d021a20       0x4c
 .text.TCPIP_UDP_SourceIPAddressSet
                0x9d021a20       0x4c build/default/production/_ext/1144052859/udp.o
                0x9d021a20                TCPIP_UDP_SourceIPAddressSet

.text._ARPRemoveCacheEntries
                0x9d021a6c       0x4c
 .text._ARPRemoveCacheEntries
                0x9d021a6c       0x4c build/default/production/_ext/1144052859/arp.o

.text.TCPIP_DNS_GetDNSClientConnectionInfo
                0x9d021ab8       0x4c
 .text.TCPIP_DNS_GetDNSClientConnectionInfo
                0x9d021ab8       0x4c build/default/production/_ext/1144052859/dns.o
                0x9d021ab8                TCPIP_DNS_GetDNSClientConnectionInfo

.text.TCPIP_ICMP_Deinitialize
                0x9d021b04       0x4c
 .text.TCPIP_ICMP_Deinitialize
                0x9d021b04       0x4c build/default/production/_ext/1144052859/icmp.o
                0x9d021b04                TCPIP_ICMP_Deinitialize

.text.TCPIP_NBNS_Cleanup
                0x9d021b50       0x4c
 .text.TCPIP_NBNS_Cleanup
                0x9d021b50       0x4c build/default/production/_ext/1144052859/nbns.o

.text.TCPIP_HEAP_Delete
                0x9d021b9c       0x4c
 .text.TCPIP_HEAP_Delete
                0x9d021b9c       0x4c build/default/production/_ext/1144052859/tcpip_heap_alloc.o
                0x9d021b9c                TCPIP_HEAP_Delete

.text._TCPIP_HEAP_Calloc
                0x9d021be8       0x4c
 .text._TCPIP_HEAP_Calloc
                0x9d021be8       0x4c build/default/production/_ext/1144052859/tcpip_heap_alloc.o
                0x9d021be8                _TCPIP_HEAP_Calloc

.text.TCPIP_Notification_Add
                0x9d021c34       0x4c
 .text.TCPIP_Notification_Add
                0x9d021c34       0x4c build/default/production/_ext/1144052859/tcpip_notify.o
                0x9d021c34                TCPIP_Notification_Add

.text._SysGetCDevEntry
                0x9d021c80       0x4c
 .text._SysGetCDevEntry
                0x9d021c80       0x4c build/default/production/_ext/1829665213/system_debug.o

.text           0x9d021ccc       0x4c
 .text          0x9d021ccc       0x4c c:/program files (x86)/microchip/xc32/v1.33/bin/bin/../../lib/gcc/pic32mx/4.5.2\libgcc.a(floatunsisf.o)
                0x9d021ccc                __floatunsisf

.text.DRV_ETHPHY_NegotiationResultGet
                0x9d021d18       0x48
 .text.DRV_ETHPHY_NegotiationResultGet
                0x9d021d18       0x48 build/default/production/_ext/810051186/drv_ethphy.o
                0x9d021d18                DRV_ETHPHY_NegotiationResultGet

.text.SYS_RESET_SoftwareReset
                0x9d021d60       0x48
 .text.SYS_RESET_SoftwareReset
                0x9d021d60       0x48 build/default/production/_ext/346722522/sys_reset.o
                0x9d021d60                SYS_RESET_SoftwareReset

.rodata         0x9d021da8       0x48
 .rodata        0x9d021da8       0x48 build/default/production/_ext/1144052859/arp.o

.text.ANNOUNCE_Notify
                0x9d021df0       0x48
 .text.ANNOUNCE_Notify
                0x9d021df0       0x48 build/default/production/_ext/1144052859/tcpip_announce.o

.text.strupr    0x9d021e38       0x48
 .text.strupr   0x9d021e38       0x48 build/default/production/_ext/1997815295/helpers.o
                0x9d021e38                strupr

.text._TCPIP_STACK_FindModuleData
                0x9d021e80       0x48
 .text._TCPIP_STACK_FindModuleData
                0x9d021e80       0x48 build/default/production/_ext/1144052859/tcpip_manager.o

.text.TCPIP_STACK_IPAddToNet
                0x9d021ec8       0x48
 .text.TCPIP_STACK_IPAddToNet
                0x9d021ec8       0x48 build/default/production/_ext/1144052859/tcpip_manager.o
                0x9d021ec8                TCPIP_STACK_IPAddToNet

.text.TCPIP_STACK_NetworkAddressSet
                0x9d021f10       0x48
 .text.TCPIP_STACK_NetworkAddressSet
                0x9d021f10       0x48 build/default/production/_ext/1144052859/tcpip_manager.o
                0x9d021f10                TCPIP_STACK_NetworkAddressSet

.text.TCPIP_STACK_IsBcastAddress
                0x9d021f58       0x48
 .text.TCPIP_STACK_IsBcastAddress
                0x9d021f58       0x48 build/default/production/_ext/1144052859/tcpip_manager.o
                0x9d021f58                TCPIP_STACK_IsBcastAddress

.text.TCPIP_Notification_RemoveAll
                0x9d021fa0       0x48
 .text.TCPIP_Notification_RemoveAll
                0x9d021fa0       0x48 build/default/production/_ext/1144052859/tcpip_notify.o
                0x9d021fa0                TCPIP_Notification_RemoveAll

.text._SYS_DEBUG_OPEN
                0x9d021fe8       0x48
 .text._SYS_DEBUG_OPEN
                0x9d021fe8       0x48 build/default/production/_ext/1829665213/system_debug.o
                0x9d021fe8                _SYS_DEBUG_OPEN

.text._SYS_CONSOLE_OPEN
                0x9d022030       0x48
 .text._SYS_CONSOLE_OPEN
                0x9d022030       0x48 build/default/production/_ext/1829665213/system_debug.o
                0x9d022030                _SYS_CONSOLE_OPEN

.text._bootstrap_exception_handler
                0x9d022078       0x48
 .text._bootstrap_exception_handler
                0x9d022078       0x48 c:/program files (x86)/microchip/xc32/v1.33/bin/bin/../../lib/gcc/pic32mx/4.5.2/../../../../pic32mx/lib\libpic32.a(default-bootstrap-exception-handler.o)
                0x9d022078                _bootstrap_exception_handler

.text._MACTxPacketAckCallback
                0x9d0220c0       0x44
 .text._MACTxPacketAckCallback
                0x9d0220c0       0x44 build/default/production/_ext/1986204992/drv_ethmac.o

.text.DRV_ETHPHY_NegotiationIsComplete
                0x9d022104       0x44
 .text.DRV_ETHPHY_NegotiationIsComplete
                0x9d022104       0x44 build/default/production/_ext/810051186/drv_ethphy.o
                0x9d022104                DRV_ETHPHY_NegotiationIsComplete

.text._UDPIsAvailablePort
                0x9d022148       0x44
 .text._UDPIsAvailablePort
                0x9d022148       0x44 build/default/production/_ext/1144052859/udp.o

.text.TCPIP_UDP_TxPointerGet
                0x9d02218c       0x44
 .text.TCPIP_UDP_TxPointerGet
                0x9d02218c       0x44 build/default/production/_ext/1144052859/udp.o
                0x9d02218c                TCPIP_UDP_TxPointerGet

.text._SwapARPPacket
                0x9d0221d0       0x44
 .text._SwapARPPacket
                0x9d0221d0       0x44 build/default/production/_ext/1144052859/arp.o

.text           0x9d022214       0x44
 .text          0x9d022214       0x44 c:/program files (x86)/microchip/xc32/v1.33/bin/bin/../../lib/gcc/pic32mx/4.5.2/../../../../pic32mx/lib\pic32_software_reset.o
                0x9d022214                __pic32_software_reset

.text._DRV_ETHPHY_NegCompletePhaseResultNoWait
                0x9d022258       0x40
 .text._DRV_ETHPHY_NegCompletePhaseResultNoWait
                0x9d022258       0x40 build/default/production/_ext/810051186/drv_ethphy.o

.text.DRV_ETHPHY_Tasks
                0x9d022298       0x40
 .text.DRV_ETHPHY_Tasks
                0x9d022298       0x40 build/default/production/_ext/810051186/drv_ethphy.o
                0x9d022298                DRV_ETHPHY_Tasks

.text.SYS_INT_SourceDisable
                0x9d0222d8       0x40
 .text.SYS_INT_SourceDisable
                0x9d0222d8       0x40 build/default/production/_ext/1055666758/sys_int_pic32.o
                0x9d0222d8                SYS_INT_SourceDisable

.text.LFSRRand  0x9d022318       0x40
 .text.LFSRRand
                0x9d022318       0x40 build/default/production/_ext/1997815295/lfsr.o
                0x9d022318                LFSRRand

.text.TCPIP_Helper_ProtectedSingleListInitialize
                0x9d022358       0x40
 .text.TCPIP_Helper_ProtectedSingleListInitialize
                0x9d022358       0x40 build/default/production/_ext/1144052859/tcpip_helpers.o
                0x9d022358                TCPIP_Helper_ProtectedSingleListInitialize

.text.TCPIP_STACK_NetAddressMacSet
                0x9d022398       0x40
 .text.TCPIP_STACK_NetAddressMacSet
                0x9d022398       0x40 build/default/production/_ext/1144052859/tcpip_manager.o
                0x9d022398                TCPIP_STACK_NetAddressMacSet

.text.TCPIP_STACK_NetMACStatisticsGet
                0x9d0223d8       0x40
 .text.TCPIP_STACK_NetMACStatisticsGet
                0x9d0223d8       0x40 build/default/production/_ext/1144052859/tcpip_manager.o
                0x9d0223d8                TCPIP_STACK_NetMACStatisticsGet

.text.TCPIP_STACK_NetMACRegisterStatisticsGet
                0x9d022418       0x40
 .text.TCPIP_STACK_NetMACRegisterStatisticsGet
                0x9d022418       0x40 build/default/production/_ext/1144052859/tcpip_manager.o
                0x9d022418                TCPIP_STACK_NetMACRegisterStatisticsGet

.text.TCPIP_STACK_StringToMACId
                0x9d022458       0x40
 .text.TCPIP_STACK_StringToMACId
                0x9d022458       0x40 build/default/production/_ext/1144052859/tcpip_manager.o
                0x9d022458                TCPIP_STACK_StringToMACId

.text.TCPIP_STACK_NetAddressDnsPrimarySet
                0x9d022498       0x40
 .text.TCPIP_STACK_NetAddressDnsPrimarySet
                0x9d022498       0x40 build/default/production/_ext/1144052859/tcpip_manager.o
                0x9d022498                TCPIP_STACK_NetAddressDnsPrimarySet

.text.CmdAddHead
                0x9d0224d8       0x40
 .text.CmdAddHead
                0x9d0224d8       0x40 build/default/production/_ext/1829665213/system_command.o

.text._DRV_ETHMAC_LinkStateDown
                0x9d022518       0x3c
 .text._DRV_ETHMAC_LinkStateDown
                0x9d022518       0x3c build/default/production/_ext/1986204992/drv_ethmac.o

.text.DRV_ETHMAC_SingleListHeadRemove
                0x9d022554       0x3c
 .text.DRV_ETHMAC_SingleListHeadRemove
                0x9d022554       0x3c build/default/production/_ext/1986204992/drv_ethmac_lib.o
                0x9d022554                DRV_ETHMAC_SingleListHeadRemove

.text._DRV_ETHPHY_ClientOpSmiWrite
                0x9d022590       0x3c
 .text._DRV_ETHPHY_ClientOpSmiWrite
                0x9d022590       0x3c build/default/production/_ext/810051186/drv_ethphy.o

.text._DRV_ETHPHY_NegRestartPhaseWrite
                0x9d0225cc       0x3c
 .text._DRV_ETHPHY_NegRestartPhaseWrite
                0x9d0225cc       0x3c build/default/production/_ext/810051186/drv_ethphy.o

.text._DRV_ETHPHY_ResetPhaseIdle
                0x9d022608       0x3c
 .text._DRV_ETHPHY_ResetPhaseIdle
                0x9d022608       0x3c build/default/production/_ext/810051186/drv_ethphy.o

.text._UDPFreeRxQueue
                0x9d022644       0x3c
 .text._UDPFreeRxQueue
                0x9d022644       0x3c build/default/production/_ext/1144052859/udp.o

.text.TCPIP_ARP_HashKeyHash
                0x9d022680       0x3c
 .text.TCPIP_ARP_HashKeyHash
                0x9d022680       0x3c build/default/production/_ext/1144052859/arp.o
                0x9d022680                TCPIP_ARP_HashKeyHash

.text.TCPIP_ARP_CallbacksDeregister
                0x9d0226bc       0x3c
 .text.TCPIP_ARP_CallbacksDeregister
                0x9d0226bc       0x3c build/default/production/_ext/1144052859/arp.o
                0x9d0226bc                TCPIP_ARP_CallbacksDeregister

.text.TCPIP_DHCP_Enable
                0x9d0226f8       0x3c
 .text.TCPIP_DHCP_Enable
                0x9d0226f8       0x3c build/default/production/_ext/1144052859/dhcp.o
                0x9d0226f8                TCPIP_DHCP_Enable

.text.TCPIP_DHCP_Renew
                0x9d022734       0x3c
 .text.TCPIP_DHCP_Renew
                0x9d022734       0x3c build/default/production/_ext/1144052859/dhcp.o
                0x9d022734                TCPIP_DHCP_Renew

.text.TCPIP_DHCP_IsActive
                0x9d022770       0x3c
 .text.TCPIP_DHCP_IsActive
                0x9d022770       0x3c build/default/production/_ext/1144052859/dhcp.o
                0x9d022770                TCPIP_DHCP_IsActive

.text._ICMPAllocateTxPacketStruct
                0x9d0227ac       0x3c
 .text._ICMPAllocateTxPacketStruct
                0x9d0227ac       0x3c build/default/production/_ext/1144052859/icmp.o

.text._ZCLLCleanup
                0x9d0227e8       0x3c
 .text._ZCLLCleanup
                0x9d0227e8       0x3c build/default/production/_ext/1144052859/zero_conf_link_local.o

.text.TCPIP_OAHASH_Initialize
                0x9d022824       0x3c
 .text.TCPIP_OAHASH_Initialize
                0x9d022824       0x3c build/default/production/_ext/1144052859/oahash.o
                0x9d022824                TCPIP_OAHASH_Initialize

.text.TCPIP_Helper_SingleListHeadRemove
                0x9d022860       0x3c
 .text.TCPIP_Helper_SingleListHeadRemove
                0x9d022860       0x3c build/default/production/_ext/1144052859/tcpip_helpers.o
                0x9d022860                TCPIP_Helper_SingleListHeadRemove

.text.TCPIP_STACK_NetAddressSet
                0x9d02289c       0x3c
 .text.TCPIP_STACK_NetAddressSet
                0x9d02289c       0x3c build/default/production/_ext/1144052859/tcpip_manager.o
                0x9d02289c                TCPIP_STACK_NetAddressSet

.text._TCPIPStackSetConfigAddress
                0x9d0228d8       0x3c
 .text._TCPIPStackSetConfigAddress
                0x9d0228d8       0x3c build/default/production/_ext/1144052859/tcpip_manager.o
                0x9d0228d8                _TCPIPStackSetConfigAddress

.text.TCPIP_STACK_NetIsBcastAddress
                0x9d022914       0x3c
 .text.TCPIP_STACK_NetIsBcastAddress
                0x9d022914       0x3c build/default/production/_ext/1144052859/tcpip_manager.o
                0x9d022914                TCPIP_STACK_NetIsBcastAddress

.text._TCPIPStackAsyncHandlerSetParams
                0x9d022950       0x3c
 .text._TCPIPStackAsyncHandlerSetParams
                0x9d022950       0x3c build/default/production/_ext/1144052859/tcpip_manager.o
                0x9d022950                _TCPIPStackAsyncHandlerSetParams

.text.USART_PRINT
                0x9d02298c       0x3c
 .text.USART_PRINT
                0x9d02298c       0x3c build/default/production/_ext/918699391/usart.o
                0x9d02298c                USART_PRINT

.rodata         0x9d0229c8       0x3c
 .rodata        0x9d0229c8       0x3c build/default/production/_ext/918699391/usart.o

.text._sys_CONSOLE_PRINT
                0x9d022a04       0x3c
 .text._sys_CONSOLE_PRINT
                0x9d022a04       0x3c build/default/production/_ext/1829665213/system_command.o

.text.SYS_INT_SourceRestore
                0x9d022a40       0x3c
 .text.SYS_INT_SourceRestore
                0x9d022a40       0x3c build/default/production/_ext/1688732426/system_interrupt.o
                0x9d022a40                SYS_INT_SourceRestore

.text.DRV_ETHMAC_LibRxPendingBuffersGet
                0x9d022a7c       0x38
 .text.DRV_ETHMAC_LibRxPendingBuffersGet
                0x9d022a7c       0x38 build/default/production/_ext/1986204992/drv_ethmac_lib.o
                0x9d022a7c                DRV_ETHMAC_LibRxPendingBuffersGet

.text.DRV_ETHMAC_LibRxScheduledBuffersGet
                0x9d022ab4       0x38
 .text.DRV_ETHMAC_LibRxScheduledBuffersGet
                0x9d022ab4       0x38 build/default/production/_ext/1986204992/drv_ethmac_lib.o
                0x9d022ab4                DRV_ETHMAC_LibRxScheduledBuffersGet

.text.DRV_ETHMAC_LibTxPendingBuffersGet
                0x9d022aec       0x38
 .text.DRV_ETHMAC_LibTxPendingBuffersGet
                0x9d022aec       0x38 build/default/production/_ext/1986204992/drv_ethmac_lib.o
                0x9d022aec                DRV_ETHMAC_LibTxPendingBuffersGet

.text._DRV_PHY_SMIReadStart
                0x9d022b24       0x38
 .text._DRV_PHY_SMIReadStart
                0x9d022b24       0x38 build/default/production/_ext/810051186/drv_ethphy.o

.text._DRV_PHY_SMIWriteStart
                0x9d022b5c       0x38
 .text._DRV_PHY_SMIWriteStart
                0x9d022b5c       0x38 build/default/production/_ext/810051186/drv_ethphy.o

.text._DRV_ETHPHY_NegRestartPhaseIdle
                0x9d022b94       0x38
 .text._DRV_ETHPHY_NegRestartPhaseIdle
                0x9d022b94       0x38 build/default/production/_ext/810051186/drv_ethphy.o

.text._DRV_ETHPHY_NegCompletePhaseIdle
                0x9d022bcc       0x38
 .text._DRV_ETHPHY_NegCompletePhaseIdle
                0x9d022bcc       0x38 build/default/production/_ext/810051186/drv_ethphy.o

.text._DRV_ETHPHY_NegResultPhaseIdle
                0x9d022c04       0x38
 .text._DRV_ETHPHY_NegResultPhaseIdle
                0x9d022c04       0x38 build/default/production/_ext/810051186/drv_ethphy.o

.text._DRV_ETHPHY_LinkStatPhaseIdle
                0x9d022c3c       0x38
 .text._DRV_ETHPHY_LinkStatPhaseIdle
                0x9d022c3c       0x38 build/default/production/_ext/810051186/drv_ethphy.o

.text._UDPSocketBind
                0x9d022c74       0x38
 .text._UDPSocketBind
                0x9d022c74       0x38 build/default/production/_ext/1144052859/udp.o

.text.TCPIP_UDP_TxCountGet
                0x9d022cac       0x38
 .text.TCPIP_UDP_TxCountGet
                0x9d022cac       0x38 build/default/production/_ext/1144052859/udp.o
                0x9d022cac                TCPIP_UDP_TxCountGet

.text._ARPAllocateTxPacket
                0x9d022ce4       0x38
 .text._ARPAllocateTxPacket
                0x9d022ce4       0x38 build/default/production/_ext/1144052859/arp.o

.text.TCPIP_ARP_HandlerDeRegister
                0x9d022d1c       0x38
 .text.TCPIP_ARP_HandlerDeRegister
                0x9d022d1c       0x38 build/default/production/_ext/1144052859/arp.o
                0x9d022d1c                TCPIP_ARP_HandlerDeRegister

.text.TCPIP_Helper_ProtectedSingleListLock
                0x9d022d54       0x38
 .text.TCPIP_Helper_ProtectedSingleListLock
                0x9d022d54       0x38 build/default/production/_ext/1144052859/tcpip_helpers.o
                0x9d022d54                TCPIP_Helper_ProtectedSingleListLock

.text.TCPIP_STACK_IndexToNet
                0x9d022d8c       0x38
 .text.TCPIP_STACK_IndexToNet
                0x9d022d8c       0x38 build/default/production/_ext/1144052859/tcpip_manager.o
                0x9d022d8c                TCPIP_STACK_IndexToNet

.text.TCPIP_STACK_AddressServiceDefaultSet
                0x9d022dc4       0x38
 .text.TCPIP_STACK_AddressServiceDefaultSet
                0x9d022dc4       0x38 build/default/production/_ext/1144052859/tcpip_manager.o
                0x9d022dc4                TCPIP_STACK_AddressServiceDefaultSet

.text.TCPIP_STACK_NetAddressGatewaySet
                0x9d022dfc       0x38
 .text.TCPIP_STACK_NetAddressGatewaySet
                0x9d022dfc       0x38 build/default/production/_ext/1144052859/tcpip_manager.o
                0x9d022dfc                TCPIP_STACK_NetAddressGatewaySet

.text.CmdRemoveTail
                0x9d022e34       0x38
 .text.CmdRemoveTail
                0x9d022e34       0x38 build/default/production/_ext/1829665213/system_command.o

.text.CommandReset
                0x9d022e6c       0x38
 .text.CommandReset
                0x9d022e6c       0x38 build/default/production/_ext/1829665213/system_command.o

.vector_default
                0x9d022ea4       0x38
 .vector_default
                0x9d022ea4       0x38 c:/program files (x86)/microchip/xc32/v1.33/bin/bin/../../lib/gcc/pic32mx/4.5.2/../../../../pic32mx/lib\libpic32.a(defaultinterrupt.o)
                0x9d022ea4                _DefaultInterrupt

.text.DRV_ETHMAC_LibDescriptorGetBuffer
                0x9d022edc       0x34
 .text.DRV_ETHMAC_LibDescriptorGetBuffer
                0x9d022edc       0x34 build/default/production/_ext/1986204992/drv_ethmac_lib.o
                0x9d022edc                DRV_ETHMAC_LibDescriptorGetBuffer

.text.DRV_ETHMAC_LibTxAcknowledgeBuffer
                0x9d022f10       0x34
 .text.DRV_ETHMAC_LibTxAcknowledgeBuffer
                0x9d022f10       0x34 build/default/production/_ext/1986204992/drv_ethmac_lib.o
                0x9d022f10                DRV_ETHMAC_LibTxAcknowledgeBuffer

.text._DRV_PHY_NegResultSetOperResult
                0x9d022f44       0x34
 .text._DRV_PHY_NegResultSetOperResult
                0x9d022f44       0x34 build/default/production/_ext/810051186/drv_ethphy.o

.text._UDPUpdatePacketLock
                0x9d022f78       0x34
 .text._UDPUpdatePacketLock
                0x9d022f78       0x34 build/default/production/_ext/1144052859/udp.o

.text.TCPIP_DHCP_Request
                0x9d022fac       0x34
 .text.TCPIP_DHCP_Request
                0x9d022fac       0x34 build/default/production/_ext/1144052859/dhcp.o
                0x9d022fac                TCPIP_DHCP_Request

.text.TCPIP_DHCP_HandlerDeRegister
                0x9d022fe0       0x34
 .text.TCPIP_DHCP_HandlerDeRegister
                0x9d022fe0       0x34 build/default/production/_ext/1144052859/dhcp.o
                0x9d022fe0                TCPIP_DHCP_HandlerDeRegister

.text.TCPIP_ICMP_CallbackDeregister
                0x9d023014       0x34
 .text.TCPIP_ICMP_CallbackDeregister
                0x9d023014       0x34 build/default/production/_ext/1144052859/icmp.o
                0x9d023014                TCPIP_ICMP_CallbackDeregister

.text.TCPIP_STACK_DNSServiceSelect
                0x9d023048       0x34
 .text.TCPIP_STACK_DNSServiceSelect
                0x9d023048       0x34 build/default/production/_ext/1144052859/tcpip_manager.o
                0x9d023048                TCPIP_STACK_DNSServiceSelect

.text.TCPIP_STACK_NetAddress
                0x9d02307c       0x34
 .text.TCPIP_STACK_NetAddress
                0x9d02307c       0x34 build/default/production/_ext/1144052859/tcpip_manager.o
                0x9d02307c                TCPIP_STACK_NetAddress

.text.TCPIP_STACK_NetMask
                0x9d0230b0       0x34
 .text.TCPIP_STACK_NetMask
                0x9d0230b0       0x34 build/default/production/_ext/1144052859/tcpip_manager.o
                0x9d0230b0                TCPIP_STACK_NetMask

.text.TCPIP_STACK_NetIsLinked
                0x9d0230e4       0x34
 .text.TCPIP_STACK_NetIsLinked
                0x9d0230e4       0x34 build/default/production/_ext/1144052859/tcpip_manager.o
                0x9d0230e4                TCPIP_STACK_NetIsLinked

.text._TCPIPStackHandleToNetLinked
                0x9d023118       0x34
 .text._TCPIPStackHandleToNetLinked
                0x9d023118       0x34 build/default/production/_ext/1144052859/tcpip_manager.o
                0x9d023118                _TCPIPStackHandleToNetLinked

.text.TCPIP_STACK_NetAddressMac
                0x9d02314c       0x34
 .text.TCPIP_STACK_NetAddressMac
                0x9d02314c       0x34 build/default/production/_ext/1144052859/tcpip_manager.o
                0x9d02314c                TCPIP_STACK_NetAddressMac

.text.SYS_CMDIO_GET_HANDLE
                0x9d023180       0x34
 .text.SYS_CMDIO_GET_HANDLE
                0x9d023180       0x34 build/default/production/_ext/1829665213/system_command.o
                0x9d023180                SYS_CMDIO_GET_HANDLE

.text.Ipv4DeRegisterFilter
                0x9d0231b4       0x34
 .text.Ipv4DeRegisterFilter
                0x9d0231b4       0x34 build/default/production/_ext/1144052859/ipv4.o
                0x9d0231b4                Ipv4DeRegisterFilter

.text._MacCallocCallback
                0x9d0231e8       0x30
 .text._MacCallocCallback
                0x9d0231e8       0x30 build/default/production/_ext/1986204992/drv_ethmac.o

.text._EthMacReset
                0x9d023218       0x30
 .text._EthMacReset
                0x9d023218       0x30 build/default/production/_ext/1986204992/drv_ethmac_lib.o

.text.DRV_ETHMAC_SingleListTailAdd
                0x9d023248       0x30
 .text.DRV_ETHMAC_SingleListTailAdd
                0x9d023248       0x30 build/default/production/_ext/1986204992/drv_ethmac_lib.o
                0x9d023248                DRV_ETHMAC_SingleListTailAdd

.text._DRV_PHY_SMIReadStartEx
                0x9d023278       0x30
 .text._DRV_PHY_SMIReadStartEx
                0x9d023278       0x30 build/default/production/_ext/810051186/drv_ethphy.o

.text._DRV_PHY_SMIWriteStartEx
                0x9d0232a8       0x30
 .text._DRV_PHY_SMIWriteStartEx
                0x9d0232a8       0x30 build/default/production/_ext/810051186/drv_ethphy.o

.text._ARPTxAckFnc
                0x9d0232d8       0x30
 .text._ARPTxAckFnc
                0x9d0232d8       0x30 build/default/production/_ext/1144052859/arp.o

.text.TCPIP_Helper_SingleListTailAdd
                0x9d023308       0x30
 .text.TCPIP_Helper_SingleListTailAdd
                0x9d023308       0x30 build/default/production/_ext/1144052859/tcpip_helpers.o
                0x9d023308                TCPIP_Helper_SingleListTailAdd

.text._TCPIP_MacEventCB
                0x9d023338       0x30
 .text._TCPIP_MacEventCB
                0x9d023338       0x30 build/default/production/_ext/1144052859/tcpip_manager.o

.text.TCPIP_STACK_NetAddressBcast
                0x9d023368       0x30
 .text.TCPIP_STACK_NetAddressBcast
                0x9d023368       0x30 build/default/production/_ext/1144052859/tcpip_manager.o
                0x9d023368                TCPIP_STACK_NetAddressBcast

.text.SYS_PORTS_Initialize
                0x9d023398       0x30
 .text.SYS_PORTS_Initialize
                0x9d023398       0x30 build/default/production/_ext/822048611/sys_ports_static.o
                0x9d023398                SYS_PORTS_Initialize

.text.free      0x9d0233c8       0x30
 .text.free     0x9d0233c8       0x30 c:/program files (x86)/microchip/xc32/v1.33/bin/bin/../../lib/gcc/pic32mx/4.5.2/../../../../pic32mx/lib\libc.a(malloc.o)
                0x9d0233c8                free

.text.DRV_ETHMAC_PIC32MACDeinitialize
                0x9d0233f8       0x2c
 .text.DRV_ETHMAC_PIC32MACDeinitialize
                0x9d0233f8       0x2c build/default/production/_ext/1986204992/drv_ethmac.o
                0x9d0233f8                DRV_ETHMAC_PIC32MACDeinitialize

.text._SYS_TMR_AlarmCallback
                0x9d023424       0x2c
 .text._SYS_TMR_AlarmCallback
                0x9d023424       0x2c build/default/production/_ext/2097170832/sys_tmr.o

.text._UDPSocketDcpt
                0x9d023450       0x2c
 .text._UDPSocketDcpt
                0x9d023450       0x2c build/default/production/_ext/1144052859/udp.o

.text.TCPIP_UDP_Discard
                0x9d02347c       0x2c
 .text.TCPIP_UDP_Discard
                0x9d02347c       0x2c build/default/production/_ext/1144052859/udp.o
                0x9d02347c                TCPIP_UDP_Discard

.text.TCPIP_Notification_Deinitialize
                0x9d0234a8       0x2c
 .text.TCPIP_Notification_Deinitialize
                0x9d0234a8       0x2c build/default/production/_ext/1144052859/tcpip_notify.o
                0x9d0234a8                TCPIP_Notification_Deinitialize

.text._SYS_CONSOLE_MESSAGE
                0x9d0234d4       0x2c
 .text._SYS_CONSOLE_MESSAGE
                0x9d0234d4       0x2c build/default/production/_ext/1829665213/system_debug.o
                0x9d0234d4                _SYS_CONSOLE_MESSAGE

.text._SYS_CONSOLE_PUTC
                0x9d023500       0x2c
 .text._SYS_CONSOLE_PUTC
                0x9d023500       0x2c build/default/production/_ext/1829665213/system_debug.o
                0x9d023500                _SYS_CONSOLE_PUTC

.text.USART_OPEN
                0x9d02352c       0x2c
 .text.USART_OPEN
                0x9d02352c       0x2c build/default/production/_ext/918699391/usart.o
                0x9d02352c                USART_OPEN

.text._stub_sbd_memlayout
                0x9d023558       0x2c
 .text._stub_sbd_memlayout
                0x9d023558       0x2c c:/program files (x86)/microchip/xc32/v1.33/bin/bin/../../lib/gcc/pic32mx/4.5.2/../../../../pic32mx/lib\libpic32.a(sbrk.o)
                0x9d023558                _sbd_memlayout
                0x9d023558                _stub_sbd_memlayout

.text._MacTxFreeCallback
                0x9d023584       0x28
 .text._MacTxFreeCallback
                0x9d023584       0x28 build/default/production/_ext/1986204992/drv_ethmac.o

.text._MACTxAcknowledgeEth
                0x9d0235ac       0x28
 .text._MACTxAcknowledgeEth
                0x9d0235ac       0x28 build/default/production/_ext/1986204992/drv_ethmac.o

.text.DRV_ETHPHY_PhyAddressGet
                0x9d0235d4       0x28
 .text.DRV_ETHPHY_PhyAddressGet
                0x9d0235d4       0x28 build/default/production/_ext/810051186/drv_ethphy.o
                0x9d0235d4                DRV_ETHPHY_PhyAddressGet

.rodata         0x9d0235fc       0x28
 .rodata        0x9d0235fc       0x28 build/default/production/_ext/304478105/drv_tmr.o

.text._UDPAllocateTxPacket
                0x9d023624       0x28
 .text._UDPAllocateTxPacket
                0x9d023624       0x28 build/default/production/_ext/1144052859/udp.o

.text.TCPIP_OAHASH_EntryGet
                0x9d02364c       0x28
 .text.TCPIP_OAHASH_EntryGet
                0x9d02364c       0x28 build/default/production/_ext/1144052859/oahash.o
                0x9d02364c                TCPIP_OAHASH_EntryGet

.text.TCPIP_HEAP_MaxSize
                0x9d023674       0x28
 .text.TCPIP_HEAP_MaxSize
                0x9d023674       0x28 build/default/production/_ext/1144052859/tcpip_heap_alloc.o
                0x9d023674                TCPIP_HEAP_MaxSize

.text.TCPIP_Helper_PowerModeToString
                0x9d02369c       0x28
 .text.TCPIP_Helper_PowerModeToString
                0x9d02369c       0x28 build/default/production/_ext/1144052859/tcpip_helpers.o
                0x9d02369c                TCPIP_Helper_PowerModeToString

.text.TCPIP_STACK_NetDefaultSet
                0x9d0236c4       0x28
 .text.TCPIP_STACK_NetDefaultSet
                0x9d0236c4       0x28 build/default/production/_ext/1144052859/tcpip_manager.o
                0x9d0236c4                TCPIP_STACK_NetDefaultSet

.text.TCPIP_STACK_NetworkIsLinked
                0x9d0236ec       0x28
 .text.TCPIP_STACK_NetworkIsLinked
                0x9d0236ec       0x28 build/default/production/_ext/1144052859/tcpip_manager.o
                0x9d0236ec                TCPIP_STACK_NetworkIsLinked

.text.TCPIP_STACK_NetMACAddressGet
                0x9d023714       0x28
 .text.TCPIP_STACK_NetMACAddressGet
                0x9d023714       0x28 build/default/production/_ext/1144052859/tcpip_manager.o
                0x9d023714                TCPIP_STACK_NetMACAddressGet

.text._SYS_CONSOLE_DATA_RDY
                0x9d02373c       0x28
 .text._SYS_CONSOLE_DATA_RDY
                0x9d02373c       0x28 build/default/production/_ext/1829665213/system_debug.o
                0x9d02373c                _SYS_CONSOLE_DATA_RDY

.text._SYS_CONSOLE_GETC
                0x9d023764       0x28
 .text._SYS_CONSOLE_GETC
                0x9d023764       0x28 build/default/production/_ext/1829665213/system_debug.o
                0x9d023764                _SYS_CONSOLE_GETC

.text.USART_PUTC
                0x9d02378c       0x28
 .text.USART_PUTC
                0x9d02378c       0x28 build/default/production/_ext/918699391/usart.o
                0x9d02378c                USART_PUTC

.text.PLIB_ETH_MACSetMaxFrame
                0x9d0237b4       0x28
 .text.PLIB_ETH_MACSetMaxFrame
                0x9d0237b4       0x28 ..\..\..\..\..\..\..\..\microchip\harmony\v1_02\bin\framework\peripheral\PIC32MX795F512L_peripherals.a(plib_eth_lib.o)
                0x9d0237b4                PLIB_ETH_MACSetMaxFrame

.text._snprintf_cdnopsuxX
                0x9d0237dc       0x28
 .text._snprintf_cdnopsuxX
                0x9d0237dc       0x28 c:/program files (x86)/microchip/xc32/v1.33/bin/bin/../../lib/gcc/pic32mx/4.5.2/../../../../pic32mx/lib\libc.a(snprintf_cdnopsuxX.eo)
                0x9d0237dc                _snprintf_cdnopsuxX

.text.CRYPT_RNG_Initialize
                0x9d023804       0x24
 .text.CRYPT_RNG_Initialize
                0x9d023804       0x24 build/default/production/_ext/595770632/crypto.o
                0x9d023804                CRYPT_RNG_Initialize

.text.DRV_ETHMAC_PIC32MACClose
                0x9d023828       0x24
 .text.DRV_ETHMAC_PIC32MACClose
                0x9d023828       0x24 build/default/production/_ext/1986204992/drv_ethmac.o
                0x9d023828                DRV_ETHMAC_PIC32MACClose

.text.DRV_ETHPHY_VendorDataGet
                0x9d02384c       0x24
 .text.DRV_ETHPHY_VendorDataGet
                0x9d02384c       0x24 build/default/production/_ext/810051186/drv_ethphy.o
                0x9d02384c                DRV_ETHPHY_VendorDataGet

.text.SYS_TMR_TickCountGet
                0x9d023870       0x24
 .text.SYS_TMR_TickCountGet
                0x9d023870       0x24 build/default/production/_ext/2097170832/sys_tmr.o
                0x9d023870                SYS_TMR_TickCountGet

.text.SYS_TMR_TickCounterFrequencyGet
                0x9d023894       0x24
 .text.SYS_TMR_TickCounterFrequencyGet
                0x9d023894       0x24 build/default/production/_ext/2097170832/sys_tmr.o
                0x9d023894                SYS_TMR_TickCounterFrequencyGet

.text._PoolAddNodeLocked
                0x9d0238b8       0x24
 .text._PoolAddNodeLocked
                0x9d0238b8       0x24 build/default/production/_ext/1144052859/udp.o

.text.TCPIP_ZCLL_ARPAction
                0x9d0238dc       0x24
 .text.TCPIP_ZCLL_ARPAction
                0x9d0238dc       0x24 build/default/production/_ext/1144052859/zero_conf_link_local.o
                0x9d0238dc                TCPIP_ZCLL_ARPAction

.text.TCPIP_Helper_ProtectedSingleListUnlock
                0x9d023900       0x24
 .text.TCPIP_Helper_ProtectedSingleListUnlock
                0x9d023900       0x24 build/default/production/_ext/1144052859/tcpip_helpers.o
                0x9d023900                TCPIP_Helper_ProtectedSingleListUnlock

.text.TCPIP_STACK_NetNameGet
                0x9d023924       0x24
 .text.TCPIP_STACK_NetNameGet
                0x9d023924       0x24 build/default/production/_ext/1144052859/tcpip_manager.o
                0x9d023924                TCPIP_STACK_NetNameGet

.text.USART_GETC
                0x9d023948       0x24
 .text.USART_GETC
                0x9d023948       0x24 build/default/production/_ext/918699391/usart.o
                0x9d023948                USART_GETC

.text.toupper   0x9d02396c       0x24
 .text.toupper  0x9d02396c       0x24 c:/program files (x86)/microchip/xc32/v1.33/bin/bin/../../lib/gcc/pic32mx/4.5.2/../../../../pic32mx/lib\libc.a(ctypef.o)
                0x9d02396c                toupper

.text._DRV_ETHMAC_GetFrmTxOk
                0x9d023990       0x20
 .text._DRV_ETHMAC_GetFrmTxOk
                0x9d023990       0x20 build/default/production/_ext/1986204992/drv_ethmac.o

.text._DRV_ETHMAC_GetFrmRxOk
                0x9d0239b0       0x20
 .text._DRV_ETHMAC_GetFrmRxOk
                0x9d0239b0       0x20 build/default/production/_ext/1986204992/drv_ethmac.o

.text._DRV_ETHMAC_GetFrmPktCount
                0x9d0239d0       0x20
 .text._DRV_ETHMAC_GetFrmPktCount
                0x9d0239d0       0x20 build/default/production/_ext/1986204992/drv_ethmac.o

.text._DRV_ETHMAC_GetFrmRxOvflow
                0x9d0239f0       0x20
 .text._DRV_ETHMAC_GetFrmRxOvflow
                0x9d0239f0       0x20 build/default/production/_ext/1986204992/drv_ethmac.o

.text._DRV_ETHMAC_GetFrmFcsError
                0x9d023a10       0x20
 .text._DRV_ETHMAC_GetFrmFcsError
                0x9d023a10       0x20 build/default/production/_ext/1986204992/drv_ethmac.o

.text._DRV_ETHMAC_GetAlignError
                0x9d023a30       0x20
 .text._DRV_ETHMAC_GetAlignError
                0x9d023a30       0x20 build/default/production/_ext/1986204992/drv_ethmac.o

.text._DRV_ETHMAC_GetSCollisionCount
                0x9d023a50       0x20
 .text._DRV_ETHMAC_GetSCollisionCount
                0x9d023a50       0x20 build/default/production/_ext/1986204992/drv_ethmac.o

.text._DRV_ETHMAC_GetMCollisionCount
                0x9d023a70       0x20
 .text._DRV_ETHMAC_GetMCollisionCount
                0x9d023a70       0x20 build/default/production/_ext/1986204992/drv_ethmac.o

.text._DRV_ETHPHY_ClientObjectAllocate
                0x9d023a90       0x20
 .text._DRV_ETHPHY_ClientObjectAllocate
                0x9d023a90       0x20 build/default/production/_ext/810051186/drv_ethphy.o
                0x9d023a90                _DRV_ETHPHY_ClientObjectAllocate

.text.DRV_ETHPHY_Close
                0x9d023ab0       0x20
 .text.DRV_ETHPHY_Close
                0x9d023ab0       0x20 build/default/production/_ext/810051186/drv_ethphy.o
                0x9d023ab0                DRV_ETHPHY_Close

.text._DRV_TMR_ClientSetParams
                0x9d023ad0       0x20
 .text._DRV_TMR_ClientSetParams
                0x9d023ad0       0x20 build/default/production/_ext/304478105/drv_tmr.o

.text._TcpSocketBind
                0x9d023af0       0x20
 .text._TcpSocketBind
                0x9d023af0       0x20 build/default/production/_ext/1144052859/tcp.o

.text.TCPIP_UDP_ServerOpen
                0x9d023b10       0x20
 .text.TCPIP_UDP_ServerOpen
                0x9d023b10       0x20 build/default/production/_ext/1144052859/udp.o
                0x9d023b10                TCPIP_UDP_ServerOpen

.text.TCPIP_UDP_ClientOpen
                0x9d023b30       0x20
 .text.TCPIP_UDP_ClientOpen
                0x9d023b30       0x20 build/default/production/_ext/1144052859/udp.o
                0x9d023b30                TCPIP_UDP_ClientOpen

.text.TCPIP_UDP_IsConnected
                0x9d023b50       0x20
 .text.TCPIP_UDP_IsConnected
                0x9d023b50       0x20 build/default/production/_ext/1144052859/udp.o
                0x9d023b50                TCPIP_UDP_IsConnected

.text.TCPIP_UDP_Get
                0x9d023b70       0x20
 .text.TCPIP_UDP_Get
                0x9d023b70       0x20 build/default/production/_ext/1144052859/udp.o
                0x9d023b70                TCPIP_UDP_Get

.text.TCPIP_DNS_OAHASH_KeyCompare
                0x9d023b90       0x20
 .text.TCPIP_DNS_OAHASH_KeyCompare
                0x9d023b90       0x20 build/default/production/_ext/1144052859/dns.o

.text.TCPIP_DNS_IsEnabled
                0x9d023bb0       0x20
 .text.TCPIP_DNS_IsEnabled
                0x9d023bb0       0x20 build/default/production/_ext/1144052859/dns.o
                0x9d023bb0                TCPIP_DNS_IsEnabled

.text._ICMPAckPacket
                0x9d023bd0       0x20
 .text._ICMPAckPacket
                0x9d023bd0       0x20 build/default/production/_ext/1144052859/icmp.o

.text.TCPIP_ZCLL_IsEnabled
                0x9d023bf0       0x20
 .text.TCPIP_ZCLL_IsEnabled
                0x9d023bf0       0x20 build/default/production/_ext/1144052859/zero_conf_link_local.o
                0x9d023bf0                TCPIP_ZCLL_IsEnabled

.text.TCPIP_STACK_NetAddressGateway
                0x9d023c10       0x20
 .text.TCPIP_STACK_NetAddressGateway
                0x9d023c10       0x20 build/default/production/_ext/1144052859/tcpip_manager.o
                0x9d023c10                TCPIP_STACK_NetAddressGateway

.text.TCPIP_STACK_NetAddressDnsPrimary
                0x9d023c30       0x20
 .text.TCPIP_STACK_NetAddressDnsPrimary
                0x9d023c30       0x20 build/default/production/_ext/1144052859/tcpip_manager.o
                0x9d023c30                TCPIP_STACK_NetAddressDnsPrimary

.text.TCPIP_STACK_NetIsUp
                0x9d023c50       0x20
 .text.TCPIP_STACK_NetIsUp
                0x9d023c50       0x20 build/default/production/_ext/1144052859/tcpip_manager.o
                0x9d023c50                TCPIP_STACK_NetIsUp

.text.TCPIP_STACK_NetAddressGet
                0x9d023c70       0x20
 .text.TCPIP_STACK_NetAddressGet
                0x9d023c70       0x20 build/default/production/_ext/1144052859/tcpip_manager.o
                0x9d023c70                TCPIP_STACK_NetAddressGet

.text.TCPIP_STACK_NetMaskGet
                0x9d023c90       0x20
 .text.TCPIP_STACK_NetMaskGet
                0x9d023c90       0x20 build/default/production/_ext/1144052859/tcpip_manager.o
                0x9d023c90                TCPIP_STACK_NetMaskGet

.text.main      0x9d023cb0       0x20
 .text.main     0x9d023cb0       0x20 build/default/production/_ext/1360937237/main.o
                0x9d023cb0                main

.text.DRV_ETHMAC_PIC32MACStatus
                0x9d023cd0       0x1c
 .text.DRV_ETHMAC_PIC32MACStatus
                0x9d023cd0       0x1c build/default/production/_ext/1986204992/drv_ethmac.o
                0x9d023cd0                DRV_ETHMAC_PIC32MACStatus

.text._DRV_PHY_SetOperDoneResult
                0x9d023cec       0x1c
 .text._DRV_PHY_SetOperDoneResult
                0x9d023cec       0x1c build/default/production/_ext/810051186/drv_ethphy.o

.text._DRV_PHY_SetOperStart
                0x9d023d08       0x1c
 .text._DRV_PHY_SetOperStart
                0x9d023d08       0x1c build/default/production/_ext/810051186/drv_ethphy.o

.text._DRV_ETHPHY_ClientOpSmiScan
                0x9d023d24       0x1c
 .text._DRV_ETHPHY_ClientOpSmiScan
                0x9d023d24       0x1c build/default/production/_ext/810051186/drv_ethphy.o

.text.SYS_DEVCON_JTAGDisable
                0x9d023d40       0x1c
 .text.SYS_DEVCON_JTAGDisable
                0x9d023d40       0x1c build/default/production/_ext/335806368/sys_devcon.o
                0x9d023d40                SYS_DEVCON_JTAGDisable

.text.SYS_RANDOM_PseudoGet
                0x9d023d5c       0x1c
 .text.SYS_RANDOM_PseudoGet
                0x9d023d5c       0x1c build/default/production/_ext/323145514/sys_random.o
                0x9d023d5c                SYS_RANDOM_PseudoGet

.text.SYS_TMR_CallbackStop
                0x9d023d78       0x1c
 .text.SYS_TMR_CallbackStop
                0x9d023d78       0x1c build/default/production/_ext/2097170832/sys_tmr.o
                0x9d023d78                SYS_TMR_CallbackStop

.text.SYS_TMR_CallbackPeriodic
                0x9d023d94       0x1c
 .text.SYS_TMR_CallbackPeriodic
                0x9d023d94       0x1c build/default/production/_ext/2097170832/sys_tmr.o
                0x9d023d94                SYS_TMR_CallbackPeriodic

.text.TCPIP_UDP_TxPutIsReady
                0x9d023db0       0x1c
 .text.TCPIP_UDP_TxPutIsReady
                0x9d023db0       0x1c build/default/production/_ext/1144052859/udp.o
                0x9d023db0                TCPIP_UDP_TxPutIsReady

.text._DHCPSetRunFail
                0x9d023dcc       0x1c
 .text._DHCPSetRunFail
                0x9d023dcc       0x1c build/default/production/_ext/1144052859/dhcp.o

.text.TCPIP_DNS_Enable
                0x9d023de8       0x1c
 .text.TCPIP_DNS_Enable
                0x9d023de8       0x1c build/default/production/_ext/1144052859/dns.o
                0x9d023de8                TCPIP_DNS_Enable

.text._zcll_rand
                0x9d023e04       0x1c
 .text._zcll_rand
                0x9d023e04       0x1c build/default/production/_ext/1144052859/zero_conf_link_local.o

.text._Command_ZcllOnOff
                0x9d023e20       0x1c
 .text._Command_ZcllOnOff
                0x9d023e20       0x1c build/default/production/_ext/1144052859/tcpip_commands.o

.text._Command_DHCPSOnOff
                0x9d023e3c       0x1c
 .text._Command_DHCPSOnOff
                0x9d023e3c       0x1c build/default/production/_ext/1144052859/tcpip_commands.o

.text.btohexa_high
                0x9d023e58       0x1c
 .text.btohexa_high
                0x9d023e58       0x1c build/default/production/_ext/1997815295/helpers.o
                0x9d023e58                btohexa_high

.text.btohexa_low
                0x9d023e74       0x1c
 .text.btohexa_low
                0x9d023e74       0x1c build/default/production/_ext/1997815295/helpers.o
                0x9d023e74                btohexa_low

.text.TCPIP_OAHASH_EntryRemove
                0x9d023e90       0x1c
 .text.TCPIP_OAHASH_EntryRemove
                0x9d023e90       0x1c build/default/production/_ext/1144052859/oahash.o
                0x9d023e90                TCPIP_OAHASH_EntryRemove

.text.TCPIP_Helper_ChecksumFold
                0x9d023eac       0x1c
 .text.TCPIP_Helper_ChecksumFold
                0x9d023eac       0x1c build/default/production/_ext/1144052859/tcpip_helpers.o
                0x9d023eac                TCPIP_Helper_ChecksumFold

.text.TCPIP_STACK_MACIdToString
                0x9d023ec8       0x1c
 .text.TCPIP_STACK_MACIdToString
                0x9d023ec8       0x1c build/default/production/_ext/1144052859/tcpip_manager.o
                0x9d023ec8                TCPIP_STACK_MACIdToString

.text.TCPIP_STACK_AddressServiceCanStart
                0x9d023ee4       0x1c
 .text.TCPIP_STACK_AddressServiceCanStart
                0x9d023ee4       0x1c build/default/production/_ext/1144052859/tcpip_manager.o
                0x9d023ee4                TCPIP_STACK_AddressServiceCanStart

.text.TCPIP_STACK_NetIndexGet
                0x9d023f00       0x1c
 .text.TCPIP_STACK_NetIndexGet
                0x9d023f00       0x1c build/default/production/_ext/1144052859/tcpip_manager.o
                0x9d023f00                TCPIP_STACK_NetIndexGet

.text.TCPIP_Notification_Initialize
                0x9d023f1c       0x1c
 .text.TCPIP_Notification_Initialize
                0x9d023f1c       0x1c build/default/production/_ext/1144052859/tcpip_notify.o
                0x9d023f1c                TCPIP_Notification_Initialize

.text._sys_CONSOLE_GETC
                0x9d023f38       0x1c
 .text._sys_CONSOLE_GETC
                0x9d023f38       0x1c build/default/production/_ext/1829665213/system_command.o

.text._sys_CONSOLE_DATA_RDY
                0x9d023f54       0x1c
 .text._sys_CONSOLE_DATA_RDY
                0x9d023f54       0x1c build/default/production/_ext/1829665213/system_command.o

.text._sys_CONSOLE_PUTC
                0x9d023f70       0x1c
 .text._sys_CONSOLE_PUTC
                0x9d023f70       0x1c build/default/production/_ext/1829665213/system_command.o

.text._sys_CONSOLE_MESSAGE
                0x9d023f8c       0x1c
 .text._sys_CONSOLE_MESSAGE
                0x9d023f8c       0x1c build/default/production/_ext/1829665213/system_command.o

.text.PLIB_ETH_RxFiltersHTSet
                0x9d023fa8       0x1c
 .text.PLIB_ETH_RxFiltersHTSet
                0x9d023fa8       0x1c ..\..\..\..\..\..\..\..\microchip\harmony\v1_02\bin\framework\peripheral\PIC32MX795F512L_peripherals.a(plib_eth_lib.o)
                0x9d023fa8                PLIB_ETH_RxFiltersHTSet

.text.PLIB_ETH_EventsGet
                0x9d023fc4       0x1c
 .text.PLIB_ETH_EventsGet
                0x9d023fc4       0x1c ..\..\..\..\..\..\..\..\microchip\harmony\v1_02\bin\framework\peripheral\PIC32MX795F512L_peripherals.a(plib_eth_lib.o)
                0x9d023fc4                PLIB_ETH_EventsGet

.text.srand     0x9d023fe0       0x1c
 .text.srand    0x9d023fe0       0x1c c:/program files (x86)/microchip/xc32/v1.33/bin/bin/../../lib/gcc/pic32mx/4.5.2/../../../../pic32mx/lib\libc.a(rand.o)
                0x9d023fe0                srand

.text.DRV_ETHPHY_Deinitialize
                0x9d023ffc       0x18
 .text.DRV_ETHPHY_Deinitialize
                0x9d023ffc       0x18 build/default/production/_ext/810051186/drv_ethphy.o
                0x9d023ffc                DRV_ETHPHY_Deinitialize

.text.DRV_ETHPHY_VendorDataSet
                0x9d024014       0x18
 .text.DRV_ETHPHY_VendorDataSet
                0x9d024014       0x18 build/default/production/_ext/810051186/drv_ethphy.o
                0x9d024014                DRV_ETHPHY_VendorDataSet

.text.TCPIP_ARP_HashKeyCompare
                0x9d02402c       0x18
 .text.TCPIP_ARP_HashKeyCompare
                0x9d02402c       0x18 build/default/production/_ext/1144052859/arp.o
                0x9d02402c                TCPIP_ARP_HashKeyCompare

.rodata         0x9d024044       0x30
 .rodata        0x9d024044       0x18 build/default/production/_ext/1144052859/dhcp.o
 .rodata        0x9d02405c       0x18 build/default/production/_ext/1144052859/dns.o

.text._TCPIP_STACK_FindMacModule
                0x9d024074       0x18
 .text._TCPIP_STACK_FindMacModule
                0x9d024074       0x18 build/default/production/_ext/1144052859/tcpip_manager.o
                0x9d024074                _TCPIP_STACK_FindMacModule

.text.TCPIP_STACK_GatewayAddressSet
                0x9d02408c       0x18
 .text.TCPIP_STACK_GatewayAddressSet
                0x9d02408c       0x18 build/default/production/_ext/1144052859/tcpip_manager.o
                0x9d02408c                TCPIP_STACK_GatewayAddressSet

.text.TCPIP_STACK_PrimaryDNSAddressSet
                0x9d0240a4       0x18
 .text.TCPIP_STACK_PrimaryDNSAddressSet
                0x9d0240a4       0x18 build/default/production/_ext/1144052859/tcpip_manager.o
                0x9d0240a4                TCPIP_STACK_PrimaryDNSAddressSet

.text.TCPIP_STACK_SecondaryDNSAddressSet
                0x9d0240bc       0x18
 .text.TCPIP_STACK_SecondaryDNSAddressSet
                0x9d0240bc       0x18 build/default/production/_ext/1144052859/tcpip_manager.o
                0x9d0240bc                TCPIP_STACK_SecondaryDNSAddressSet

.text.PLIB_ETH_RxFiltersSet
                0x9d0240d4       0x18
 .text.PLIB_ETH_RxFiltersSet
                0x9d0240d4       0x18 ..\..\..\..\..\..\..\..\microchip\harmony\v1_02\bin\framework\peripheral\PIC32MX795F512L_peripherals.a(plib_eth_lib.o)
                0x9d0240d4                PLIB_ETH_RxFiltersSet

.text.PLIB_ETH_RxFiltersClr
                0x9d0240ec       0x18
 .text.PLIB_ETH_RxFiltersClr
                0x9d0240ec       0x18 ..\..\..\..\..\..\..\..\microchip\harmony\v1_02\bin\framework\peripheral\PIC32MX795F512L_peripherals.a(plib_eth_lib.o)
                0x9d0240ec                PLIB_ETH_RxFiltersClr

.text           0x9d024104       0x18
 .text          0x9d024104       0x18 c:/program files (x86)/microchip/xc32/v1.33/bin/bin/../../lib/gcc/pic32mx/4.5.2/../../../../pic32mx/lib\libpic32.a(default-nmi-handler.o)
                0x9d024104                _nmi_handler

.text._Phy2LinkStat
                0x9d02411c       0x14
 .text._Phy2LinkStat
                0x9d02411c       0x14 build/default/production/_ext/810051186/drv_ethphy.o

.text.DRV_ETHPHY_ClientStatus
                0x9d024130       0x14
 .text.DRV_ETHPHY_ClientStatus
                0x9d024130       0x14 build/default/production/_ext/810051186/drv_ethphy.o
                0x9d024130                DRV_ETHPHY_ClientStatus

.text.DRV_ETHPHY_ClientOperationResult
                0x9d024144       0x14
 .text.DRV_ETHPHY_ClientOperationResult
                0x9d024144       0x14 build/default/production/_ext/810051186/drv_ethphy.o
                0x9d024144                DRV_ETHPHY_ClientOperationResult

.text.SYS_DEVCON_Initialize
                0x9d024158       0x14
 .text.SYS_DEVCON_Initialize
                0x9d024158       0x14 build/default/production/_ext/335806368/sys_devcon.o
                0x9d024158                SYS_DEVCON_Initialize

.text.SYS_INT_Initialize
                0x9d02416c       0x14
 .text.SYS_INT_Initialize
                0x9d02416c       0x14 build/default/production/_ext/1055666758/sys_int_pic32.o
                0x9d02416c                SYS_INT_Initialize

.text._TcpDiscardTx
                0x9d024180       0x14
 .text._TcpDiscardTx
                0x9d024180       0x14 build/default/production/_ext/1144052859/tcp.o

.text.TCPIP_DNS_GetDataFromUDPBuff
                0x9d024194       0x14
 .text.TCPIP_DNS_GetDataFromUDPBuff
                0x9d024194       0x14 build/default/production/_ext/1144052859/dns.o

.text.TCPIP_HEAP_FreeSize
                0x9d0241a8       0x14
 .text.TCPIP_HEAP_FreeSize
                0x9d0241a8       0x14 build/default/production/_ext/1144052859/tcpip_heap_alloc.o
                0x9d0241a8                TCPIP_HEAP_FreeSize

.text._TCPIP_STACK_TickHandler
                0x9d0241bc       0x14
 .text._TCPIP_STACK_TickHandler
                0x9d0241bc       0x14 build/default/production/_ext/1144052859/tcpip_manager.o

.text.TCPIP_STACK_NetIxGet
                0x9d0241d0       0x14
 .text.TCPIP_STACK_NetIxGet
                0x9d0241d0       0x14 build/default/production/_ext/1144052859/tcpip_manager.o
                0x9d0241d0                TCPIP_STACK_NetIxGet

.text.PLIB_ETH_EventsEnableSet
                0x9d0241e4       0x14
 .text.PLIB_ETH_EventsEnableSet
                0x9d0241e4       0x14 ..\..\..\..\..\..\..\..\microchip\harmony\v1_02\bin\framework\peripheral\PIC32MX795F512L_peripherals.a(plib_eth_lib.o)
                0x9d0241e4                PLIB_ETH_EventsEnableSet

.text.PLIB_ETH_EventsEnableClr
                0x9d0241f8       0x14
 .text.PLIB_ETH_EventsEnableClr
                0x9d0241f8       0x14 ..\..\..\..\..\..\..\..\microchip\harmony\v1_02\bin\framework\peripheral\PIC32MX795F512L_peripherals.a(plib_eth_lib.o)
                0x9d0241f8                PLIB_ETH_EventsEnableClr

.text.PLIB_ETH_EventsClr
                0x9d02420c       0x14
 .text.PLIB_ETH_EventsClr
                0x9d02420c       0x14 ..\..\..\..\..\..\..\..\microchip\harmony\v1_02\bin\framework\peripheral\PIC32MX795F512L_peripherals.a(plib_eth_lib.o)
                0x9d02420c                PLIB_ETH_EventsClr

.text.TCPIP_ARP_HashKeyCopy
                0x9d024220       0x10
 .text.TCPIP_ARP_HashKeyCopy
                0x9d024220       0x10 build/default/production/_ext/1144052859/arp.o
                0x9d024220                TCPIP_ARP_HashKeyCopy

.text.TCPIP_Helper_SingleListInitialize
                0x9d024230       0x10
 .text.TCPIP_Helper_SingleListInitialize
                0x9d024230       0x10 build/default/production/_ext/1144052859/tcpip_helpers.o
                0x9d024230                TCPIP_Helper_SingleListInitialize

.text._TCPIPStackAsyncHandlerDeRegister
                0x9d024240       0x10
 .text._TCPIPStackAsyncHandlerDeRegister
                0x9d024240       0x10 build/default/production/_ext/1144052859/tcpip_manager.o
                0x9d024240                _TCPIPStackAsyncHandlerDeRegister

.text._TCPIP_PKT_FlightModIx
                0x9d024250       0x10
 .text._TCPIP_PKT_FlightModIx
                0x9d024250       0x10 build/default/production/_ext/1144052859/tcpip_packet.o

.text.USART_DATA_RDY
                0x9d024260       0x10
 .text.USART_DATA_RDY
                0x9d024260       0x10 build/default/production/_ext/918699391/usart.o
                0x9d024260                USART_DATA_RDY

.text.DRV_ETHMAC_PIC32MACEventPendingGet
                0x9d024270        0xc
 .text.DRV_ETHMAC_PIC32MACEventPendingGet
                0x9d024270        0xc build/default/production/_ext/1986204992/drv_ethmac.o
                0x9d024270                DRV_ETHMAC_PIC32MACEventPendingGet

.text._DRV_PHY_SetOperPhase
                0x9d02427c        0xc
 .text._DRV_PHY_SetOperPhase
                0x9d02427c        0xc build/default/production/_ext/810051186/drv_ethphy.o

.text.DRV_EXTPHY_SMIClockGet
                0x9d024288        0xc
 .text.DRV_EXTPHY_SMIClockGet
                0x9d024288        0xc build/default/production/_ext/810051186/drv_extphy_smsc8740.o
                0x9d024288                DRV_EXTPHY_SMIClockGet

.text.SYS_TMR_ModuleStatusGet
                0x9d024294        0xc
 .text.SYS_TMR_ModuleStatusGet
                0x9d024294        0xc build/default/production/_ext/2097170832/sys_tmr.o
                0x9d024294                SYS_TMR_ModuleStatusGet

.text.TCPIP_ANNOUNCE_SendTaskPending
                0x9d0242a0        0xc
 .text.TCPIP_ANNOUNCE_SendTaskPending
                0x9d0242a0        0xc build/default/production/_ext/1144052859/tcpip_announce.o
                0x9d0242a0                TCPIP_ANNOUNCE_SendTaskPending

.text.TCPIP_HEAP_Size
                0x9d0242ac        0xc
 .text.TCPIP_HEAP_Size
                0x9d0242ac        0xc build/default/production/_ext/1144052859/tcpip_heap_alloc.o
                0x9d0242ac                TCPIP_HEAP_Size

.text.TCPIP_HEAP_LastError
                0x9d0242b8        0xc
 .text.TCPIP_HEAP_LastError
                0x9d0242b8        0xc build/default/production/_ext/1144052859/tcpip_heap_alloc.o
                0x9d0242b8                TCPIP_HEAP_LastError

.text.TCPIP_STACK_NumberOfNetworksGet
                0x9d0242c4        0xc
 .text.TCPIP_STACK_NumberOfNetworksGet
                0x9d0242c4        0xc build/default/production/_ext/1144052859/tcpip_manager.o
                0x9d0242c4                TCPIP_STACK_NumberOfNetworksGet

.text.TCPIP_STACK_NetBIOSName
                0x9d0242d0        0xc
 .text.TCPIP_STACK_NetBIOSName
                0x9d0242d0        0xc build/default/production/_ext/1144052859/tcpip_manager.o
                0x9d0242d0                TCPIP_STACK_NetBIOSName

.text._TCPIPStackAddressServiceIsRunning
                0x9d0242dc        0xc
 .text._TCPIPStackAddressServiceIsRunning
                0x9d0242dc        0xc build/default/production/_ext/1144052859/tcpip_manager.o
                0x9d0242dc                _TCPIPStackAddressServiceIsRunning

.text.SYS_CLK_SystemFrequencyGet
                0x9d0242e8        0xc
 .text.SYS_CLK_SystemFrequencyGet
                0x9d0242e8        0xc build/default/production/_ext/639803181/sys_clk_static.o
                0x9d0242e8                SYS_CLK_SystemFrequencyGet

.text.SYS_CLK_PeripheralFrequencyGet
                0x9d0242f4        0xc
 .text.SYS_CLK_PeripheralFrequencyGet
                0x9d0242f4        0xc build/default/production/_ext/639803181/sys_clk_static.o
                0x9d0242f4                SYS_CLK_PeripheralFrequencyGet

.text.DRV_ETHMAC_PIC32MACReinitialize
                0x9d024300        0x8
 .text.DRV_ETHMAC_PIC32MACReinitialize
                0x9d024300        0x8 build/default/production/_ext/1986204992/drv_ethmac.o
                0x9d024300                DRV_ETHMAC_PIC32MACReinitialize

.text.DRV_ETHMAC_PIC32MACPowerMode
                0x9d024308        0x8
 .text.DRV_ETHMAC_PIC32MACPowerMode
                0x9d024308        0x8 build/default/production/_ext/1986204992/drv_ethmac.o
                0x9d024308                DRV_ETHMAC_PIC32MACPowerMode

.text._DRV_ETHPHY_ClientOpNone
                0x9d024310        0x8
 .text._DRV_ETHPHY_ClientOpNone
                0x9d024310        0x8 build/default/production/_ext/810051186/drv_ethphy.o

.text.DRV_TMR_Tasks
                0x9d024318        0x8
 .text.DRV_TMR_Tasks
                0x9d024318        0x8 build/default/production/_ext/304478105/drv_tmr.o
                0x9d024318                DRV_TMR_Tasks

.text.SYS_DEVCON_Tasks
                0x9d024320        0x8
 .text.SYS_DEVCON_Tasks
                0x9d024320        0x8 build/default/production/_ext/335806368/sys_devcon.o
                0x9d024320                SYS_DEVCON_Tasks

.rodata         0x9d024328       0x18
 .rodata        0x9d024328        0x8 build/default/production/_ext/2097170832/sys_tmr.o
 .rodata        0x9d024330        0x8 build/default/production/_ext/1144052859/tcp.o
 .rodata        0x9d024338        0x8 build/default/production/_ext/1144052859/udp.o

.text._OAHashProbeStep
                0x9d024340        0x8
 .text._OAHashProbeStep
                0x9d024340        0x8 build/default/production/_ext/1144052859/oahash.o

.text.TCPIP_STACK_NetDefaultGet
                0x9d024348        0x8
 .text.TCPIP_STACK_NetDefaultGet
                0x9d024348        0x8 build/default/production/_ext/1144052859/tcpip_manager.o
                0x9d024348                TCPIP_STACK_NetDefaultGet

.text.TCPIP_STACK_DNSServiceCanStart
                0x9d024350        0x8
 .text.TCPIP_STACK_DNSServiceCanStart
                0x9d024350        0x8 build/default/production/_ext/1144052859/tcpip_manager.o
                0x9d024350                TCPIP_STACK_DNSServiceCanStart

.text.TCPIP_PKT_Deinitialize
                0x9d024358        0x8
 .text.TCPIP_PKT_Deinitialize
                0x9d024358        0x8 build/default/production/_ext/1144052859/tcpip_packet.o
                0x9d024358                TCPIP_PKT_Deinitialize

.text.APP_Initialize
                0x9d024360        0x8
 .text.APP_Initialize
                0x9d024360        0x8 build/default/production/_ext/1360937237/app.o
                0x9d024360                APP_Initialize

.text.APP_Tasks
                0x9d024368        0x8
 .text.APP_Tasks
                0x9d024368        0x8 build/default/production/_ext/1360937237/app.o
                0x9d024368                APP_Tasks

.text._on_reset
                0x9d024370        0x8
 .text._on_reset
                0x9d024370        0x8 c:/program files (x86)/microchip/xc32/v1.33/bin/bin/../../lib/gcc/pic32mx/4.5.2/../../../../pic32mx/lib\libpic32.a(default-on-reset.o)
                0x9d024370                _on_reset

.text._on_bootstrap
                0x9d024378        0x8
 .text._on_bootstrap
                0x9d024378        0x8 c:/program files (x86)/microchip/xc32/v1.33/bin/bin/../../lib/gcc/pic32mx/4.5.2/../../../../pic32mx/lib\libpic32.a(default-on-bootstrap.o)
                0x9d024378                _on_bootstrap

.rodata         0x9d024380        0x8
 .rodata        0x9d024380        0x8 c:/program files (x86)/microchip/xc32/v1.33/bin/bin/../../lib/gcc/pic32mx/4.5.2\libgcc.a(_floatundisf.o)

.rodata         0x9d01a834        0x4
 .rodata        0x9d01a834        0x4 build/default/production/_ext/1144052859/tcpip_announce.o
